---
triple:          'x86_64-apple-darwin'
binary-path:     '/Users/macbook/Documents/Auto_Formation/C++/Acquis/src/main'
relocations:
  - { offsetInCU: 0xE4C4, offset: 0xE4C4, size: 0x8, addend: 0x0, symName: __ZNSt3__17advanceB8ue170006INS_21__tree_const_iteratorINS_12__value_typeINS_12basic_stringIcNS_11char_traitsIcEENS_9allocatorIcEEEEN8nlohmann16json_abi_v3_11_310basic_jsonINS_3mapENS_6vectorES8_bxydS6_NSA_14adl_serializerENSD_IhNS6_IhEEEEvEEEEPNS_11__tree_nodeISI_PvEElEEllvEEvRT_T0_, symObjAddr: 0x6A10, symBinAddr: 0x100007780, symSize: 0x30 }
  - { offsetInCU: 0xF545, offset: 0xF545, size: 0x8, addend: 0x0, symName: __ZNSt3__118__constexpr_strlenB8ue170006EPKc, symObjAddr: 0x660, symBinAddr: 0x1000013D0, symSize: 0x20 }
  - { offsetInCU: 0xF571, offset: 0xF571, size: 0x8, addend: 0x0, symName: __ZNSt3__14moveB8ue170006INS_11__wrap_iterIPN8nlohmann16json_abi_v3_11_310basic_jsonINS_3mapENS_6vectorENS_12basic_stringIcNS_11char_traitsIcEENS_9allocatorIcEEEEbxydSA_NS3_14adl_serializerENS6_IhNSA_IhEEEEvEEEENS_20back_insert_iteratorINS6_ISG_NSA_ISG_EEEEEEEET0_T_SO_SN_, symObjAddr: 0xFA0, symBinAddr: 0x100001D10, symSize: 0x60 }
  - { offsetInCU: 0xF5CB, offset: 0xF5CB, size: 0x8, addend: 0x0, symName: __ZNSt3__113back_inserterB8ue170006INS_6vectorIN8nlohmann16json_abi_v3_11_310basic_jsonINS_3mapES1_NS_12basic_stringIcNS_11char_traitsIcEENS_9allocatorIcEEEEbxydS9_NS3_14adl_serializerENS1_IhNS9_IhEEEEvEENS9_ISF_EEEEEENS_20back_insert_iteratorIT_EERSJ_, symObjAddr: 0x1060, symBinAddr: 0x100001DD0, symSize: 0x30 }
  - { offsetInCU: 0xF600, offset: 0xF600, size: 0x8, addend: 0x0, symName: __ZNSt3__1neB8ue170006ERKNS_14__map_iteratorINS_15__tree_iteratorINS_12__value_typeINS_12basic_stringIcNS_11char_traitsIcEENS_9allocatorIcEEEEN8nlohmann16json_abi_v3_11_310basic_jsonINS_3mapENS_6vectorES8_bxydS6_NSA_14adl_serializerENSD_IhNS6_IhEEEEvEEEEPNS_11__tree_nodeISI_PvEElEEEESQ_, symObjAddr: 0x1110, symBinAddr: 0x100001E80, symSize: 0x30 }
  - { offsetInCU: 0xFD39, offset: 0xFD39, size: 0x8, addend: 0x0, symName: __ZNSt3__13minB8ue170006ImEERKT_S3_S3_, symObjAddr: 0x1930, symBinAddr: 0x1000026A0, symSize: 0x30 }
  - { offsetInCU: 0xFF66, offset: 0xFF66, size: 0x8, addend: 0x0, symName: __ZNSt3__13minB8ue170006ImNS_6__lessIvvEEEERKT_S5_S5_T0_, symObjAddr: 0x19B0, symBinAddr: 0x100002720, symSize: 0x50 }
  - { offsetInCU: 0x10005, offset: 0x10005, size: 0x8, addend: 0x0, symName: __ZNSt3__120__throw_length_errorB8ue170006EPKc, symObjAddr: 0x1A90, symBinAddr: 0x100002800, symSize: 0x70 }
  - { offsetInCU: 0x1002F, offset: 0x1002F, size: 0x8, addend: 0x0, symName: __ZNSt3__119__allocate_at_leastB8ue170006INS_9allocatorIN8nlohmann16json_abi_v3_11_310basic_jsonINS_3mapENS_6vectorENS_12basic_stringIcNS_11char_traitsIcEENS1_IcEEEEbxydS1_NS3_14adl_serializerENS6_IhNS1_IhEEEEvEEEEEENS_19__allocation_resultINS_16allocator_traitsIT_E7pointerEEERSJ_m, symObjAddr: 0x1CA0, symBinAddr: 0x100002A10, symSize: 0x40 }
  - { offsetInCU: 0x10072, offset: 0x10072, size: 0x8, addend: 0x0, symName: __ZNSt3__117__libcpp_allocateB8ue170006Emm, symObjAddr: 0x1E10, symBinAddr: 0x100002B80, symSize: 0x60 }
  - { offsetInCU: 0x100CC, offset: 0x100CC, size: 0x8, addend: 0x0, symName: __ZNSt3__124__is_overaligned_for_newB8ue170006Em, symObjAddr: 0x1E70, symBinAddr: 0x100002BE0, symSize: 0x20 }
  - { offsetInCU: 0x100FA, offset: 0x100FA, size: 0x8, addend: 0x0, symName: __ZNSt3__121__libcpp_operator_newB8ue170006IJmSt11align_val_tEEEPvDpT_, symObjAddr: 0x1E90, symBinAddr: 0x100002C00, symSize: 0x30 }
  - { offsetInCU: 0x10147, offset: 0x10147, size: 0x8, addend: 0x0, symName: __ZNSt3__121__libcpp_operator_newB8ue170006IJmEEEPvDpT_, symObjAddr: 0x1EC0, symBinAddr: 0x100002C30, symSize: 0x20 }
  - { offsetInCU: 0x10180, offset: 0x10180, size: 0x8, addend: 0x0, symName: __ZNSt3__142__uninitialized_allocator_move_if_noexceptB8ue170006INS_9allocatorIN8nlohmann16json_abi_v3_11_310basic_jsonINS_3mapENS_6vectorENS_12basic_stringIcNS_11char_traitsIcEENS1_IcEEEEbxydS1_NS3_14adl_serializerENS6_IhNS1_IhEEEEvEEEENS_16reverse_iteratorIPSF_EESJ_SJ_EET2_RT_T0_T1_SK_, symObjAddr: 0x2000, symBinAddr: 0x100002D70, symSize: 0x180 }
  - { offsetInCU: 0x1021F, offset: 0x1021F, size: 0x8, addend: 0x0, symName: __ZNSt3__14swapB8ue170006IPN8nlohmann16json_abi_v3_11_310basic_jsonINS_3mapENS_6vectorENS_12basic_stringIcNS_11char_traitsIcEENS_9allocatorIcEEEEbxydS9_NS2_14adl_serializerENS5_IhNS9_IhEEEEvEEEENS_9enable_ifIXaasr21is_move_constructibleIT_EE5valuesr18is_move_assignableISI_EE5valueEvE4typeERSI_SL_, symObjAddr: 0x21D0, symBinAddr: 0x100002F40, symSize: 0x40 }
  - { offsetInCU: 0x10270, offset: 0x10270, size: 0x8, addend: 0x0, symName: __ZNSt3__112__to_addressB8ue170006IN8nlohmann16json_abi_v3_11_310basic_jsonINS_3mapENS_6vectorENS_12basic_stringIcNS_11char_traitsIcEENS_9allocatorIcEEEEbxydS9_NS2_14adl_serializerENS5_IhNS9_IhEEEEvEEEEPT_SH_, symObjAddr: 0x2320, symBinAddr: 0x100003090, symSize: 0x10 }
  - { offsetInCU: 0x102A5, offset: 0x102A5, size: 0x8, addend: 0x0, symName: __ZNSt3__122__make_exception_guardB8ue170006INS_29_AllocatorDestroyRangeReverseINS_9allocatorIN8nlohmann16json_abi_v3_11_310basic_jsonINS_3mapENS_6vectorENS_12basic_stringIcNS_11char_traitsIcEENS2_IcEEEEbxydS2_NS4_14adl_serializerENS7_IhNS2_IhEEEEvEEEENS_16reverse_iteratorIPSG_EEEEEENS_28__exception_guard_exceptionsIT_EESN_, symObjAddr: 0x2330, symBinAddr: 0x1000030A0, symSize: 0x60 }
  - { offsetInCU: 0x102DA, offset: 0x102DA, size: 0x8, addend: 0x0, symName: __ZNSt3__1neB8ue170006IPN8nlohmann16json_abi_v3_11_310basic_jsonINS_3mapENS_6vectorENS_12basic_stringIcNS_11char_traitsIcEENS_9allocatorIcEEEEbxydS9_NS2_14adl_serializerENS5_IhNS9_IhEEEEvEESG_EEbRKNS_16reverse_iteratorIT_EERKNSH_IT0_EE, symObjAddr: 0x23D0, symBinAddr: 0x100003140, symSize: 0x40 }
  - { offsetInCU: 0x10326, offset: 0x10326, size: 0x8, addend: 0x0, symName: __ZNSt3__112__to_addressB8ue170006INS_16reverse_iteratorIPN8nlohmann16json_abi_v3_11_310basic_jsonINS_3mapENS_6vectorENS_12basic_stringIcNS_11char_traitsIcEENS_9allocatorIcEEEEbxydSA_NS3_14adl_serializerENS6_IhNSA_IhEEEEvEEEEvEEu7__decayIDTclsr19__to_address_helperIT_EE6__callclsr3stdE7declvalIRKSJ_EEEEESL_, symObjAddr: 0x2440, symBinAddr: 0x1000031B0, symSize: 0x20 }
  - { offsetInCU: 0x10386, offset: 0x10386, size: 0x8, addend: 0x0, symName: __ZNSt3__119__allocator_destroyB8ue170006INS_9allocatorIN8nlohmann16json_abi_v3_11_310basic_jsonINS_3mapENS_6vectorENS_12basic_stringIcNS_11char_traitsIcEENS1_IcEEEEbxydS1_NS3_14adl_serializerENS6_IhNS1_IhEEEEvEEEENS_16reverse_iteratorINSH_IPSF_EEEESK_EEvRT_T0_T1_, symObjAddr: 0x2760, symBinAddr: 0x1000034D0, symSize: 0x70 }
  - { offsetInCU: 0x103E8, offset: 0x103E8, size: 0x8, addend: 0x0, symName: __ZNSt3__1neB8ue170006INS_16reverse_iteratorIPN8nlohmann16json_abi_v3_11_310basic_jsonINS_3mapENS_6vectorENS_12basic_stringIcNS_11char_traitsIcEENS_9allocatorIcEEEEbxydSA_NS3_14adl_serializerENS6_IhNSA_IhEEEEvEEEESI_EEbRKNS1_IT_EERKNS1_IT0_EE, symObjAddr: 0x2800, symBinAddr: 0x100003570, symSize: 0x50 }
  - { offsetInCU: 0x10434, offset: 0x10434, size: 0x8, addend: 0x0, symName: __ZNSt3__112__to_addressB8ue170006INS_16reverse_iteratorINS1_IPN8nlohmann16json_abi_v3_11_310basic_jsonINS_3mapENS_6vectorENS_12basic_stringIcNS_11char_traitsIcEENS_9allocatorIcEEEEbxydSA_NS3_14adl_serializerENS6_IhNSA_IhEEEEvEEEEEEvEEu7__decayIDTclsr19__to_address_helperIT_EE6__callclsr3stdE7declvalIRKSK_EEEEESM_, symObjAddr: 0x2880, symBinAddr: 0x1000035F0, symSize: 0x20 }
  - { offsetInCU: 0x10494, offset: 0x10494, size: 0x8, addend: 0x0, symName: __ZNSt3__119__libcpp_deallocateB8ue170006EPvmm, symObjAddr: 0x2C40, symBinAddr: 0x1000039B0, symSize: 0x60 }
  - { offsetInCU: 0x104F9, offset: 0x104F9, size: 0x8, addend: 0x0, symName: __ZNSt3__127__do_deallocate_handle_sizeB8ue170006IJSt11align_val_tEEEvPvmDpT_, symObjAddr: 0x2CA0, symBinAddr: 0x100003A10, symSize: 0x30 }
  - { offsetInCU: 0x1054C, offset: 0x1054C, size: 0x8, addend: 0x0, symName: __ZNSt3__127__do_deallocate_handle_sizeB8ue170006IJEEEvPvmDpT_, symObjAddr: 0x2CD0, symBinAddr: 0x100003A40, symSize: 0x20 }
  - { offsetInCU: 0x1058A, offset: 0x1058A, size: 0x8, addend: 0x0, symName: __ZNSt3__124__libcpp_operator_deleteB8ue170006IJPvSt11align_val_tEEEvDpT_, symObjAddr: 0x2CF0, symBinAddr: 0x100003A60, symSize: 0x30 }
  - { offsetInCU: 0x105D3, offset: 0x105D3, size: 0x8, addend: 0x0, symName: __ZNSt3__124__libcpp_operator_deleteB8ue170006IJPvEEEvDpT_, symObjAddr: 0x2D20, symBinAddr: 0x100003A90, symSize: 0x20 }
  - { offsetInCU: 0x10607, offset: 0x10607, size: 0x8, addend: 0x0, symName: __ZNSt3__16__moveB8ue170006INS_17_ClassicAlgPolicyENS_11__wrap_iterIPN8nlohmann16json_abi_v3_11_310basic_jsonINS_3mapENS_6vectorENS_12basic_stringIcNS_11char_traitsIcEENS_9allocatorIcEEEEbxydSB_NS4_14adl_serializerENS7_IhNSB_IhEEEEvEEEESJ_NS_20back_insert_iteratorINS7_ISH_NSB_ISH_EEEEEEEENS_4pairIT0_T2_EESP_T1_SQ_, symObjAddr: 0x2D80, symBinAddr: 0x100003AF0, symSize: 0x60 }
  - { offsetInCU: 0x10673, offset: 0x10673, size: 0x8, addend: 0x0, symName: __ZNSt3__123__dispatch_copy_or_moveB8ue170006INS_17_ClassicAlgPolicyENS_11__move_loopIS1_EENS_14__move_trivialENS_11__wrap_iterIPN8nlohmann16json_abi_v3_11_310basic_jsonINS_3mapENS_6vectorENS_12basic_stringIcNS_11char_traitsIcEENS_9allocatorIcEEEEbxydSE_NS7_14adl_serializerENSA_IhNSE_IhEEEEvEEEESM_NS_20back_insert_iteratorINSA_ISK_NSE_ISK_EEEEEEEENS_4pairIT2_T4_EESS_T3_ST_, symObjAddr: 0x2DE0, symBinAddr: 0x100003B50, symSize: 0x60 }
  - { offsetInCU: 0x106F1, offset: 0x106F1, size: 0x8, addend: 0x0, symName: __ZNSt3__121__unwrap_and_dispatchB8ue170006INS_10__overloadINS_11__move_loopINS_17_ClassicAlgPolicyEEENS_14__move_trivialEEENS_11__wrap_iterIPN8nlohmann16json_abi_v3_11_310basic_jsonINS_3mapENS_6vectorENS_12basic_stringIcNS_11char_traitsIcEENS_9allocatorIcEEEEbxydSG_NS9_14adl_serializerENSC_IhNSG_IhEEEEvEEEESO_NS_20back_insert_iteratorINSC_ISM_NSG_ISM_EEEEEELi0EEENS_4pairIT0_T2_EESU_T1_SV_, symObjAddr: 0x2E40, symBinAddr: 0x100003BB0, symSize: 0x100 }
  - { offsetInCU: 0x10780, offset: 0x10780, size: 0x8, addend: 0x0, symName: __ZNSt3__114__unwrap_rangeB8ue170006INS_11__wrap_iterIPN8nlohmann16json_abi_v3_11_310basic_jsonINS_3mapENS_6vectorENS_12basic_stringIcNS_11char_traitsIcEENS_9allocatorIcEEEEbxydSA_NS3_14adl_serializerENS6_IhNSA_IhEEEEvEEEESH_EENS_4pairIT0_SK_EET_SM_, symObjAddr: 0x2F40, symBinAddr: 0x100003CB0, symSize: 0x60 }
  - { offsetInCU: 0x108FB, offset: 0x108FB, size: 0x8, addend: 0x0, symName: __ZNSt3__113__unwrap_iterB8ue170006INS_20back_insert_iteratorINS_6vectorIN8nlohmann16json_abi_v3_11_310basic_jsonINS_3mapES2_NS_12basic_stringIcNS_11char_traitsIcEENS_9allocatorIcEEEEbxydSA_NS4_14adl_serializerENS2_IhNSA_IhEEEEvEENSA_ISG_EEEEEENS_18__unwrap_iter_implISJ_Lb0EEELi0EEEDTclsrT0_8__unwrapclsr3stdE7declvalIT_EEEESN_, symObjAddr: 0x3030, symBinAddr: 0x100003DA0, symSize: 0x30 }
  - { offsetInCU: 0x1093F, offset: 0x1093F, size: 0x8, addend: 0x0, symName: __ZNSt3__19make_pairB8ue170006INS_11__wrap_iterIPN8nlohmann16json_abi_v3_11_310basic_jsonINS_3mapENS_6vectorENS_12basic_stringIcNS_11char_traitsIcEENS_9allocatorIcEEEEbxydSA_NS3_14adl_serializerENS6_IhNSA_IhEEEEvEEEENS_20back_insert_iteratorINS6_ISG_NSA_ISG_EEEEEEEENS_4pairINS_18__unwrap_ref_decayIT_E4typeENSO_IT0_E4typeEEEOSP_OSS_, symObjAddr: 0x3060, symBinAddr: 0x100003DD0, symSize: 0x30 }
  - { offsetInCU: 0x1098E, offset: 0x1098E, size: 0x8, addend: 0x0, symName: __ZNSt3__114__rewrap_rangeB8ue170006INS_11__wrap_iterIPN8nlohmann16json_abi_v3_11_310basic_jsonINS_3mapENS_6vectorENS_12basic_stringIcNS_11char_traitsIcEENS_9allocatorIcEEEEbxydSA_NS3_14adl_serializerENS6_IhNSA_IhEEEEvEEEESH_EET_SJ_T0_, symObjAddr: 0x3090, symBinAddr: 0x100003E00, symSize: 0x40 }
  - { offsetInCU: 0x109DA, offset: 0x109DA, size: 0x8, addend: 0x0, symName: __ZNSt3__113__rewrap_iterB8ue170006INS_20back_insert_iteratorINS_6vectorIN8nlohmann16json_abi_v3_11_310basic_jsonINS_3mapES2_NS_12basic_stringIcNS_11char_traitsIcEENS_9allocatorIcEEEEbxydSA_NS4_14adl_serializerENS2_IhNSA_IhEEEEvEENSA_ISG_EEEEEESJ_NS_18__unwrap_iter_implISJ_Lb0EEEEET_SM_T0_, symObjAddr: 0x30D0, symBinAddr: 0x100003E40, symSize: 0x50 }
  - { offsetInCU: 0x10A2F, offset: 0x10A2F, size: 0x8, addend: 0x0, symName: __ZNSt3__19make_pairB8ue170006IPN8nlohmann16json_abi_v3_11_310basic_jsonINS_3mapENS_6vectorENS_12basic_stringIcNS_11char_traitsIcEENS_9allocatorIcEEEEbxydS9_NS2_14adl_serializerENS5_IhNS9_IhEEEEvEESG_EENS_4pairINS_18__unwrap_ref_decayIT_E4typeENSI_IT0_E4typeEEEOSJ_OSM_, symObjAddr: 0x3120, symBinAddr: 0x100003E90, symSize: 0x30 }
  - { offsetInCU: 0x10A7E, offset: 0x10A7E, size: 0x8, addend: 0x0, symName: __ZNSt3__113__unwrap_iterB8ue170006INS_11__wrap_iterIPN8nlohmann16json_abi_v3_11_310basic_jsonINS_3mapENS_6vectorENS_12basic_stringIcNS_11char_traitsIcEENS_9allocatorIcEEEEbxydSA_NS3_14adl_serializerENS6_IhNSA_IhEEEEvEEEENS_18__unwrap_iter_implISI_Lb1EEELi0EEEDTclsrT0_8__unwrapclsr3stdE7declvalIT_EEEESM_, symObjAddr: 0x3150, symBinAddr: 0x100003EC0, symSize: 0x30 }
  - { offsetInCU: 0x10BE9, offset: 0x10BE9, size: 0x8, addend: 0x0, symName: __ZNSt3__112__to_addressB8ue170006INS_11__wrap_iterIPN8nlohmann16json_abi_v3_11_310basic_jsonINS_3mapENS_6vectorENS_12basic_stringIcNS_11char_traitsIcEENS_9allocatorIcEEEEbxydSA_NS3_14adl_serializerENS6_IhNSA_IhEEEEvEEEEvEEu7__decayIDTclsr19__to_address_helperIT_EE6__callclsr3stdE7declvalIRKSJ_EEEEESL_, symObjAddr: 0x3200, symBinAddr: 0x100003F70, symSize: 0x20 }
  - { offsetInCU: 0x10D2E, offset: 0x10D2E, size: 0x8, addend: 0x0, symName: __ZNSt3__19make_pairB8ue170006IPN8nlohmann16json_abi_v3_11_310basic_jsonINS_3mapENS_6vectorENS_12basic_stringIcNS_11char_traitsIcEENS_9allocatorIcEEEEbxydS9_NS2_14adl_serializerENS5_IhNS9_IhEEEEvEENS_20back_insert_iteratorINS5_ISF_NS9_ISF_EEEEEEEENS_4pairINS_18__unwrap_ref_decayIT_E4typeENSM_IT0_E4typeEEEOSN_OSQ_, symObjAddr: 0x3310, symBinAddr: 0x100004080, symSize: 0x30 }
  - { offsetInCU: 0x10E99, offset: 0x10E99, size: 0x8, addend: 0x0, symName: __ZNSt3__113__rewrap_iterB8ue170006INS_11__wrap_iterIPN8nlohmann16json_abi_v3_11_310basic_jsonINS_3mapENS_6vectorENS_12basic_stringIcNS_11char_traitsIcEENS_9allocatorIcEEEEbxydSA_NS3_14adl_serializerENS6_IhNSA_IhEEEEvEEEESH_NS_18__unwrap_iter_implISI_Lb1EEEEET_SL_T0_, symObjAddr: 0x3430, symBinAddr: 0x1000041A0, symSize: 0x50 }
  - { offsetInCU: 0x10F21, offset: 0x10F21, size: 0x8, addend: 0x0, symName: __ZNSt3__1neB8ue170006ERKNS_15__tree_iteratorINS_12__value_typeINS_12basic_stringIcNS_11char_traitsIcEENS_9allocatorIcEEEEN8nlohmann16json_abi_v3_11_310basic_jsonINS_3mapENS_6vectorES7_bxydS5_NS9_14adl_serializerENSC_IhNS5_IhEEEEvEEEEPNS_11__tree_nodeISH_PvEElEESO_, symObjAddr: 0x37F0, symBinAddr: 0x100004560, symSize: 0x30 }
  - { offsetInCU: 0x10F5E, offset: 0x10F5E, size: 0x8, addend: 0x0, symName: __ZNSt3__1eqB8ue170006ERKNS_15__tree_iteratorINS_12__value_typeINS_12basic_stringIcNS_11char_traitsIcEENS_9allocatorIcEEEEN8nlohmann16json_abi_v3_11_310basic_jsonINS_3mapENS_6vectorES7_bxydS5_NS9_14adl_serializerENSC_IhNS5_IhEEEEvEEEEPNS_11__tree_nodeISH_PvEElEESO_, symObjAddr: 0x3820, symBinAddr: 0x100004590, symSize: 0x30 }
  - { offsetInCU: 0x10FCE, offset: 0x10FCE, size: 0x8, addend: 0x0, symName: __ZNSt3__17launderB8ue170006INS_4pairIKNS_12basic_stringIcNS_11char_traitsIcEENS_9allocatorIcEEEEN8nlohmann16json_abi_v3_11_310basic_jsonINS_3mapENS_6vectorES7_bxydS5_NSA_14adl_serializerENSD_IhNS5_IhEEEEvEEEEEEPT_SK_, symObjAddr: 0x38D0, symBinAddr: 0x100004640, symSize: 0x20 }
  - { offsetInCU: 0x11005, offset: 0x11005, size: 0x8, addend: 0x0, symName: __ZNSt3__19__launderB8ue170006INS_4pairIKNS_12basic_stringIcNS_11char_traitsIcEENS_9allocatorIcEEEEN8nlohmann16json_abi_v3_11_310basic_jsonINS_3mapENS_6vectorES7_bxydS5_NSA_14adl_serializerENSD_IhNS5_IhEEEEvEEEEEEPT_SK_, symObjAddr: 0x38F0, symBinAddr: 0x100004660, symSize: 0x10 }
  - { offsetInCU: 0x1103C, offset: 0x1103C, size: 0x8, addend: 0x0, symName: __ZNSt3__13maxB8ue170006ImEERKT_S3_S3_, symObjAddr: 0x3BB0, symBinAddr: 0x100004920, symSize: 0x30 }
  - { offsetInCU: 0x1107F, offset: 0x1107F, size: 0x8, addend: 0x0, symName: __ZNSt3__13maxB8ue170006ImNS_6__lessIvvEEEERKT_S5_S5_T0_, symObjAddr: 0x3BE0, symBinAddr: 0x100004950, symSize: 0x50 }
  - { offsetInCU: 0x110D9, offset: 0x110D9, size: 0x8, addend: 0x0, symName: __ZNSt3__116__tree_next_iterB8ue170006IPNS_15__tree_end_nodeIPNS_16__tree_node_baseIPvEEEES5_EET_T0_, symObjAddr: 0x3C60, symBinAddr: 0x1000049D0, symSize: 0x90 }
  - { offsetInCU: 0x11117, offset: 0x11117, size: 0x8, addend: 0x0, symName: __ZNSt3__110__tree_minB8ue170006IPNS_16__tree_node_baseIPvEEEET_S5_, symObjAddr: 0x3CF0, symBinAddr: 0x100004A60, symSize: 0x30 }
  - { offsetInCU: 0x1114C, offset: 0x1114C, size: 0x8, addend: 0x0, symName: __ZNSt3__120__tree_is_left_childB8ue170006IPNS_16__tree_node_baseIPvEEEEbT_, symObjAddr: 0x3D20, symBinAddr: 0x100004A90, symSize: 0x30 }
  - { offsetInCU: 0x11181, offset: 0x11181, size: 0x8, addend: 0x0, symName: __ZNSt3__112__to_addressB8ue170006IhEEPT_S2_, symObjAddr: 0x49F0, symBinAddr: 0x100005760, symSize: 0x10 }
  - { offsetInCU: 0x115B5, offset: 0x115B5, size: 0x8, addend: 0x0, symName: __ZNSt3__1neB8ue170006INS_3mapINS_12basic_stringIcNS_11char_traitsIcEENS_9allocatorIcEEEEN8nlohmann16json_abi_v3_11_310basic_jsonIS1_NS_6vectorES7_bxydS5_NS9_14adl_serializerENSB_IhNS5_IhEEEEvEENS_4lessIvEENS5_INS_4pairIKS7_SF_EEEEEEZNSF_6createISM_JRKSM_EEEPT_DpOT0_EUlPSM_E_EEbRKNS_10unique_ptrISQ_T0_EEDn, symObjAddr: 0x5140, symBinAddr: 0x100005EB0, symSize: 0x30 }
  - { offsetInCU: 0x11601, offset: 0x11601, size: 0x8, addend: 0x0, symName: __ZNSt3__1neB8ue170006ERKNS_20__map_const_iteratorINS_21__tree_const_iteratorINS_12__value_typeINS_12basic_stringIcNS_11char_traitsIcEENS_9allocatorIcEEEEN8nlohmann16json_abi_v3_11_310basic_jsonINS_3mapENS_6vectorES8_bxydS6_NSA_14adl_serializerENSD_IhNS6_IhEEEEvEEEEPNS_11__tree_nodeISI_PvEElEEEESQ_, symObjAddr: 0x5850, symBinAddr: 0x1000065C0, symSize: 0x30 }
  - { offsetInCU: 0x1163E, offset: 0x1163E, size: 0x8, addend: 0x0, symName: __ZNSt3__1neB8ue170006ERKNS_21__tree_const_iteratorINS_12__value_typeINS_12basic_stringIcNS_11char_traitsIcEENS_9allocatorIcEEEEN8nlohmann16json_abi_v3_11_310basic_jsonINS_3mapENS_6vectorES7_bxydS5_NS9_14adl_serializerENSC_IhNS5_IhEEEEvEEEEPNS_11__tree_nodeISH_PvEElEESO_, symObjAddr: 0x5960, symBinAddr: 0x1000066D0, symSize: 0x30 }
  - { offsetInCU: 0x1167B, offset: 0x1167B, size: 0x8, addend: 0x0, symName: __ZNSt3__1eqB8ue170006ERKNS_21__tree_const_iteratorINS_12__value_typeINS_12basic_stringIcNS_11char_traitsIcEENS_9allocatorIcEEEEN8nlohmann16json_abi_v3_11_310basic_jsonINS_3mapENS_6vectorES7_bxydS5_NS9_14adl_serializerENSC_IhNS5_IhEEEEvEEEEPNS_11__tree_nodeISH_PvEElEESO_, symObjAddr: 0x5990, symBinAddr: 0x100006700, symSize: 0x30 }
  - { offsetInCU: 0x116DC, offset: 0x116DC, size: 0x8, addend: 0x0, symName: __ZNSt3__14nextB8ue170006INS_21__tree_const_iteratorINS_12__value_typeINS_12basic_stringIcNS_11char_traitsIcEENS_9allocatorIcEEEEN8nlohmann16json_abi_v3_11_310basic_jsonINS_3mapENS_6vectorES8_bxydS6_NSA_14adl_serializerENSD_IhNS6_IhEEEEvEEEEPNS_11__tree_nodeISI_PvEElEEEENS_9enable_ifIXsr29__has_input_iterator_categoryIT_EE5valueESP_E4typeESP_NS_15iterator_traitsISP_E15difference_typeE, symObjAddr: 0x63B0, symBinAddr: 0x100007120, symSize: 0x30 }
  - { offsetInCU: 0x1171F, offset: 0x1171F, size: 0x8, addend: 0x0, symName: __ZNSt3__1ltB8ue170006IcNS_11char_traitsIcEENS_9allocatorIcEEEEbRKNS_12basic_stringIT_T0_T1_EESB_, symObjAddr: 0x64A0, symBinAddr: 0x100007210, symSize: 0x30 }
  - { offsetInCU: 0x11777, offset: 0x11777, size: 0x8, addend: 0x0, symName: __ZNSt3__112__to_addressB8ue170006IKcEEPT_S3_, symObjAddr: 0x67F0, symBinAddr: 0x100007560, symSize: 0x10 }
  - { offsetInCU: 0x117DF, offset: 0x117DF, size: 0x8, addend: 0x0, symName: __ZNSt3__17launderB8ue170006IKNS_4pairIKNS_12basic_stringIcNS_11char_traitsIcEENS_9allocatorIcEEEEN8nlohmann16json_abi_v3_11_310basic_jsonINS_3mapENS_6vectorES7_bxydS5_NSA_14adl_serializerENSD_IhNS5_IhEEEEvEEEEEEPT_SL_, symObjAddr: 0x6910, symBinAddr: 0x100007680, symSize: 0x20 }
  - { offsetInCU: 0x11816, offset: 0x11816, size: 0x8, addend: 0x0, symName: __ZNSt3__19__launderB8ue170006IKNS_4pairIKNS_12basic_stringIcNS_11char_traitsIcEENS_9allocatorIcEEEEN8nlohmann16json_abi_v3_11_310basic_jsonINS_3mapENS_6vectorES7_bxydS5_NSA_14adl_serializerENSD_IhNS5_IhEEEEvEEEEEEPT_SL_, symObjAddr: 0x6930, symBinAddr: 0x1000076A0, symSize: 0x10 }
  - { offsetInCU: 0x1184D, offset: 0x1184D, size: 0x8, addend: 0x0, symName: __ZNSt3__116__tree_prev_iterB8ue170006IPNS_16__tree_node_baseIPvEEPNS_15__tree_end_nodeIS4_EEEET_T0_, symObjAddr: 0x6940, symBinAddr: 0x1000076B0, symSize: 0x80 }
  - { offsetInCU: 0x11899, offset: 0x11899, size: 0x8, addend: 0x0, symName: __ZNSt3__110__tree_maxB8ue170006IPNS_16__tree_node_baseIPvEEEET_S5_, symObjAddr: 0x69C0, symBinAddr: 0x100007730, symSize: 0x30 }
  - { offsetInCU: 0x118CE, offset: 0x118CE, size: 0x8, addend: 0x0, symName: __ZNSt3__121__convert_to_integralB8ue170006El, symObjAddr: 0x6A40, symBinAddr: 0x1000077B0, symSize: 0x10 }
  - { offsetInCU: 0x118FA, offset: 0x118FA, size: 0x8, addend: 0x0, symName: __ZNSt3__19__advanceB8ue170006INS_21__tree_const_iteratorINS_12__value_typeINS_12basic_stringIcNS_11char_traitsIcEENS_9allocatorIcEEEEN8nlohmann16json_abi_v3_11_310basic_jsonINS_3mapENS_6vectorES8_bxydS6_NSA_14adl_serializerENSD_IhNS6_IhEEEEvEEEEPNS_11__tree_nodeISI_PvEElEEEEvRT_NS_15iterator_traitsISO_E15difference_typeENS_26bidirectional_iterator_tagE, symObjAddr: 0x6A50, symBinAddr: 0x1000077C0, symSize: 0x80 }
  - { offsetInCU: 0x11963, offset: 0x11963, size: 0x8, addend: 0x0, symName: __ZNSt3__127__tree_balance_after_insertB8ue170006IPNS_16__tree_node_baseIPvEEEEvT_S5_, symObjAddr: 0x6EF0, symBinAddr: 0x100007C60, symSize: 0x240 }
  - { offsetInCU: 0x119DF, offset: 0x119DF, size: 0x8, addend: 0x0, symName: __ZNSt3__118__tree_left_rotateB8ue170006IPNS_16__tree_node_baseIPvEEEEvT_, symObjAddr: 0x7130, symBinAddr: 0x100007EA0, symSize: 0xD0 }
  - { offsetInCU: 0x11A21, offset: 0x11A21, size: 0x8, addend: 0x0, symName: __ZNSt3__119__tree_right_rotateB8ue170006IPNS_16__tree_node_baseIPvEEEEvT_, symObjAddr: 0x7200, symBinAddr: 0x100007F70, symSize: 0xC0 }
  - { offsetInCU: 0x11E94, offset: 0x11E94, size: 0x8, addend: 0x0, symName: __ZNSt3__1neB8ue170006INS_6vectorIN8nlohmann16json_abi_v3_11_310basic_jsonINS_3mapES1_NS_12basic_stringIcNS_11char_traitsIcEENS_9allocatorIcEEEEbxydS9_NS3_14adl_serializerENS1_IhNS9_IhEEEEvEENS9_ISF_EEEEZNSF_6createISH_JRKSH_EEEPT_DpOT0_EUlPSH_E_EEbRKNS_10unique_ptrISL_T0_EEDn, symObjAddr: 0x78F0, symBinAddr: 0x100008660, symSize: 0x30 }
  - { offsetInCU: 0x11EE0, offset: 0x11EE0, size: 0x8, addend: 0x0, symName: __ZNSt3__122__make_exception_guardB8ue170006INS_6vectorIN8nlohmann16json_abi_v3_11_310basic_jsonINS_3mapES1_NS_12basic_stringIcNS_11char_traitsIcEENS_9allocatorIcEEEEbxydS9_NS3_14adl_serializerENS1_IhNS9_IhEEEEvEENS9_ISF_EEE16__destroy_vectorEEENS_28__exception_guard_exceptionsIT_EESK_, symObjAddr: 0x7D40, symBinAddr: 0x100008AB0, symSize: 0x40 }
  - { offsetInCU: 0x11F15, offset: 0x11F15, size: 0x8, addend: 0x0, symName: __ZNSt3__130__uninitialized_allocator_copyB8ue170006INS_9allocatorIN8nlohmann16json_abi_v3_11_310basic_jsonINS_3mapENS_6vectorENS_12basic_stringIcNS_11char_traitsIcEENS1_IcEEEEbxydS1_NS3_14adl_serializerENS6_IhNS1_IhEEEEvEEEEPSF_SH_SH_EET2_RT_T0_T1_SI_, symObjAddr: 0x7F40, symBinAddr: 0x100008CB0, symSize: 0x80 }
  - { offsetInCU: 0x11FB2, offset: 0x11FB2, size: 0x8, addend: 0x0, symName: __ZNSt3__114__unwrap_rangeB8ue170006IPN8nlohmann16json_abi_v3_11_310basic_jsonINS_3mapENS_6vectorENS_12basic_stringIcNS_11char_traitsIcEENS_9allocatorIcEEEEbxydS9_NS2_14adl_serializerENS5_IhNS9_IhEEEEvEESG_EENS_4pairIT0_SI_EET_SK_, symObjAddr: 0x7FC0, symBinAddr: 0x100008D30, symSize: 0x50 }
  - { offsetInCU: 0x11FFE, offset: 0x11FFE, size: 0x8, addend: 0x0, symName: __ZNSt3__135__uninitialized_allocator_copy_implB8ue170006INS_9allocatorIN8nlohmann16json_abi_v3_11_310basic_jsonINS_3mapENS_6vectorENS_12basic_stringIcNS_11char_traitsIcEENS1_IcEEEEbxydS1_NS3_14adl_serializerENS6_IhNS1_IhEEEEvEEEEPSF_SH_SH_EET2_RT_T0_T1_SI_, symObjAddr: 0x8010, symBinAddr: 0x100008D80, symSize: 0x100 }
  - { offsetInCU: 0x1209C, offset: 0x1209C, size: 0x8, addend: 0x0, symName: __ZNSt3__113__unwrap_iterB8ue170006IPN8nlohmann16json_abi_v3_11_310basic_jsonINS_3mapENS_6vectorENS_12basic_stringIcNS_11char_traitsIcEENS_9allocatorIcEEEEbxydS9_NS2_14adl_serializerENS5_IhNS9_IhEEEEvEENS_18__unwrap_iter_implISG_Lb1EEELi0EEEDTclsrT0_8__unwrapclsr3stdE7declvalIT_EEEESK_, symObjAddr: 0x8110, symBinAddr: 0x100008E80, symSize: 0x20 }
  - { offsetInCU: 0x120E0, offset: 0x120E0, size: 0x8, addend: 0x0, symName: __ZNSt3__113__rewrap_iterB8ue170006IPN8nlohmann16json_abi_v3_11_310basic_jsonINS_3mapENS_6vectorENS_12basic_stringIcNS_11char_traitsIcEENS_9allocatorIcEEEEbxydS9_NS2_14adl_serializerENS5_IhNS9_IhEEEEvEESG_NS_18__unwrap_iter_implISG_Lb1EEEEET_SJ_T0_, symObjAddr: 0x8130, symBinAddr: 0x100008EA0, symSize: 0x40 }
  - { offsetInCU: 0x12135, offset: 0x12135, size: 0x8, addend: 0x0, symName: __ZNSt3__122__make_exception_guardB8ue170006INS_29_AllocatorDestroyRangeReverseINS_9allocatorIN8nlohmann16json_abi_v3_11_310basic_jsonINS_3mapENS_6vectorENS_12basic_stringIcNS_11char_traitsIcEENS2_IcEEEEbxydS2_NS4_14adl_serializerENS7_IhNS2_IhEEEEvEEEEPSG_EEEENS_28__exception_guard_exceptionsIT_EESL_, symObjAddr: 0x8170, symBinAddr: 0x100008EE0, symSize: 0x60 }
  - { offsetInCU: 0x1216B, offset: 0x1216B, size: 0x8, addend: 0x0, symName: __ZNSt3__119__allocator_destroyB8ue170006INS_9allocatorIN8nlohmann16json_abi_v3_11_310basic_jsonINS_3mapENS_6vectorENS_12basic_stringIcNS_11char_traitsIcEENS1_IcEEEEbxydS1_NS3_14adl_serializerENS6_IhNS1_IhEEEEvEEEENS_16reverse_iteratorIPSF_EESJ_EEvRT_T0_T1_, symObjAddr: 0x8400, symBinAddr: 0x100009170, symSize: 0x70 }
  - { offsetInCU: 0x1256B, offset: 0x1256B, size: 0x8, addend: 0x0, symName: __ZNSt3__1neB8ue170006INS_12basic_stringIcNS_11char_traitsIcEENS_9allocatorIcEEEEZN8nlohmann16json_abi_v3_11_310basic_jsonINS_3mapENS_6vectorES6_bxydS4_NS8_14adl_serializerENSB_IhNS4_IhEEEEvE6createIS6_JRKS6_EEEPT_DpOT0_EUlPS6_E_EEbRKNS_10unique_ptrISJ_T0_EEDn, symObjAddr: 0x8880, symBinAddr: 0x1000095F0, symSize: 0x30 }
  - { offsetInCU: 0x129B6, offset: 0x129B6, size: 0x8, addend: 0x0, symName: __ZNSt3__1neB8ue170006IN8nlohmann16json_abi_v3_11_327byte_container_with_subtypeINS_6vectorIhNS_9allocatorIhEEEEEEZNS2_10basic_jsonINS_3mapES4_NS_12basic_stringIcNS_11char_traitsIcEENS5_IcEEEEbxydS5_NS2_14adl_serializerES7_vE6createIS8_JRKS8_EEEPT_DpOT0_EUlPS8_E_EEbRKNS_10unique_ptrISL_T0_EEDn, symObjAddr: 0x8EB0, symBinAddr: 0x100009C20, symSize: 0x30 }
  - { offsetInCU: 0x12A02, offset: 0x12A02, size: 0x8, addend: 0x0, symName: __ZNSt3__122__make_exception_guardB8ue170006INS_6vectorIhNS_9allocatorIhEEE16__destroy_vectorEEENS_28__exception_guard_exceptionsIT_EES7_, symObjAddr: 0x93B0, symBinAddr: 0x10000A120, symSize: 0x40 }
  - { offsetInCU: 0x12A37, offset: 0x12A37, size: 0x8, addend: 0x0, symName: __ZNSt3__119__allocate_at_leastB8ue170006INS_9allocatorIhEEEENS_19__allocation_resultINS_16allocator_traitsIT_E7pointerEEERS5_m, symObjAddr: 0x9630, symBinAddr: 0x10000A3A0, symSize: 0x40 }
  - { offsetInCU: 0x12A7A, offset: 0x12A7A, size: 0x8, addend: 0x0, symName: __ZNSt3__130__uninitialized_allocator_copyB8ue170006INS_9allocatorIhEEPhS3_S3_EET2_RT_T0_T1_S4_, symObjAddr: 0x9820, symBinAddr: 0x10000A590, symSize: 0x80 }
  - { offsetInCU: 0x12B17, offset: 0x12B17, size: 0x8, addend: 0x0, symName: __ZNSt3__114__unwrap_rangeB8ue170006IPhS1_EENS_4pairIT0_S3_EET_S5_, symObjAddr: 0x9900, symBinAddr: 0x10000A670, symSize: 0x50 }
  - { offsetInCU: 0x12B63, offset: 0x12B63, size: 0x8, addend: 0x0, symName: __ZNSt3__135__uninitialized_allocator_copy_implB8ue170006INS_9allocatorIhEEhhhLPv0EEEPT2_RT_PT0_S9_S5_, symObjAddr: 0x9950, symBinAddr: 0x10000A6C0, symSize: 0x30 }
  - { offsetInCU: 0x12BE5, offset: 0x12BE5, size: 0x8, addend: 0x0, symName: __ZNSt3__113__unwrap_iterB8ue170006IPhNS_18__unwrap_iter_implIS1_Lb1EEELi0EEEDTclsrT0_8__unwrapclsr3stdE7declvalIT_EEEES5_, symObjAddr: 0x9980, symBinAddr: 0x10000A6F0, symSize: 0x20 }
  - { offsetInCU: 0x12C29, offset: 0x12C29, size: 0x8, addend: 0x0, symName: __ZNSt3__113__rewrap_iterB8ue170006IPhS1_NS_18__unwrap_iter_implIS1_Lb1EEEEET_S4_T0_, symObjAddr: 0x99A0, symBinAddr: 0x10000A710, symSize: 0x40 }
  - { offsetInCU: 0x12C7E, offset: 0x12C7E, size: 0x8, addend: 0x0, symName: __ZNSt3__19make_pairB8ue170006IPhS1_EENS_4pairINS_18__unwrap_ref_decayIT_E4typeENS3_IT0_E4typeEEEOS4_OS7_, symObjAddr: 0x99E0, symBinAddr: 0x10000A750, symSize: 0x30 }
  - { offsetInCU: 0x12DD0, offset: 0x12DD0, size: 0x8, addend: 0x0, symName: __ZNSt3__14copyB8ue170006IPhS1_EET0_T_S3_S2_, symObjAddr: 0x9A70, symBinAddr: 0x10000A7E0, symSize: 0x40 }
  - { offsetInCU: 0x12E2A, offset: 0x12E2A, size: 0x8, addend: 0x0, symName: __ZNSt3__16__copyB8ue170006INS_17_ClassicAlgPolicyEPhS2_S2_EENS_4pairIT0_T2_EES4_T1_S5_, symObjAddr: 0x9AB0, symBinAddr: 0x10000A820, symSize: 0x40 }
  - { offsetInCU: 0x12E96, offset: 0x12E96, size: 0x8, addend: 0x0, symName: __ZNSt3__123__dispatch_copy_or_moveB8ue170006INS_17_ClassicAlgPolicyENS_11__copy_loopIS1_EENS_14__copy_trivialEPhS5_S5_EENS_4pairIT2_T4_EES7_T3_S8_, symObjAddr: 0x9AF0, symBinAddr: 0x10000A860, symSize: 0x40 }
  - { offsetInCU: 0x12F14, offset: 0x12F14, size: 0x8, addend: 0x0, symName: __ZNSt3__121__unwrap_and_dispatchB8ue170006INS_10__overloadINS_11__copy_loopINS_17_ClassicAlgPolicyEEENS_14__copy_trivialEEEPhS7_S7_Li0EEENS_4pairIT0_T2_EES9_T1_SA_, symObjAddr: 0x9B30, symBinAddr: 0x10000A8A0, symSize: 0xB0 }
  - { offsetInCU: 0x12FE9, offset: 0x12FE9, size: 0x8, addend: 0x0, symName: __ZNSt3__114__rewrap_rangeB8ue170006IPhS1_EET_S2_T0_, symObjAddr: 0x9C20, symBinAddr: 0x10000A990, symSize: 0x30 }
  - { offsetInCU: 0x13035, offset: 0x13035, size: 0x8, addend: 0x0, symName: __ZNSt3__119__copy_trivial_implB8ue170006IhhEENS_4pairIPT_PT0_EES3_S3_S5_, symObjAddr: 0x9C50, symBinAddr: 0x10000A9C0, symSize: 0x70 }
  - { offsetInCU: 0x1309D, offset: 0x1309D, size: 0x8, addend: 0x0, symName: __ZNSt3__119__constexpr_memmoveB8ue170006IhhLi0EEEPT_S2_PT0_NS_15__element_countE, symObjAddr: 0x9CC0, symBinAddr: 0x10000AA30, symSize: 0x50 }
  - { offsetInCU: 0x1310B, offset: 0x1310B, size: 0x8, addend: 0x0, symName: __ZNSt3__19make_pairB8ue170006IRPhS1_EENS_4pairINS_18__unwrap_ref_decayIT_E4typeENS4_IT0_E4typeEEEOS5_OS8_, symObjAddr: 0x9D10, symBinAddr: 0x10000AA80, symSize: 0x30 }
  - { offsetInCU: 0x138FA, offset: 0x138FA, size: 0x8, addend: 0x0, symName: __ZSt28__throw_bad_array_new_lengthB8ue170006v, symObjAddr: 0x1DD0, symBinAddr: 0x100002B40, symSize: 0x40 }
  - { offsetInCU: 0x14C2F, offset: 0x14C2F, size: 0x8, addend: 0x0, symName: __ZNSt3__16vectorIN8nlohmann16json_abi_v3_11_310basic_jsonINS_3mapES0_NS_12basic_stringIcNS_11char_traitsIcEENS_9allocatorIcEEEEbxydS8_NS2_14adl_serializerENS0_IhNS8_IhEEEEvEENS8_ISE_EEE26__swap_out_circular_bufferERNS_14__split_bufferISE_RSF_EE, symObjAddr: 0x17A0, symBinAddr: 0x100002510, symSize: 0x120 }
  - { offsetInCU: 0x17127, offset: 0x17127, size: 0x8, addend: 0x0, symName: _main, symObjAddr: 0x0, symBinAddr: 0x100000D70, symSize: 0x210 }
  - { offsetInCU: 0x17173, offset: 0x17173, size: 0x8, addend: 0x0, symName: __ZNSt3__112basic_stringIcNS_11char_traitsIcEENS_9allocatorIcEEEC1B8ue170006ILi0EEEPKc, symObjAddr: 0x210, symBinAddr: 0x100000F80, symSize: 0x30 }
  - { offsetInCU: 0x17218, offset: 0x17218, size: 0x8, addend: 0x0, symName: __ZN4bodyC1Ev, symObjAddr: 0x240, symBinAddr: 0x100000FB0, symSize: 0x20 }
  - { offsetInCU: 0x17244, offset: 0x17244, size: 0x8, addend: 0x0, symName: __ZNSt3__112basic_stringIcNS_11char_traitsIcEENS_9allocatorIcEEEaSB8ue170006EPKc, symObjAddr: 0x260, symBinAddr: 0x100000FD0, symSize: 0x30 }
  - { offsetInCU: 0x17279, offset: 0x17279, size: 0x8, addend: 0x0, symName: __ZN8nlohmann16json_abi_v3_11_310basic_jsonINSt3__13mapENS2_6vectorENS2_12basic_stringIcNS2_11char_traitsIcEENS2_9allocatorIcEEEEbxydS8_NS0_14adl_serializerENS4_IhNS8_IhEEEEvEC1ERKSE_, symObjAddr: 0x290, symBinAddr: 0x100001000, symSize: 0x30 }
  - { offsetInCU: 0x172B2, offset: 0x172B2, size: 0x8, addend: 0x0, symName: __ZN8nlohmann16json_abi_v3_11_310basic_jsonINSt3__13mapENS2_6vectorENS2_12basic_stringIcNS2_11char_traitsIcEENS2_9allocatorIcEEEEbxydS8_NS0_14adl_serializerENS4_IhNS8_IhEEEEvED1Ev, symObjAddr: 0x2C0, symBinAddr: 0x100001030, symSize: 0x20 }
  - { offsetInCU: 0x172E7, offset: 0x172E7, size: 0x8, addend: 0x0, symName: __ZN4bodyC1ERKS_, symObjAddr: 0x2E0, symBinAddr: 0x100001050, symSize: 0x30 }
  - { offsetInCU: 0x1731C, offset: 0x1731C, size: 0x8, addend: 0x0, symName: __ZN4bodyD1Ev, symObjAddr: 0x310, symBinAddr: 0x100001080, symSize: 0x20 }
  - { offsetInCU: 0x17348, offset: 0x17348, size: 0x8, addend: 0x0, symName: __ZN4bodyC2Ev, symObjAddr: 0x330, symBinAddr: 0x1000010A0, symSize: 0x30 }
  - { offsetInCU: 0x17374, offset: 0x17374, size: 0x8, addend: 0x0, symName: __ZNSt3__112basic_stringIcNS_11char_traitsIcEENS_9allocatorIcEEEC1B8ue170006Ev, symObjAddr: 0x360, symBinAddr: 0x1000010D0, symSize: 0x20 }
  - { offsetInCU: 0x1739E, offset: 0x1739E, size: 0x8, addend: 0x0, symName: __ZNSt3__112basic_stringIcNS_11char_traitsIcEENS_9allocatorIcEEEC2B8ue170006Ev, symObjAddr: 0x380, symBinAddr: 0x1000010F0, symSize: 0x50 }
  - { offsetInCU: 0x173CE, offset: 0x173CE, size: 0x8, addend: 0x0, symName: __ZNSt3__117__compressed_pairINS_12basic_stringIcNS_11char_traitsIcEENS_9allocatorIcEEE5__repES5_EC1B8ue170006INS_18__default_init_tagESA_EEOT_OT0_, symObjAddr: 0x3D0, symBinAddr: 0x100001140, symSize: 0x30 }
  - { offsetInCU: 0x17426, offset: 0x17426, size: 0x8, addend: 0x0, symName: __ZNSt3__112basic_stringIcNS_11char_traitsIcEENS_9allocatorIcEEE14__default_initB8ue170006Ev, symObjAddr: 0x410, symBinAddr: 0x100001180, symSize: 0x50 }
  - { offsetInCU: 0x1744C, offset: 0x1744C, size: 0x8, addend: 0x0, symName: __ZNSt3__117__compressed_pairINS_12basic_stringIcNS_11char_traitsIcEENS_9allocatorIcEEE5__repES5_EC2B8ue170006INS_18__default_init_tagESA_EEOT_OT0_, symObjAddr: 0x460, symBinAddr: 0x1000011D0, symSize: 0x30 }
  - { offsetInCU: 0x174A4, offset: 0x174A4, size: 0x8, addend: 0x0, symName: __ZNSt3__122__compressed_pair_elemINS_12basic_stringIcNS_11char_traitsIcEENS_9allocatorIcEEE5__repELi0ELb0EEC2B8ue170006ENS_18__default_init_tagE, symObjAddr: 0x490, symBinAddr: 0x100001200, symSize: 0x10 }
  - { offsetInCU: 0x174D9, offset: 0x174D9, size: 0x8, addend: 0x0, symName: __ZNSt3__122__compressed_pair_elemINS_9allocatorIcEELi1ELb1EEC2B8ue170006ENS_18__default_init_tagE, symObjAddr: 0x4A0, symBinAddr: 0x100001210, symSize: 0x20 }
  - { offsetInCU: 0x1750E, offset: 0x1750E, size: 0x8, addend: 0x0, symName: __ZNSt3__19allocatorIcEC2B8ue170006Ev, symObjAddr: 0x4C0, symBinAddr: 0x100001230, symSize: 0x20 }
  - { offsetInCU: 0x17538, offset: 0x17538, size: 0x8, addend: 0x0, symName: __ZNSt3__116__non_trivial_ifILb1ENS_9allocatorIcEEEC2B8ue170006Ev, symObjAddr: 0x4E0, symBinAddr: 0x100001250, symSize: 0x10 }
  - { offsetInCU: 0x17562, offset: 0x17562, size: 0x8, addend: 0x0, symName: __ZNSt3__117__compressed_pairINS_12basic_stringIcNS_11char_traitsIcEENS_9allocatorIcEEE5__repES5_E5firstB8ue170006Ev, symObjAddr: 0x4F0, symBinAddr: 0x100001260, symSize: 0x20 }
  - { offsetInCU: 0x17588, offset: 0x17588, size: 0x8, addend: 0x0, symName: __ZNSt3__122__compressed_pair_elemINS_12basic_stringIcNS_11char_traitsIcEENS_9allocatorIcEEE5__repELi0ELb0EE5__getB8ue170006Ev, symObjAddr: 0x510, symBinAddr: 0x100001280, symSize: 0x10 }
  - { offsetInCU: 0x175AE, offset: 0x175AE, size: 0x8, addend: 0x0, symName: __ZN4bodyC2ERKS_, symObjAddr: 0x520, symBinAddr: 0x100001290, symSize: 0x90 }
  - { offsetInCU: 0x175E3, offset: 0x175E3, size: 0x8, addend: 0x0, symName: __ZN4bodyD2Ev, symObjAddr: 0x5B0, symBinAddr: 0x100001320, symSize: 0x30 }
  - { offsetInCU: 0x1760F, offset: 0x1760F, size: 0x8, addend: 0x0, symName: __ZNSt3__112basic_stringIcNS_11char_traitsIcEENS_9allocatorIcEEEC2B8ue170006ILi0EEEPKc, symObjAddr: 0x5E0, symBinAddr: 0x100001350, symSize: 0x50 }
  - { offsetInCU: 0x1764E, offset: 0x1764E, size: 0x8, addend: 0x0, symName: __ZNSt3__111char_traitsIcE6lengthB8ue170006EPKc, symObjAddr: 0x630, symBinAddr: 0x1000013A0, symSize: 0x30 }
  - { offsetInCU: 0x17671, offset: 0x17671, size: 0x8, addend: 0x0, symName: __ZN8nlohmann16json_abi_v3_11_310basic_jsonINSt3__13mapENS2_6vectorENS2_12basic_stringIcNS2_11char_traitsIcEENS2_9allocatorIcEEEEbxydS8_NS0_14adl_serializerENS4_IhNS8_IhEEEEvED2Ev, symObjAddr: 0x680, symBinAddr: 0x1000013F0, symSize: 0x30 }
  - { offsetInCU: 0x1769B, offset: 0x1769B, size: 0x8, addend: 0x0, symName: __ZNK8nlohmann16json_abi_v3_11_310basic_jsonINSt3__13mapENS2_6vectorENS2_12basic_stringIcNS2_11char_traitsIcEENS2_9allocatorIcEEEEbxydS8_NS0_14adl_serializerENS4_IhNS8_IhEEEEvE16assert_invariantEb, symObjAddr: 0x6B0, symBinAddr: 0x100001420, symSize: 0x1A0 }
  - { offsetInCU: 0x176D0, offset: 0x176D0, size: 0x8, addend: 0x0, symName: __ZN8nlohmann16json_abi_v3_11_310basic_jsonINSt3__13mapENS2_6vectorENS2_12basic_stringIcNS2_11char_traitsIcEENS2_9allocatorIcEEEEbxydS8_NS0_14adl_serializerENS4_IhNS8_IhEEEEvE4dataD1Ev, symObjAddr: 0x850, symBinAddr: 0x1000015C0, symSize: 0x20 }
  - { offsetInCU: 0x176FA, offset: 0x176FA, size: 0x8, addend: 0x0, symName: __ZN8nlohmann16json_abi_v3_11_310basic_jsonINSt3__13mapENS2_6vectorENS2_12basic_stringIcNS2_11char_traitsIcEENS2_9allocatorIcEEEEbxydS8_NS0_14adl_serializerENS4_IhNS8_IhEEEEvE4dataD2Ev, symObjAddr: 0x870, symBinAddr: 0x1000015E0, symSize: 0x40 }
  - { offsetInCU: 0x17724, offset: 0x17724, size: 0x8, addend: 0x0, symName: __ZN8nlohmann16json_abi_v3_11_310basic_jsonINSt3__13mapENS2_6vectorENS2_12basic_stringIcNS2_11char_traitsIcEENS2_9allocatorIcEEEEbxydS8_NS0_14adl_serializerENS4_IhNS8_IhEEEEvE10json_value7destroyENS0_6detail7value_tE, symObjAddr: 0x8B0, symBinAddr: 0x100001620, symSize: 0x5C0 }
  - { offsetInCU: 0x178AA, offset: 0x178AA, size: 0x8, addend: 0x0, symName: __ZNSt3__16vectorIN8nlohmann16json_abi_v3_11_310basic_jsonINS_3mapES0_NS_12basic_stringIcNS_11char_traitsIcEENS_9allocatorIcEEEEbxydS8_NS2_14adl_serializerENS0_IhNS8_IhEEEEvEENS8_ISE_EEEC1B8ue170006Ev, symObjAddr: 0xE70, symBinAddr: 0x100001BE0, symSize: 0x20 }
  - { offsetInCU: 0x178D4, offset: 0x178D4, size: 0x8, addend: 0x0, symName: __ZNSt3__16vectorIN8nlohmann16json_abi_v3_11_310basic_jsonINS_3mapES0_NS_12basic_stringIcNS_11char_traitsIcEENS_9allocatorIcEEEEbxydS8_NS2_14adl_serializerENS0_IhNS8_IhEEEEvEENS8_ISE_EEE7reserveEm, symObjAddr: 0xE90, symBinAddr: 0x100001C00, symSize: 0xF0 }
  - { offsetInCU: 0x17930, offset: 0x17930, size: 0x8, addend: 0x0, symName: __ZNKSt3__16vectorIN8nlohmann16json_abi_v3_11_310basic_jsonINS_3mapES0_NS_12basic_stringIcNS_11char_traitsIcEENS_9allocatorIcEEEEbxydS8_NS2_14adl_serializerENS0_IhNS8_IhEEEEvEENS8_ISE_EEE4sizeB8ue170006Ev, symObjAddr: 0xF80, symBinAddr: 0x100001CF0, symSize: 0x20 }
  - { offsetInCU: 0x17956, offset: 0x17956, size: 0x8, addend: 0x0, symName: __ZNSt3__16vectorIN8nlohmann16json_abi_v3_11_310basic_jsonINS_3mapES0_NS_12basic_stringIcNS_11char_traitsIcEENS_9allocatorIcEEEEbxydS8_NS2_14adl_serializerENS0_IhNS8_IhEEEEvEENS8_ISE_EEE5beginB8ue170006Ev, symObjAddr: 0x1000, symBinAddr: 0x100001D70, symSize: 0x30 }
  - { offsetInCU: 0x1797E, offset: 0x1797E, size: 0x8, addend: 0x0, symName: __ZNSt3__16vectorIN8nlohmann16json_abi_v3_11_310basic_jsonINS_3mapES0_NS_12basic_stringIcNS_11char_traitsIcEENS_9allocatorIcEEEEbxydS8_NS2_14adl_serializerENS0_IhNS8_IhEEEEvEENS8_ISE_EEE3endB8ue170006Ev, symObjAddr: 0x1030, symBinAddr: 0x100001DA0, symSize: 0x30 }
  - { offsetInCU: 0x179A6, offset: 0x179A6, size: 0x8, addend: 0x0, symName: __ZNKSt3__13mapINS_12basic_stringIcNS_11char_traitsIcEENS_9allocatorIcEEEEN8nlohmann16json_abi_v3_11_310basic_jsonIS0_NS_6vectorES6_bxydS4_NS8_14adl_serializerENSA_IhNS4_IhEEEEvEENS_4lessIvEENS4_INS_4pairIKS6_SE_EEEEE4sizeB8ue170006Ev, symObjAddr: 0x1090, symBinAddr: 0x100001E00, symSize: 0x20 }
  - { offsetInCU: 0x179CC, offset: 0x179CC, size: 0x8, addend: 0x0, symName: __ZNSt3__13mapINS_12basic_stringIcNS_11char_traitsIcEENS_9allocatorIcEEEEN8nlohmann16json_abi_v3_11_310basic_jsonIS0_NS_6vectorES6_bxydS4_NS8_14adl_serializerENSA_IhNS4_IhEEEEvEENS_4lessIvEENS4_INS_4pairIKS6_SE_EEEEE5beginB8ue170006Ev, symObjAddr: 0x10B0, symBinAddr: 0x100001E20, symSize: 0x30 }
  - { offsetInCU: 0x179F2, offset: 0x179F2, size: 0x8, addend: 0x0, symName: __ZNSt3__13mapINS_12basic_stringIcNS_11char_traitsIcEENS_9allocatorIcEEEEN8nlohmann16json_abi_v3_11_310basic_jsonIS0_NS_6vectorES6_bxydS4_NS8_14adl_serializerENSA_IhNS4_IhEEEEvEENS_4lessIvEENS4_INS_4pairIKS6_SE_EEEEE3endB8ue170006Ev, symObjAddr: 0x10E0, symBinAddr: 0x100001E50, symSize: 0x30 }
  - { offsetInCU: 0x17A18, offset: 0x17A18, size: 0x8, addend: 0x0, symName: __ZNKSt3__114__map_iteratorINS_15__tree_iteratorINS_12__value_typeINS_12basic_stringIcNS_11char_traitsIcEENS_9allocatorIcEEEEN8nlohmann16json_abi_v3_11_310basic_jsonINS_3mapENS_6vectorES8_bxydS6_NSA_14adl_serializerENSD_IhNS6_IhEEEEvEEEEPNS_11__tree_nodeISI_PvEElEEEdeB8ue170006Ev, symObjAddr: 0x1140, symBinAddr: 0x100001EB0, symSize: 0x30 }
  - { offsetInCU: 0x17A3E, offset: 0x17A3E, size: 0x8, addend: 0x0, symName: __ZNSt3__16vectorIN8nlohmann16json_abi_v3_11_310basic_jsonINS_3mapES0_NS_12basic_stringIcNS_11char_traitsIcEENS_9allocatorIcEEEEbxydS8_NS2_14adl_serializerENS0_IhNS8_IhEEEEvEENS8_ISE_EEE9push_backB8ue170006EOSE_, symObjAddr: 0x1170, symBinAddr: 0x100001EE0, symSize: 0x60 }
  - { offsetInCU: 0x17A75, offset: 0x17A75, size: 0x8, addend: 0x0, symName: __ZNSt3__114__map_iteratorINS_15__tree_iteratorINS_12__value_typeINS_12basic_stringIcNS_11char_traitsIcEENS_9allocatorIcEEEEN8nlohmann16json_abi_v3_11_310basic_jsonINS_3mapENS_6vectorES8_bxydS6_NSA_14adl_serializerENSD_IhNS6_IhEEEEvEEEEPNS_11__tree_nodeISI_PvEElEEEppB8ue170006Ev, symObjAddr: 0x11D0, symBinAddr: 0x100001F40, symSize: 0x30 }
  - { offsetInCU: 0x17A9B, offset: 0x17A9B, size: 0x8, addend: 0x0, symName: __ZNKSt3__16vectorIN8nlohmann16json_abi_v3_11_310basic_jsonINS_3mapES0_NS_12basic_stringIcNS_11char_traitsIcEENS_9allocatorIcEEEEbxydS8_NS2_14adl_serializerENS0_IhNS8_IhEEEEvEENS8_ISE_EEE5emptyB8ue170006Ev, symObjAddr: 0x1200, symBinAddr: 0x100001F70, symSize: 0x20 }
  - { offsetInCU: 0x17AC1, offset: 0x17AC1, size: 0x8, addend: 0x0, symName: __ZNSt3__16vectorIN8nlohmann16json_abi_v3_11_310basic_jsonINS_3mapES0_NS_12basic_stringIcNS_11char_traitsIcEENS_9allocatorIcEEEEbxydS8_NS2_14adl_serializerENS0_IhNS8_IhEEEEvEENS8_ISE_EEE4backB8ue170006Ev, symObjAddr: 0x1220, symBinAddr: 0x100001F90, symSize: 0x20 }
  - { offsetInCU: 0x17AE7, offset: 0x17AE7, size: 0x8, addend: 0x0, symName: __ZN8nlohmann16json_abi_v3_11_310basic_jsonINSt3__13mapENS2_6vectorENS2_12basic_stringIcNS2_11char_traitsIcEENS2_9allocatorIcEEEEbxydS8_NS0_14adl_serializerENS4_IhNS8_IhEEEEvEC1EOSE_, symObjAddr: 0x1240, symBinAddr: 0x100001FB0, symSize: 0x30 }
  - { offsetInCU: 0x17B20, offset: 0x17B20, size: 0x8, addend: 0x0, symName: __ZNSt3__16vectorIN8nlohmann16json_abi_v3_11_310basic_jsonINS_3mapES0_NS_12basic_stringIcNS_11char_traitsIcEENS_9allocatorIcEEEEbxydS8_NS2_14adl_serializerENS0_IhNS8_IhEEEEvEENS8_ISE_EEE8pop_backEv, symObjAddr: 0x1270, symBinAddr: 0x100001FE0, symSize: 0x30 }
  - { offsetInCU: 0x17B48, offset: 0x17B48, size: 0x8, addend: 0x0, symName: __ZNK8nlohmann16json_abi_v3_11_310basic_jsonINSt3__13mapENS2_6vectorENS2_12basic_stringIcNS2_11char_traitsIcEENS2_9allocatorIcEEEEbxydS8_NS0_14adl_serializerENS4_IhNS8_IhEEEEvE8is_arrayEv, symObjAddr: 0x12A0, symBinAddr: 0x100002010, symSize: 0x20 }
  - { offsetInCU: 0x17B6E, offset: 0x17B6E, size: 0x8, addend: 0x0, symName: __ZNSt3__16vectorIN8nlohmann16json_abi_v3_11_310basic_jsonINS_3mapES0_NS_12basic_stringIcNS_11char_traitsIcEENS_9allocatorIcEEEEbxydS8_NS2_14adl_serializerENS0_IhNS8_IhEEEEvEENS8_ISE_EEE5clearB8ue170006Ev, symObjAddr: 0x12C0, symBinAddr: 0x100002030, symSize: 0x40 }
  - { offsetInCU: 0x17BA3, offset: 0x17BA3, size: 0x8, addend: 0x0, symName: __ZNK8nlohmann16json_abi_v3_11_310basic_jsonINSt3__13mapENS2_6vectorENS2_12basic_stringIcNS2_11char_traitsIcEENS2_9allocatorIcEEEEbxydS8_NS0_14adl_serializerENS4_IhNS8_IhEEEEvE9is_objectEv, symObjAddr: 0x1300, symBinAddr: 0x100002070, symSize: 0x20 }
  - { offsetInCU: 0x17BC9, offset: 0x17BC9, size: 0x8, addend: 0x0, symName: __ZNSt3__13mapINS_12basic_stringIcNS_11char_traitsIcEENS_9allocatorIcEEEEN8nlohmann16json_abi_v3_11_310basic_jsonIS0_NS_6vectorES6_bxydS4_NS8_14adl_serializerENSA_IhNS4_IhEEEEvEENS_4lessIvEENS4_INS_4pairIKS6_SE_EEEEE5clearB8ue170006Ev, symObjAddr: 0x1320, symBinAddr: 0x100002090, symSize: 0x20 }
  - { offsetInCU: 0x17BEF, offset: 0x17BEF, size: 0x8, addend: 0x0, symName: __ZNSt3__16vectorIN8nlohmann16json_abi_v3_11_310basic_jsonINS_3mapES0_NS_12basic_stringIcNS_11char_traitsIcEENS_9allocatorIcEEEEbxydS8_NS2_14adl_serializerENS0_IhNS8_IhEEEEvEENS8_ISE_EEED1B8ue170006Ev, symObjAddr: 0x1340, symBinAddr: 0x1000020B0, symSize: 0x20 }
  - { offsetInCU: 0x17C36, offset: 0x17C36, size: 0x8, addend: 0x0, symName: __ZNSt3__19allocatorINS_3mapINS_12basic_stringIcNS_11char_traitsIcEENS0_IcEEEEN8nlohmann16json_abi_v3_11_310basic_jsonIS1_NS_6vectorES6_bxydS0_NS8_14adl_serializerENSA_IhNS0_IhEEEEvEENS_4lessIvEENS0_INS_4pairIKS6_SE_EEEEEEEC1B8ue170006Ev, symObjAddr: 0x1360, symBinAddr: 0x1000020D0, symSize: 0x20 }
  - { offsetInCU: 0x17C66, offset: 0x17C66, size: 0x8, addend: 0x0, symName: __ZNSt3__116allocator_traitsINS_9allocatorINS_3mapINS_12basic_stringIcNS_11char_traitsIcEENS1_IcEEEEN8nlohmann16json_abi_v3_11_310basic_jsonIS2_NS_6vectorES7_bxydS1_NS9_14adl_serializerENSB_IhNS1_IhEEEEvEENS_4lessIvEENS1_INS_4pairIKS7_SF_EEEEEEEEE7destroyB8ue170006ISM_vEEvRSN_PT_, symObjAddr: 0x1380, symBinAddr: 0x1000020F0, symSize: 0x30 }
  - { offsetInCU: 0x17CA3, offset: 0x17CA3, size: 0x8, addend: 0x0, symName: __ZNSt3__116allocator_traitsINS_9allocatorINS_3mapINS_12basic_stringIcNS_11char_traitsIcEENS1_IcEEEEN8nlohmann16json_abi_v3_11_310basic_jsonIS2_NS_6vectorES7_bxydS1_NS9_14adl_serializerENSB_IhNS1_IhEEEEvEENS_4lessIvEENS1_INS_4pairIKS7_SF_EEEEEEEEE10deallocateB8ue170006ERSN_PSM_m, symObjAddr: 0x13B0, symBinAddr: 0x100002120, symSize: 0x30 }
  - { offsetInCU: 0x17D02, offset: 0x17D02, size: 0x8, addend: 0x0, symName: __ZNSt3__19allocatorINS_6vectorIN8nlohmann16json_abi_v3_11_310basic_jsonINS_3mapES1_NS_12basic_stringIcNS_11char_traitsIcEENS0_IcEEEEbxydS0_NS3_14adl_serializerENS1_IhNS0_IhEEEEvEENS0_ISE_EEEEEC1B8ue170006Ev, symObjAddr: 0x13E0, symBinAddr: 0x100002150, symSize: 0x20 }
  - { offsetInCU: 0x17D32, offset: 0x17D32, size: 0x8, addend: 0x0, symName: __ZNSt3__116allocator_traitsINS_9allocatorINS_6vectorIN8nlohmann16json_abi_v3_11_310basic_jsonINS_3mapES2_NS_12basic_stringIcNS_11char_traitsIcEENS1_IcEEEEbxydS1_NS4_14adl_serializerENS2_IhNS1_IhEEEEvEENS1_ISF_EEEEEEE7destroyB8ue170006ISH_vEEvRSI_PT_, symObjAddr: 0x1400, symBinAddr: 0x100002170, symSize: 0x30 }
  - { offsetInCU: 0x17D6F, offset: 0x17D6F, size: 0x8, addend: 0x0, symName: __ZNSt3__116allocator_traitsINS_9allocatorINS_6vectorIN8nlohmann16json_abi_v3_11_310basic_jsonINS_3mapES2_NS_12basic_stringIcNS_11char_traitsIcEENS1_IcEEEEbxydS1_NS4_14adl_serializerENS2_IhNS1_IhEEEEvEENS1_ISF_EEEEEEE10deallocateB8ue170006ERSI_PSH_m, symObjAddr: 0x1430, symBinAddr: 0x1000021A0, symSize: 0x30 }
  - { offsetInCU: 0x17DB1, offset: 0x17DB1, size: 0x8, addend: 0x0, symName: __ZNSt3__19allocatorINS_12basic_stringIcNS_11char_traitsIcEENS0_IcEEEEEC1B8ue170006Ev, symObjAddr: 0x1460, symBinAddr: 0x1000021D0, symSize: 0x20 }
  - { offsetInCU: 0x17DDB, offset: 0x17DDB, size: 0x8, addend: 0x0, symName: __ZNSt3__116allocator_traitsINS_9allocatorINS_12basic_stringIcNS_11char_traitsIcEENS1_IcEEEEEEE7destroyB8ue170006IS6_vEEvRS7_PT_, symObjAddr: 0x1480, symBinAddr: 0x1000021F0, symSize: 0x30 }
  - { offsetInCU: 0x17E18, offset: 0x17E18, size: 0x8, addend: 0x0, symName: __ZNSt3__116allocator_traitsINS_9allocatorINS_12basic_stringIcNS_11char_traitsIcEENS1_IcEEEEEEE10deallocateB8ue170006ERS7_PS6_m, symObjAddr: 0x14B0, symBinAddr: 0x100002220, symSize: 0x30 }
  - { offsetInCU: 0x17E7D, offset: 0x17E7D, size: 0x8, addend: 0x0, symName: __ZNSt3__19allocatorIN8nlohmann16json_abi_v3_11_327byte_container_with_subtypeINS_6vectorIhNS0_IhEEEEEEEC1B8ue170006Ev, symObjAddr: 0x14E0, symBinAddr: 0x100002250, symSize: 0x20 }
  - { offsetInCU: 0x17EAD, offset: 0x17EAD, size: 0x8, addend: 0x0, symName: __ZNSt3__116allocator_traitsINS_9allocatorIN8nlohmann16json_abi_v3_11_327byte_container_with_subtypeINS_6vectorIhNS1_IhEEEEEEEEE7destroyB8ue170006IS8_vEEvRS9_PT_, symObjAddr: 0x1500, symBinAddr: 0x100002270, symSize: 0x30 }
  - { offsetInCU: 0x17EEA, offset: 0x17EEA, size: 0x8, addend: 0x0, symName: __ZNSt3__116allocator_traitsINS_9allocatorIN8nlohmann16json_abi_v3_11_327byte_container_with_subtypeINS_6vectorIhNS1_IhEEEEEEEEE10deallocateB8ue170006ERS9_PS8_m, symObjAddr: 0x1530, symBinAddr: 0x1000022A0, symSize: 0x30 }
  - { offsetInCU: 0x17F2C, offset: 0x17F2C, size: 0x8, addend: 0x0, symName: __ZNSt3__16vectorIN8nlohmann16json_abi_v3_11_310basic_jsonINS_3mapES0_NS_12basic_stringIcNS_11char_traitsIcEENS_9allocatorIcEEEEbxydS8_NS2_14adl_serializerENS0_IhNS8_IhEEEEvEENS8_ISE_EEEC2B8ue170006Ev, symObjAddr: 0x1560, symBinAddr: 0x1000022D0, symSize: 0x50 }
  - { offsetInCU: 0x17F5C, offset: 0x17F5C, size: 0x8, addend: 0x0, symName: __ZNSt3__117__compressed_pairIPN8nlohmann16json_abi_v3_11_310basic_jsonINS_3mapENS_6vectorENS_12basic_stringIcNS_11char_traitsIcEENS_9allocatorIcEEEEbxydS9_NS2_14adl_serializerENS5_IhNS9_IhEEEEvEENS9_ISF_EEEC1B8ue170006IDnNS_18__default_init_tagEEEOT_OT0_, symObjAddr: 0x15B0, symBinAddr: 0x100002320, symSize: 0x30 }
  - { offsetInCU: 0x17FB4, offset: 0x17FB4, size: 0x8, addend: 0x0, symName: __ZNSt3__117__compressed_pairIPN8nlohmann16json_abi_v3_11_310basic_jsonINS_3mapENS_6vectorENS_12basic_stringIcNS_11char_traitsIcEENS_9allocatorIcEEEEbxydS9_NS2_14adl_serializerENS5_IhNS9_IhEEEEvEENS9_ISF_EEEC2B8ue170006IDnNS_18__default_init_tagEEEOT_OT0_, symObjAddr: 0x15E0, symBinAddr: 0x100002350, symSize: 0x40 }
  - { offsetInCU: 0x1800C, offset: 0x1800C, size: 0x8, addend: 0x0, symName: __ZNSt3__122__compressed_pair_elemIPN8nlohmann16json_abi_v3_11_310basic_jsonINS_3mapENS_6vectorENS_12basic_stringIcNS_11char_traitsIcEENS_9allocatorIcEEEEbxydS9_NS2_14adl_serializerENS5_IhNS9_IhEEEEvEELi0ELb0EEC2B8ue170006IDnvEEOT_, symObjAddr: 0x1620, symBinAddr: 0x100002390, symSize: 0x20 }
  - { offsetInCU: 0x1804E, offset: 0x1804E, size: 0x8, addend: 0x0, symName: __ZNSt3__122__compressed_pair_elemINS_9allocatorIN8nlohmann16json_abi_v3_11_310basic_jsonINS_3mapENS_6vectorENS_12basic_stringIcNS_11char_traitsIcEENS1_IcEEEEbxydS1_NS3_14adl_serializerENS6_IhNS1_IhEEEEvEEEELi1ELb1EEC2B8ue170006ENS_18__default_init_tagE, symObjAddr: 0x1640, symBinAddr: 0x1000023B0, symSize: 0x20 }
  - { offsetInCU: 0x18083, offset: 0x18083, size: 0x8, addend: 0x0, symName: __ZNSt3__19allocatorIN8nlohmann16json_abi_v3_11_310basic_jsonINS_3mapENS_6vectorENS_12basic_stringIcNS_11char_traitsIcEENS0_IcEEEEbxydS0_NS2_14adl_serializerENS5_IhNS0_IhEEEEvEEEC2B8ue170006Ev, symObjAddr: 0x1660, symBinAddr: 0x1000023D0, symSize: 0x20 }
  - { offsetInCU: 0x180AD, offset: 0x180AD, size: 0x8, addend: 0x0, symName: __ZNSt3__116__non_trivial_ifILb1ENS_9allocatorIN8nlohmann16json_abi_v3_11_310basic_jsonINS_3mapENS_6vectorENS_12basic_stringIcNS_11char_traitsIcEENS1_IcEEEEbxydS1_NS3_14adl_serializerENS6_IhNS1_IhEEEEvEEEEEC2B8ue170006Ev, symObjAddr: 0x1680, symBinAddr: 0x1000023F0, symSize: 0x10 }
  - { offsetInCU: 0x180D7, offset: 0x180D7, size: 0x8, addend: 0x0, symName: __ZNKSt3__16vectorIN8nlohmann16json_abi_v3_11_310basic_jsonINS_3mapES0_NS_12basic_stringIcNS_11char_traitsIcEENS_9allocatorIcEEEEbxydS8_NS2_14adl_serializerENS0_IhNS8_IhEEEEvEENS8_ISE_EEE8capacityB8ue170006Ev, symObjAddr: 0x1690, symBinAddr: 0x100002400, symSize: 0x30 }
  - { offsetInCU: 0x180FD, offset: 0x180FD, size: 0x8, addend: 0x0, symName: __ZNKSt3__16vectorIN8nlohmann16json_abi_v3_11_310basic_jsonINS_3mapES0_NS_12basic_stringIcNS_11char_traitsIcEENS_9allocatorIcEEEEbxydS8_NS2_14adl_serializerENS0_IhNS8_IhEEEEvEENS8_ISE_EEE8max_sizeEv, symObjAddr: 0x16C0, symBinAddr: 0x100002430, symSize: 0x60 }
  - { offsetInCU: 0x18125, offset: 0x18125, size: 0x8, addend: 0x0, symName: __ZNKSt3__16vectorIN8nlohmann16json_abi_v3_11_310basic_jsonINS_3mapES0_NS_12basic_stringIcNS_11char_traitsIcEENS_9allocatorIcEEEEbxydS8_NS2_14adl_serializerENS0_IhNS8_IhEEEEvEENS8_ISE_EEE20__throw_length_errorB8ue170006Ev, symObjAddr: 0x1720, symBinAddr: 0x100002490, symSize: 0x20 }
  - { offsetInCU: 0x1814B, offset: 0x1814B, size: 0x8, addend: 0x0, symName: __ZNSt3__16vectorIN8nlohmann16json_abi_v3_11_310basic_jsonINS_3mapES0_NS_12basic_stringIcNS_11char_traitsIcEENS_9allocatorIcEEEEbxydS8_NS2_14adl_serializerENS0_IhNS8_IhEEEEvEENS8_ISE_EEE7__allocB8ue170006Ev, symObjAddr: 0x1740, symBinAddr: 0x1000024B0, symSize: 0x20 }
  - { offsetInCU: 0x18171, offset: 0x18171, size: 0x8, addend: 0x0, symName: __ZNSt3__114__split_bufferIN8nlohmann16json_abi_v3_11_310basic_jsonINS_3mapENS_6vectorENS_12basic_stringIcNS_11char_traitsIcEENS_9allocatorIcEEEEbxydS9_NS2_14adl_serializerENS5_IhNS9_IhEEEEvEERNS9_ISF_EEEC1EmmSH_, symObjAddr: 0x1760, symBinAddr: 0x1000024D0, symSize: 0x40 }
  - { offsetInCU: 0x181C7, offset: 0x181C7, size: 0x8, addend: 0x0, symName: __ZNSt3__114__split_bufferIN8nlohmann16json_abi_v3_11_310basic_jsonINS_3mapENS_6vectorENS_12basic_stringIcNS_11char_traitsIcEENS_9allocatorIcEEEEbxydS9_NS2_14adl_serializerENS5_IhNS9_IhEEEEvEERNS9_ISF_EEED1Ev, symObjAddr: 0x18C0, symBinAddr: 0x100002630, symSize: 0x20 }
  - { offsetInCU: 0x181F3, offset: 0x181F3, size: 0x8, addend: 0x0, symName: __ZNKSt3__16vectorIN8nlohmann16json_abi_v3_11_310basic_jsonINS_3mapES0_NS_12basic_stringIcNS_11char_traitsIcEENS_9allocatorIcEEEEbxydS8_NS2_14adl_serializerENS0_IhNS8_IhEEEEvEENS8_ISE_EEE9__end_capB8ue170006Ev, symObjAddr: 0x18E0, symBinAddr: 0x100002650, symSize: 0x20 }
  - { offsetInCU: 0x18219, offset: 0x18219, size: 0x8, addend: 0x0, symName: __ZNKSt3__117__compressed_pairIPN8nlohmann16json_abi_v3_11_310basic_jsonINS_3mapENS_6vectorENS_12basic_stringIcNS_11char_traitsIcEENS_9allocatorIcEEEEbxydS9_NS2_14adl_serializerENS5_IhNS9_IhEEEEvEENS9_ISF_EEE5firstB8ue170006Ev, symObjAddr: 0x1900, symBinAddr: 0x100002670, symSize: 0x20 }
  - { offsetInCU: 0x1823F, offset: 0x1823F, size: 0x8, addend: 0x0, symName: __ZNKSt3__122__compressed_pair_elemIPN8nlohmann16json_abi_v3_11_310basic_jsonINS_3mapENS_6vectorENS_12basic_stringIcNS_11char_traitsIcEENS_9allocatorIcEEEEbxydS9_NS2_14adl_serializerENS5_IhNS9_IhEEEEvEELi0ELb0EE5__getB8ue170006Ev, symObjAddr: 0x1920, symBinAddr: 0x100002690, symSize: 0x10 }
  - { offsetInCU: 0x18270, offset: 0x18270, size: 0x8, addend: 0x0, symName: __ZNSt3__116allocator_traitsINS_9allocatorIN8nlohmann16json_abi_v3_11_310basic_jsonINS_3mapENS_6vectorENS_12basic_stringIcNS_11char_traitsIcEENS1_IcEEEEbxydS1_NS3_14adl_serializerENS6_IhNS1_IhEEEEvEEEEE8max_sizeB8ue170006ISG_vEEmRKSG_, symObjAddr: 0x1960, symBinAddr: 0x1000026D0, symSize: 0x20 }
  - { offsetInCU: 0x1829E, offset: 0x1829E, size: 0x8, addend: 0x0, symName: __ZNKSt3__16vectorIN8nlohmann16json_abi_v3_11_310basic_jsonINS_3mapES0_NS_12basic_stringIcNS_11char_traitsIcEENS_9allocatorIcEEEEbxydS8_NS2_14adl_serializerENS0_IhNS8_IhEEEEvEENS8_ISE_EEE7__allocB8ue170006Ev, symObjAddr: 0x1980, symBinAddr: 0x1000026F0, symSize: 0x20 }
  - { offsetInCU: 0x182C4, offset: 0x182C4, size: 0x8, addend: 0x0, symName: __ZNSt3__114numeric_limitsIlE3maxB8ue170006Ev, symObjAddr: 0x19A0, symBinAddr: 0x100002710, symSize: 0x10 }
  - { offsetInCU: 0x182E3, offset: 0x182E3, size: 0x8, addend: 0x0, symName: __ZNKSt3__16__lessIvvEclB8ue170006ImmEEbRKT_RKT0_, symObjAddr: 0x1A00, symBinAddr: 0x100002770, symSize: 0x30 }
  - { offsetInCU: 0x18337, offset: 0x18337, size: 0x8, addend: 0x0, symName: __ZNKSt3__19allocatorIN8nlohmann16json_abi_v3_11_310basic_jsonINS_3mapENS_6vectorENS_12basic_stringIcNS_11char_traitsIcEENS0_IcEEEEbxydS0_NS2_14adl_serializerENS5_IhNS0_IhEEEEvEEE8max_sizeB8ue170006Ev, symObjAddr: 0x1A30, symBinAddr: 0x1000027A0, symSize: 0x20 }
  - { offsetInCU: 0x1835D, offset: 0x1835D, size: 0x8, addend: 0x0, symName: __ZNKSt3__117__compressed_pairIPN8nlohmann16json_abi_v3_11_310basic_jsonINS_3mapENS_6vectorENS_12basic_stringIcNS_11char_traitsIcEENS_9allocatorIcEEEEbxydS9_NS2_14adl_serializerENS5_IhNS9_IhEEEEvEENS9_ISF_EEE6secondB8ue170006Ev, symObjAddr: 0x1A50, symBinAddr: 0x1000027C0, symSize: 0x20 }
  - { offsetInCU: 0x18383, offset: 0x18383, size: 0x8, addend: 0x0, symName: __ZNKSt3__122__compressed_pair_elemINS_9allocatorIN8nlohmann16json_abi_v3_11_310basic_jsonINS_3mapENS_6vectorENS_12basic_stringIcNS_11char_traitsIcEENS1_IcEEEEbxydS1_NS3_14adl_serializerENS6_IhNS1_IhEEEEvEEEELi1ELb1EE5__getB8ue170006Ev, symObjAddr: 0x1A70, symBinAddr: 0x1000027E0, symSize: 0x10 }
  - { offsetInCU: 0x183A9, offset: 0x183A9, size: 0x8, addend: 0x0, symName: __ZNSt3__123__libcpp_numeric_limitsIlLb1EE3maxB8ue170006Ev, symObjAddr: 0x1A80, symBinAddr: 0x1000027F0, symSize: 0x10 }
  - { offsetInCU: 0x183BD, offset: 0x183BD, size: 0x8, addend: 0x0, symName: __ZNSt12length_errorC1B8ue170006EPKc, symObjAddr: 0x1B00, symBinAddr: 0x100002870, symSize: 0x30 }
  - { offsetInCU: 0x183F5, offset: 0x183F5, size: 0x8, addend: 0x0, symName: __ZNSt12length_errorC2B8ue170006EPKc, symObjAddr: 0x1B30, symBinAddr: 0x1000028A0, symSize: 0x40 }
  - { offsetInCU: 0x1842D, offset: 0x1842D, size: 0x8, addend: 0x0, symName: __ZNSt3__117__compressed_pairIPN8nlohmann16json_abi_v3_11_310basic_jsonINS_3mapENS_6vectorENS_12basic_stringIcNS_11char_traitsIcEENS_9allocatorIcEEEEbxydS9_NS2_14adl_serializerENS5_IhNS9_IhEEEEvEENS9_ISF_EEE6secondB8ue170006Ev, symObjAddr: 0x1B70, symBinAddr: 0x1000028E0, symSize: 0x20 }
  - { offsetInCU: 0x18453, offset: 0x18453, size: 0x8, addend: 0x0, symName: __ZNSt3__122__compressed_pair_elemINS_9allocatorIN8nlohmann16json_abi_v3_11_310basic_jsonINS_3mapENS_6vectorENS_12basic_stringIcNS_11char_traitsIcEENS1_IcEEEEbxydS1_NS3_14adl_serializerENS6_IhNS1_IhEEEEvEEEELi1ELb1EE5__getB8ue170006Ev, symObjAddr: 0x1B90, symBinAddr: 0x100002900, symSize: 0x10 }
  - { offsetInCU: 0x18479, offset: 0x18479, size: 0x8, addend: 0x0, symName: __ZNSt3__114__split_bufferIN8nlohmann16json_abi_v3_11_310basic_jsonINS_3mapENS_6vectorENS_12basic_stringIcNS_11char_traitsIcEENS_9allocatorIcEEEEbxydS9_NS2_14adl_serializerENS5_IhNS9_IhEEEEvEERNS9_ISF_EEEC2EmmSH_, symObjAddr: 0x1BA0, symBinAddr: 0x100002910, symSize: 0xD0 }
  - { offsetInCU: 0x184EC, offset: 0x184EC, size: 0x8, addend: 0x0, symName: __ZNSt3__117__compressed_pairIPN8nlohmann16json_abi_v3_11_310basic_jsonINS_3mapENS_6vectorENS_12basic_stringIcNS_11char_traitsIcEENS_9allocatorIcEEEEbxydS9_NS2_14adl_serializerENS5_IhNS9_IhEEEEvEERNS9_ISF_EEEC1B8ue170006IDnSI_EEOT_OT0_, symObjAddr: 0x1C70, symBinAddr: 0x1000029E0, symSize: 0x30 }
  - { offsetInCU: 0x18544, offset: 0x18544, size: 0x8, addend: 0x0, symName: __ZNSt3__114__split_bufferIN8nlohmann16json_abi_v3_11_310basic_jsonINS_3mapENS_6vectorENS_12basic_stringIcNS_11char_traitsIcEENS_9allocatorIcEEEEbxydS9_NS2_14adl_serializerENS5_IhNS9_IhEEEEvEERNS9_ISF_EEE7__allocB8ue170006Ev, symObjAddr: 0x1CE0, symBinAddr: 0x100002A50, symSize: 0x20 }
  - { offsetInCU: 0x1856A, offset: 0x1856A, size: 0x8, addend: 0x0, symName: __ZNSt3__114__split_bufferIN8nlohmann16json_abi_v3_11_310basic_jsonINS_3mapENS_6vectorENS_12basic_stringIcNS_11char_traitsIcEENS_9allocatorIcEEEEbxydS9_NS2_14adl_serializerENS5_IhNS9_IhEEEEvEERNS9_ISF_EEE9__end_capB8ue170006Ev, symObjAddr: 0x1D00, symBinAddr: 0x100002A70, symSize: 0x20 }
  - { offsetInCU: 0x18590, offset: 0x18590, size: 0x8, addend: 0x0, symName: __ZNSt3__117__compressed_pairIPN8nlohmann16json_abi_v3_11_310basic_jsonINS_3mapENS_6vectorENS_12basic_stringIcNS_11char_traitsIcEENS_9allocatorIcEEEEbxydS9_NS2_14adl_serializerENS5_IhNS9_IhEEEEvEERNS9_ISF_EEEC2B8ue170006IDnSI_EEOT_OT0_, symObjAddr: 0x1D20, symBinAddr: 0x100002A90, symSize: 0x40 }
  - { offsetInCU: 0x185E8, offset: 0x185E8, size: 0x8, addend: 0x0, symName: __ZNSt3__122__compressed_pair_elemIRNS_9allocatorIN8nlohmann16json_abi_v3_11_310basic_jsonINS_3mapENS_6vectorENS_12basic_stringIcNS_11char_traitsIcEENS1_IcEEEEbxydS1_NS3_14adl_serializerENS6_IhNS1_IhEEEEvEEEELi1ELb0EEC2B8ue170006ISH_vEEOT_, symObjAddr: 0x1D60, symBinAddr: 0x100002AD0, symSize: 0x20 }
  - { offsetInCU: 0x1862A, offset: 0x1862A, size: 0x8, addend: 0x0, symName: __ZNSt3__19allocatorIN8nlohmann16json_abi_v3_11_310basic_jsonINS_3mapENS_6vectorENS_12basic_stringIcNS_11char_traitsIcEENS0_IcEEEEbxydS0_NS2_14adl_serializerENS5_IhNS0_IhEEEEvEEE8allocateB8ue170006Em, symObjAddr: 0x1D80, symBinAddr: 0x100002AF0, symSize: 0x50 }
  - { offsetInCU: 0x1865E, offset: 0x1865E, size: 0x8, addend: 0x0, symName: __ZNSt3__117__compressed_pairIPN8nlohmann16json_abi_v3_11_310basic_jsonINS_3mapENS_6vectorENS_12basic_stringIcNS_11char_traitsIcEENS_9allocatorIcEEEEbxydS9_NS2_14adl_serializerENS5_IhNS9_IhEEEEvEERNS9_ISF_EEE6secondB8ue170006Ev, symObjAddr: 0x1EE0, symBinAddr: 0x100002C50, symSize: 0x20 }
  - { offsetInCU: 0x18684, offset: 0x18684, size: 0x8, addend: 0x0, symName: __ZNSt3__122__compressed_pair_elemIRNS_9allocatorIN8nlohmann16json_abi_v3_11_310basic_jsonINS_3mapENS_6vectorENS_12basic_stringIcNS_11char_traitsIcEENS1_IcEEEEbxydS1_NS3_14adl_serializerENS6_IhNS1_IhEEEEvEEEELi1ELb0EE5__getB8ue170006Ev, symObjAddr: 0x1F00, symBinAddr: 0x100002C70, symSize: 0x20 }
  - { offsetInCU: 0x186AA, offset: 0x186AA, size: 0x8, addend: 0x0, symName: __ZNSt3__117__compressed_pairIPN8nlohmann16json_abi_v3_11_310basic_jsonINS_3mapENS_6vectorENS_12basic_stringIcNS_11char_traitsIcEENS_9allocatorIcEEEEbxydS9_NS2_14adl_serializerENS5_IhNS9_IhEEEEvEERNS9_ISF_EEE5firstB8ue170006Ev, symObjAddr: 0x1F20, symBinAddr: 0x100002C90, symSize: 0x20 }
  - { offsetInCU: 0x186D0, offset: 0x186D0, size: 0x8, addend: 0x0, symName: __ZNSt3__122__compressed_pair_elemIPN8nlohmann16json_abi_v3_11_310basic_jsonINS_3mapENS_6vectorENS_12basic_stringIcNS_11char_traitsIcEENS_9allocatorIcEEEEbxydS9_NS2_14adl_serializerENS5_IhNS9_IhEEEEvEELi0ELb0EE5__getB8ue170006Ev, symObjAddr: 0x1F40, symBinAddr: 0x100002CB0, symSize: 0x10 }
  - { offsetInCU: 0x186F6, offset: 0x186F6, size: 0x8, addend: 0x0, symName: __ZNKSt3__16vectorIN8nlohmann16json_abi_v3_11_310basic_jsonINS_3mapES0_NS_12basic_stringIcNS_11char_traitsIcEENS_9allocatorIcEEEEbxydS8_NS2_14adl_serializerENS0_IhNS8_IhEEEEvEENS8_ISE_EEE17__annotate_deleteB8ue170006Ev, symObjAddr: 0x1F50, symBinAddr: 0x100002CC0, symSize: 0xB0 }
  - { offsetInCU: 0x1871C, offset: 0x1871C, size: 0x8, addend: 0x0, symName: __ZNSt3__116reverse_iteratorIPN8nlohmann16json_abi_v3_11_310basic_jsonINS_3mapENS_6vectorENS_12basic_stringIcNS_11char_traitsIcEENS_9allocatorIcEEEEbxydS9_NS2_14adl_serializerENS5_IhNS9_IhEEEEvEEEC1B8ue170006ESG_, symObjAddr: 0x2180, symBinAddr: 0x100002EF0, symSize: 0x30 }
  - { offsetInCU: 0x18754, offset: 0x18754, size: 0x8, addend: 0x0, symName: __ZNKSt3__116reverse_iteratorIPN8nlohmann16json_abi_v3_11_310basic_jsonINS_3mapENS_6vectorENS_12basic_stringIcNS_11char_traitsIcEENS_9allocatorIcEEEEbxydS9_NS2_14adl_serializerENS5_IhNS9_IhEEEEvEEE4baseB8ue170006Ev, symObjAddr: 0x21B0, symBinAddr: 0x100002F20, symSize: 0x20 }
  - { offsetInCU: 0x1877A, offset: 0x1877A, size: 0x8, addend: 0x0, symName: __ZNSt3__16vectorIN8nlohmann16json_abi_v3_11_310basic_jsonINS_3mapES0_NS_12basic_stringIcNS_11char_traitsIcEENS_9allocatorIcEEEEbxydS8_NS2_14adl_serializerENS0_IhNS8_IhEEEEvEENS8_ISE_EEE9__end_capB8ue170006Ev, symObjAddr: 0x2210, symBinAddr: 0x100002F80, symSize: 0x20 }
  - { offsetInCU: 0x187A0, offset: 0x187A0, size: 0x8, addend: 0x0, symName: __ZNKSt3__16vectorIN8nlohmann16json_abi_v3_11_310basic_jsonINS_3mapES0_NS_12basic_stringIcNS_11char_traitsIcEENS_9allocatorIcEEEEbxydS8_NS2_14adl_serializerENS0_IhNS8_IhEEEEvEENS8_ISE_EEE14__annotate_newB8ue170006Em, symObjAddr: 0x2230, symBinAddr: 0x100002FA0, symSize: 0xB0 }
  - { offsetInCU: 0x187D5, offset: 0x187D5, size: 0x8, addend: 0x0, symName: __ZNKSt3__16vectorIN8nlohmann16json_abi_v3_11_310basic_jsonINS_3mapES0_NS_12basic_stringIcNS_11char_traitsIcEENS_9allocatorIcEEEEbxydS8_NS2_14adl_serializerENS0_IhNS8_IhEEEEvEENS8_ISE_EEE31__annotate_contiguous_containerB8ue170006EPKvSI_SI_SI_, symObjAddr: 0x22E0, symBinAddr: 0x100003050, symSize: 0x20 }
  - { offsetInCU: 0x1882B, offset: 0x1882B, size: 0x8, addend: 0x0, symName: __ZNKSt3__16vectorIN8nlohmann16json_abi_v3_11_310basic_jsonINS_3mapES0_NS_12basic_stringIcNS_11char_traitsIcEENS_9allocatorIcEEEEbxydS8_NS2_14adl_serializerENS0_IhNS8_IhEEEEvEENS8_ISE_EEE4dataB8ue170006Ev, symObjAddr: 0x2300, symBinAddr: 0x100003070, symSize: 0x20 }
  - { offsetInCU: 0x18851, offset: 0x18851, size: 0x8, addend: 0x0, symName: __ZNSt3__129_AllocatorDestroyRangeReverseINS_9allocatorIN8nlohmann16json_abi_v3_11_310basic_jsonINS_3mapENS_6vectorENS_12basic_stringIcNS_11char_traitsIcEENS1_IcEEEEbxydS1_NS3_14adl_serializerENS6_IhNS1_IhEEEEvEEEENS_16reverse_iteratorIPSF_EEEC1B8ue170006ERSG_RSJ_SM_, symObjAddr: 0x2390, symBinAddr: 0x100003100, symSize: 0x40 }
  - { offsetInCU: 0x188A8, offset: 0x188A8, size: 0x8, addend: 0x0, symName: __ZNSt3__116allocator_traitsINS_9allocatorIN8nlohmann16json_abi_v3_11_310basic_jsonINS_3mapENS_6vectorENS_12basic_stringIcNS_11char_traitsIcEENS1_IcEEEEbxydS1_NS3_14adl_serializerENS6_IhNS1_IhEEEEvEEEEE9constructB8ue170006ISF_JSF_EvEEvRSG_PT_DpOT0_, symObjAddr: 0x2410, symBinAddr: 0x100003180, symSize: 0x30 }
  - { offsetInCU: 0x188FF, offset: 0x188FF, size: 0x8, addend: 0x0, symName: __ZNKSt3__116reverse_iteratorIPN8nlohmann16json_abi_v3_11_310basic_jsonINS_3mapENS_6vectorENS_12basic_stringIcNS_11char_traitsIcEENS_9allocatorIcEEEEbxydS9_NS2_14adl_serializerENS5_IhNS9_IhEEEEvEEEdeB8ue170006Ev, symObjAddr: 0x2460, symBinAddr: 0x1000031D0, symSize: 0x30 }
  - { offsetInCU: 0x18933, offset: 0x18933, size: 0x8, addend: 0x0, symName: __ZNSt3__116reverse_iteratorIPN8nlohmann16json_abi_v3_11_310basic_jsonINS_3mapENS_6vectorENS_12basic_stringIcNS_11char_traitsIcEENS_9allocatorIcEEEEbxydS9_NS2_14adl_serializerENS5_IhNS9_IhEEEEvEEEppB8ue170006Ev, symObjAddr: 0x2490, symBinAddr: 0x100003200, symSize: 0x20 }
  - { offsetInCU: 0x18959, offset: 0x18959, size: 0x8, addend: 0x0, symName: __ZNSt3__128__exception_guard_exceptionsINS_29_AllocatorDestroyRangeReverseINS_9allocatorIN8nlohmann16json_abi_v3_11_310basic_jsonINS_3mapENS_6vectorENS_12basic_stringIcNS_11char_traitsIcEENS2_IcEEEEbxydS2_NS4_14adl_serializerENS7_IhNS2_IhEEEEvEEEENS_16reverse_iteratorIPSG_EEEEE10__completeB8ue170006Ev, symObjAddr: 0x24B0, symBinAddr: 0x100003220, symSize: 0x20 }
  - { offsetInCU: 0x1897F, offset: 0x1897F, size: 0x8, addend: 0x0, symName: __ZNSt3__128__exception_guard_exceptionsINS_29_AllocatorDestroyRangeReverseINS_9allocatorIN8nlohmann16json_abi_v3_11_310basic_jsonINS_3mapENS_6vectorENS_12basic_stringIcNS_11char_traitsIcEENS2_IcEEEEbxydS2_NS4_14adl_serializerENS7_IhNS2_IhEEEEvEEEENS_16reverse_iteratorIPSG_EEEEED1B8ue170006Ev, symObjAddr: 0x24D0, symBinAddr: 0x100003240, symSize: 0x20 }
  - { offsetInCU: 0x189A9, offset: 0x189A9, size: 0x8, addend: 0x0, symName: __ZNSt3__128__exception_guard_exceptionsINS_29_AllocatorDestroyRangeReverseINS_9allocatorIN8nlohmann16json_abi_v3_11_310basic_jsonINS_3mapENS_6vectorENS_12basic_stringIcNS_11char_traitsIcEENS2_IcEEEEbxydS2_NS4_14adl_serializerENS7_IhNS2_IhEEEEvEEEENS_16reverse_iteratorIPSG_EEEEEC1B8ue170006ESL_, symObjAddr: 0x24F0, symBinAddr: 0x100003260, symSize: 0x40 }
  - { offsetInCU: 0x189E1, offset: 0x189E1, size: 0x8, addend: 0x0, symName: __ZNSt3__128__exception_guard_exceptionsINS_29_AllocatorDestroyRangeReverseINS_9allocatorIN8nlohmann16json_abi_v3_11_310basic_jsonINS_3mapENS_6vectorENS_12basic_stringIcNS_11char_traitsIcEENS2_IcEEEEbxydS2_NS4_14adl_serializerENS7_IhNS2_IhEEEEvEEEENS_16reverse_iteratorIPSG_EEEEEC2B8ue170006ESL_, symObjAddr: 0x2530, symBinAddr: 0x1000032A0, symSize: 0x30 }
  - { offsetInCU: 0x18A19, offset: 0x18A19, size: 0x8, addend: 0x0, symName: __ZNSt3__129_AllocatorDestroyRangeReverseINS_9allocatorIN8nlohmann16json_abi_v3_11_310basic_jsonINS_3mapENS_6vectorENS_12basic_stringIcNS_11char_traitsIcEENS1_IcEEEEbxydS1_NS3_14adl_serializerENS6_IhNS1_IhEEEEvEEEENS_16reverse_iteratorIPSF_EEEC2B8ue170006ERSG_RSJ_SM_, symObjAddr: 0x2560, symBinAddr: 0x1000032D0, symSize: 0x40 }
  - { offsetInCU: 0x18A70, offset: 0x18A70, size: 0x8, addend: 0x0, symName: __ZNSt3__19allocatorIN8nlohmann16json_abi_v3_11_310basic_jsonINS_3mapENS_6vectorENS_12basic_stringIcNS_11char_traitsIcEENS0_IcEEEEbxydS0_NS2_14adl_serializerENS5_IhNS0_IhEEEEvEEE9constructB8ue170006ISE_JSE_EEEvPT_DpOT0_, symObjAddr: 0x25A0, symBinAddr: 0x100003310, symSize: 0x30 }
  - { offsetInCU: 0x18ACC, offset: 0x18ACC, size: 0x8, addend: 0x0, symName: __ZNSt3__119__to_address_helperINS_16reverse_iteratorIPN8nlohmann16json_abi_v3_11_310basic_jsonINS_3mapENS_6vectorENS_12basic_stringIcNS_11char_traitsIcEENS_9allocatorIcEEEEbxydSA_NS3_14adl_serializerENS6_IhNSA_IhEEEEvEEEEvE6__callB8ue170006ERKSI_, symObjAddr: 0x25D0, symBinAddr: 0x100003340, symSize: 0x40 }
  - { offsetInCU: 0x18AEF, offset: 0x18AEF, size: 0x8, addend: 0x0, symName: __ZNKSt3__116reverse_iteratorIPN8nlohmann16json_abi_v3_11_310basic_jsonINS_3mapENS_6vectorENS_12basic_stringIcNS_11char_traitsIcEENS_9allocatorIcEEEEbxydS9_NS2_14adl_serializerENS5_IhNS9_IhEEEEvEEEptB8ue170006Ev, symObjAddr: 0x2610, symBinAddr: 0x100003380, symSize: 0x20 }
  - { offsetInCU: 0x18B15, offset: 0x18B15, size: 0x8, addend: 0x0, symName: __ZNSt3__128__exception_guard_exceptionsINS_29_AllocatorDestroyRangeReverseINS_9allocatorIN8nlohmann16json_abi_v3_11_310basic_jsonINS_3mapENS_6vectorENS_12basic_stringIcNS_11char_traitsIcEENS2_IcEEEEbxydS2_NS4_14adl_serializerENS7_IhNS2_IhEEEEvEEEENS_16reverse_iteratorIPSG_EEEEED2B8ue170006Ev, symObjAddr: 0x2630, symBinAddr: 0x1000033A0, symSize: 0x40 }
  - { offsetInCU: 0x18B3F, offset: 0x18B3F, size: 0x8, addend: 0x0, symName: __ZNKSt3__129_AllocatorDestroyRangeReverseINS_9allocatorIN8nlohmann16json_abi_v3_11_310basic_jsonINS_3mapENS_6vectorENS_12basic_stringIcNS_11char_traitsIcEENS1_IcEEEEbxydS1_NS3_14adl_serializerENS6_IhNS1_IhEEEEvEEEENS_16reverse_iteratorIPSF_EEEclB8ue170006Ev, symObjAddr: 0x2670, symBinAddr: 0x1000033E0, symSize: 0xF0 }
  - { offsetInCU: 0x18B66, offset: 0x18B66, size: 0x8, addend: 0x0, symName: __ZNSt3__116reverse_iteratorINS0_IPN8nlohmann16json_abi_v3_11_310basic_jsonINS_3mapENS_6vectorENS_12basic_stringIcNS_11char_traitsIcEENS_9allocatorIcEEEEbxydS9_NS2_14adl_serializerENS5_IhNS9_IhEEEEvEEEEEC1B8ue170006ESH_, symObjAddr: 0x27D0, symBinAddr: 0x100003540, symSize: 0x30 }
  - { offsetInCU: 0x18B9E, offset: 0x18B9E, size: 0x8, addend: 0x0, symName: __ZNSt3__116allocator_traitsINS_9allocatorIN8nlohmann16json_abi_v3_11_310basic_jsonINS_3mapENS_6vectorENS_12basic_stringIcNS_11char_traitsIcEENS1_IcEEEEbxydS1_NS3_14adl_serializerENS6_IhNS1_IhEEEEvEEEEE7destroyB8ue170006ISF_vEEvRSG_PT_, symObjAddr: 0x2850, symBinAddr: 0x1000035C0, symSize: 0x30 }
  - { offsetInCU: 0x18BDB, offset: 0x18BDB, size: 0x8, addend: 0x0, symName: __ZNSt3__116reverse_iteratorINS0_IPN8nlohmann16json_abi_v3_11_310basic_jsonINS_3mapENS_6vectorENS_12basic_stringIcNS_11char_traitsIcEENS_9allocatorIcEEEEbxydS9_NS2_14adl_serializerENS5_IhNS9_IhEEEEvEEEEEppB8ue170006Ev, symObjAddr: 0x28A0, symBinAddr: 0x100003610, symSize: 0x30 }
  - { offsetInCU: 0x18C01, offset: 0x18C01, size: 0x8, addend: 0x0, symName: __ZNKSt3__116reverse_iteratorINS0_IPN8nlohmann16json_abi_v3_11_310basic_jsonINS_3mapENS_6vectorENS_12basic_stringIcNS_11char_traitsIcEENS_9allocatorIcEEEEbxydS9_NS2_14adl_serializerENS5_IhNS9_IhEEEEvEEEEE4baseB8ue170006Ev, symObjAddr: 0x28D0, symBinAddr: 0x100003640, symSize: 0x20 }
  - { offsetInCU: 0x18C27, offset: 0x18C27, size: 0x8, addend: 0x0, symName: __ZNSt3__19allocatorIN8nlohmann16json_abi_v3_11_310basic_jsonINS_3mapENS_6vectorENS_12basic_stringIcNS_11char_traitsIcEENS0_IcEEEEbxydS0_NS2_14adl_serializerENS5_IhNS0_IhEEEEvEEE7destroyB8ue170006EPSE_, symObjAddr: 0x28F0, symBinAddr: 0x100003660, symSize: 0x20 }
  - { offsetInCU: 0x18C61, offset: 0x18C61, size: 0x8, addend: 0x0, symName: __ZNSt3__119__to_address_helperINS_16reverse_iteratorINS1_IPN8nlohmann16json_abi_v3_11_310basic_jsonINS_3mapENS_6vectorENS_12basic_stringIcNS_11char_traitsIcEENS_9allocatorIcEEEEbxydSA_NS3_14adl_serializerENS6_IhNSA_IhEEEEvEEEEEEvE6__callB8ue170006ERKSJ_, symObjAddr: 0x2910, symBinAddr: 0x100003680, symSize: 0x40 }
  - { offsetInCU: 0x18C84, offset: 0x18C84, size: 0x8, addend: 0x0, symName: __ZNKSt3__116reverse_iteratorINS0_IPN8nlohmann16json_abi_v3_11_310basic_jsonINS_3mapENS_6vectorENS_12basic_stringIcNS_11char_traitsIcEENS_9allocatorIcEEEEbxydS9_NS2_14adl_serializerENS5_IhNS9_IhEEEEvEEEEEptB8ue170006Ev, symObjAddr: 0x2950, symBinAddr: 0x1000036C0, symSize: 0x20 }
  - { offsetInCU: 0x18CAA, offset: 0x18CAA, size: 0x8, addend: 0x0, symName: __ZNKSt3__116reverse_iteratorINS0_IPN8nlohmann16json_abi_v3_11_310basic_jsonINS_3mapENS_6vectorENS_12basic_stringIcNS_11char_traitsIcEENS_9allocatorIcEEEEbxydS9_NS2_14adl_serializerENS5_IhNS9_IhEEEEvEEEEEdeB8ue170006Ev, symObjAddr: 0x2970, symBinAddr: 0x1000036E0, symSize: 0x40 }
  - { offsetInCU: 0x18CDE, offset: 0x18CDE, size: 0x8, addend: 0x0, symName: __ZNSt3__116reverse_iteratorIPN8nlohmann16json_abi_v3_11_310basic_jsonINS_3mapENS_6vectorENS_12basic_stringIcNS_11char_traitsIcEENS_9allocatorIcEEEEbxydS9_NS2_14adl_serializerENS5_IhNS9_IhEEEEvEEEmmB8ue170006Ev, symObjAddr: 0x29B0, symBinAddr: 0x100003720, symSize: 0x20 }
  - { offsetInCU: 0x18D04, offset: 0x18D04, size: 0x8, addend: 0x0, symName: __ZNSt3__116reverse_iteratorINS0_IPN8nlohmann16json_abi_v3_11_310basic_jsonINS_3mapENS_6vectorENS_12basic_stringIcNS_11char_traitsIcEENS_9allocatorIcEEEEbxydS9_NS2_14adl_serializerENS5_IhNS9_IhEEEEvEEEEEC2B8ue170006ESH_, symObjAddr: 0x29D0, symBinAddr: 0x100003740, symSize: 0x40 }
  - { offsetInCU: 0x18D3C, offset: 0x18D3C, size: 0x8, addend: 0x0, symName: __ZNSt3__116reverse_iteratorIPN8nlohmann16json_abi_v3_11_310basic_jsonINS_3mapENS_6vectorENS_12basic_stringIcNS_11char_traitsIcEENS_9allocatorIcEEEEbxydS9_NS2_14adl_serializerENS5_IhNS9_IhEEEEvEEEC2B8ue170006ESG_, symObjAddr: 0x2A10, symBinAddr: 0x100003780, symSize: 0x30 }
  - { offsetInCU: 0x18D74, offset: 0x18D74, size: 0x8, addend: 0x0, symName: __ZNSt3__117__compressed_pairIPN8nlohmann16json_abi_v3_11_310basic_jsonINS_3mapENS_6vectorENS_12basic_stringIcNS_11char_traitsIcEENS_9allocatorIcEEEEbxydS9_NS2_14adl_serializerENS5_IhNS9_IhEEEEvEENS9_ISF_EEE5firstB8ue170006Ev, symObjAddr: 0x2A40, symBinAddr: 0x1000037B0, symSize: 0x20 }
  - { offsetInCU: 0x18D9A, offset: 0x18D9A, size: 0x8, addend: 0x0, symName: __ZNSt3__114__split_bufferIN8nlohmann16json_abi_v3_11_310basic_jsonINS_3mapENS_6vectorENS_12basic_stringIcNS_11char_traitsIcEENS_9allocatorIcEEEEbxydS9_NS2_14adl_serializerENS5_IhNS9_IhEEEEvEERNS9_ISF_EEED2Ev, symObjAddr: 0x2A60, symBinAddr: 0x1000037D0, symSize: 0x70 }
  - { offsetInCU: 0x18DC6, offset: 0x18DC6, size: 0x8, addend: 0x0, symName: __ZNSt3__114__split_bufferIN8nlohmann16json_abi_v3_11_310basic_jsonINS_3mapENS_6vectorENS_12basic_stringIcNS_11char_traitsIcEENS_9allocatorIcEEEEbxydS9_NS2_14adl_serializerENS5_IhNS9_IhEEEEvEERNS9_ISF_EEE5clearB8ue170006Ev, symObjAddr: 0x2AD0, symBinAddr: 0x100003840, symSize: 0x20 }
  - { offsetInCU: 0x18DEC, offset: 0x18DEC, size: 0x8, addend: 0x0, symName: __ZNSt3__116allocator_traitsINS_9allocatorIN8nlohmann16json_abi_v3_11_310basic_jsonINS_3mapENS_6vectorENS_12basic_stringIcNS_11char_traitsIcEENS1_IcEEEEbxydS1_NS3_14adl_serializerENS6_IhNS1_IhEEEEvEEEEE10deallocateB8ue170006ERSG_PSF_m, symObjAddr: 0x2AF0, symBinAddr: 0x100003860, symSize: 0x30 }
  - { offsetInCU: 0x18E2E, offset: 0x18E2E, size: 0x8, addend: 0x0, symName: __ZNKSt3__114__split_bufferIN8nlohmann16json_abi_v3_11_310basic_jsonINS_3mapENS_6vectorENS_12basic_stringIcNS_11char_traitsIcEENS_9allocatorIcEEEEbxydS9_NS2_14adl_serializerENS5_IhNS9_IhEEEEvEERNS9_ISF_EEE8capacityB8ue170006Ev, symObjAddr: 0x2B20, symBinAddr: 0x100003890, symSize: 0x30 }
  - { offsetInCU: 0x18E54, offset: 0x18E54, size: 0x8, addend: 0x0, symName: __ZNSt3__114__split_bufferIN8nlohmann16json_abi_v3_11_310basic_jsonINS_3mapENS_6vectorENS_12basic_stringIcNS_11char_traitsIcEENS_9allocatorIcEEEEbxydS9_NS2_14adl_serializerENS5_IhNS9_IhEEEEvEERNS9_ISF_EEE17__destruct_at_endB8ue170006EPSF_, symObjAddr: 0x2B50, symBinAddr: 0x1000038C0, symSize: 0x30 }
  - { offsetInCU: 0x18E88, offset: 0x18E88, size: 0x8, addend: 0x0, symName: __ZNSt3__114__split_bufferIN8nlohmann16json_abi_v3_11_310basic_jsonINS_3mapENS_6vectorENS_12basic_stringIcNS_11char_traitsIcEENS_9allocatorIcEEEEbxydS9_NS2_14adl_serializerENS5_IhNS9_IhEEEEvEERNS9_ISF_EEE17__destruct_at_endB8ue170006EPSF_NS_17integral_constantIbLb0EEE, symObjAddr: 0x2B80, symBinAddr: 0x1000038F0, symSize: 0x80 }
  - { offsetInCU: 0x18EC9, offset: 0x18EC9, size: 0x8, addend: 0x0, symName: __ZNSt3__19allocatorIN8nlohmann16json_abi_v3_11_310basic_jsonINS_3mapENS_6vectorENS_12basic_stringIcNS_11char_traitsIcEENS0_IcEEEEbxydS0_NS2_14adl_serializerENS5_IhNS0_IhEEEEvEEE10deallocateB8ue170006EPSE_m, symObjAddr: 0x2C00, symBinAddr: 0x100003970, symSize: 0x40 }
  - { offsetInCU: 0x18F0B, offset: 0x18F0B, size: 0x8, addend: 0x0, symName: __ZNKSt3__114__split_bufferIN8nlohmann16json_abi_v3_11_310basic_jsonINS_3mapENS_6vectorENS_12basic_stringIcNS_11char_traitsIcEENS_9allocatorIcEEEEbxydS9_NS2_14adl_serializerENS5_IhNS9_IhEEEEvEERNS9_ISF_EEE9__end_capB8ue170006Ev, symObjAddr: 0x2D40, symBinAddr: 0x100003AB0, symSize: 0x20 }
  - { offsetInCU: 0x18F31, offset: 0x18F31, size: 0x8, addend: 0x0, symName: __ZNKSt3__117__compressed_pairIPN8nlohmann16json_abi_v3_11_310basic_jsonINS_3mapENS_6vectorENS_12basic_stringIcNS_11char_traitsIcEENS_9allocatorIcEEEEbxydS9_NS2_14adl_serializerENS5_IhNS9_IhEEEEvEERNS9_ISF_EEE5firstB8ue170006Ev, symObjAddr: 0x2D60, symBinAddr: 0x100003AD0, symSize: 0x20 }
  - { offsetInCU: 0x18F7F, offset: 0x18F7F, size: 0x8, addend: 0x0, symName: __ZNKSt3__111__move_loopINS_17_ClassicAlgPolicyEEclB8ue170006IPN8nlohmann16json_abi_v3_11_310basic_jsonINS_3mapENS_6vectorENS_12basic_stringIcNS_11char_traitsIcEENS_9allocatorIcEEEEbxydSC_NS5_14adl_serializerENS8_IhNSC_IhEEEEvEESJ_NS_20back_insert_iteratorINS8_ISI_NSC_ISI_EEEEEEEENS_4pairIT_T1_EESP_T0_SQ_, symObjAddr: 0x2FA0, symBinAddr: 0x100003D10, symSize: 0x90 }
  - { offsetInCU: 0x1900D, offset: 0x1900D, size: 0x8, addend: 0x0, symName: __ZNSt3__14pairIPN8nlohmann16json_abi_v3_11_310basic_jsonINS_3mapENS_6vectorENS_12basic_stringIcNS_11char_traitsIcEENS_9allocatorIcEEEEbxydS9_NS2_14adl_serializerENS5_IhNS9_IhEEEEvEESG_EC1B8ue170006ISG_SG_LPv0EEEOT_OT0_, symObjAddr: 0x3180, symBinAddr: 0x100003EF0, symSize: 0x30 }
  - { offsetInCU: 0x1906B, offset: 0x1906B, size: 0x8, addend: 0x0, symName: __ZNSt3__14pairIPN8nlohmann16json_abi_v3_11_310basic_jsonINS_3mapENS_6vectorENS_12basic_stringIcNS_11char_traitsIcEENS_9allocatorIcEEEEbxydS9_NS2_14adl_serializerENS5_IhNS9_IhEEEEvEESG_EC2B8ue170006ISG_SG_LPv0EEEOT_OT0_, symObjAddr: 0x31B0, symBinAddr: 0x100003F20, symSize: 0x30 }
  - { offsetInCU: 0x190C9, offset: 0x190C9, size: 0x8, addend: 0x0, symName: __ZNSt3__118__unwrap_iter_implINS_11__wrap_iterIPN8nlohmann16json_abi_v3_11_310basic_jsonINS_3mapENS_6vectorENS_12basic_stringIcNS_11char_traitsIcEENS_9allocatorIcEEEEbxydSA_NS3_14adl_serializerENS6_IhNSA_IhEEEEvEEEELb1EE8__unwrapB8ue170006ESI_, symObjAddr: 0x31E0, symBinAddr: 0x100003F50, symSize: 0x20 }
  - { offsetInCU: 0x190F8, offset: 0x190F8, size: 0x8, addend: 0x0, symName: __ZNSt3__119__to_address_helperINS_11__wrap_iterIPN8nlohmann16json_abi_v3_11_310basic_jsonINS_3mapENS_6vectorENS_12basic_stringIcNS_11char_traitsIcEENS_9allocatorIcEEEEbxydSA_NS3_14adl_serializerENS6_IhNSA_IhEEEEvEEEEvE6__callB8ue170006ERKSI_, symObjAddr: 0x3220, symBinAddr: 0x100003F90, symSize: 0x30 }
  - { offsetInCU: 0x1911B, offset: 0x1911B, size: 0x8, addend: 0x0, symName: __ZNSt3__114pointer_traitsINS_11__wrap_iterIPN8nlohmann16json_abi_v3_11_310basic_jsonINS_3mapENS_6vectorENS_12basic_stringIcNS_11char_traitsIcEENS_9allocatorIcEEEEbxydSA_NS3_14adl_serializerENS6_IhNSA_IhEEEEvEEEEE10to_addressB8ue170006ESI_, symObjAddr: 0x3250, symBinAddr: 0x100003FC0, symSize: 0x30 }
  - { offsetInCU: 0x1913E, offset: 0x1913E, size: 0x8, addend: 0x0, symName: __ZNKSt3__111__wrap_iterIPN8nlohmann16json_abi_v3_11_310basic_jsonINS_3mapENS_6vectorENS_12basic_stringIcNS_11char_traitsIcEENS_9allocatorIcEEEEbxydS9_NS2_14adl_serializerENS5_IhNS9_IhEEEEvEEE4baseB8ue170006Ev, symObjAddr: 0x3280, symBinAddr: 0x100003FF0, symSize: 0x20 }
  - { offsetInCU: 0x19164, offset: 0x19164, size: 0x8, addend: 0x0, symName: __ZNSt3__18_IterOpsINS_17_ClassicAlgPolicyEE11__iter_moveB8ue170006IRPN8nlohmann16json_abi_v3_11_310basic_jsonINS_3mapENS_6vectorENS_12basic_stringIcNS_11char_traitsIcEENS_9allocatorIcEEEEbxydSC_NS5_14adl_serializerENS8_IhNSC_IhEEEEvEEEENS_9enable_ifIXsr12is_referenceIDTdeclsr3stdE7declvalIRT_EEEEE5valueEDTclsr3stdE4movedeclsr3stdE7declvalISN_EEEEE4typeEOSM_, symObjAddr: 0x32A0, symBinAddr: 0x100004010, symSize: 0x20 }
  - { offsetInCU: 0x19190, offset: 0x19190, size: 0x8, addend: 0x0, symName: __ZNSt3__120back_insert_iteratorINS_6vectorIN8nlohmann16json_abi_v3_11_310basic_jsonINS_3mapES1_NS_12basic_stringIcNS_11char_traitsIcEENS_9allocatorIcEEEEbxydS9_NS3_14adl_serializerENS1_IhNS9_IhEEEEvEENS9_ISF_EEEEEdeB8ue170006Ev, symObjAddr: 0x32C0, symBinAddr: 0x100004030, symSize: 0x10 }
  - { offsetInCU: 0x191B6, offset: 0x191B6, size: 0x8, addend: 0x0, symName: __ZNSt3__120back_insert_iteratorINS_6vectorIN8nlohmann16json_abi_v3_11_310basic_jsonINS_3mapES1_NS_12basic_stringIcNS_11char_traitsIcEENS_9allocatorIcEEEEbxydS9_NS3_14adl_serializerENS1_IhNS9_IhEEEEvEENS9_ISF_EEEEEaSB8ue170006EOSF_, symObjAddr: 0x32D0, symBinAddr: 0x100004040, symSize: 0x30 }
  - { offsetInCU: 0x191EA, offset: 0x191EA, size: 0x8, addend: 0x0, symName: __ZNSt3__120back_insert_iteratorINS_6vectorIN8nlohmann16json_abi_v3_11_310basic_jsonINS_3mapES1_NS_12basic_stringIcNS_11char_traitsIcEENS_9allocatorIcEEEEbxydS9_NS3_14adl_serializerENS1_IhNS9_IhEEEEvEENS9_ISF_EEEEEppB8ue170006Ev, symObjAddr: 0x3300, symBinAddr: 0x100004070, symSize: 0x10 }
  - { offsetInCU: 0x19210, offset: 0x19210, size: 0x8, addend: 0x0, symName: __ZNSt3__18_IterOpsINS_17_ClassicAlgPolicyEE25__validate_iter_referenceB8ue170006IRPN8nlohmann16json_abi_v3_11_310basic_jsonINS_3mapENS_6vectorENS_12basic_stringIcNS_11char_traitsIcEENS_9allocatorIcEEEEbxydSC_NS5_14adl_serializerENS8_IhNSC_IhEEEEvEEEEvv, symObjAddr: 0x3340, symBinAddr: 0x1000040B0, symSize: 0x10 }
  - { offsetInCU: 0x19234, offset: 0x19234, size: 0x8, addend: 0x0, symName: __ZNSt3__14pairIPN8nlohmann16json_abi_v3_11_310basic_jsonINS_3mapENS_6vectorENS_12basic_stringIcNS_11char_traitsIcEENS_9allocatorIcEEEEbxydS9_NS2_14adl_serializerENS5_IhNS9_IhEEEEvEENS_20back_insert_iteratorINS5_ISF_NS9_ISF_EEEEEEEC1B8ue170006ISG_SK_LPv0EEEOT_OT0_, symObjAddr: 0x3350, symBinAddr: 0x1000040C0, symSize: 0x30 }
  - { offsetInCU: 0x19292, offset: 0x19292, size: 0x8, addend: 0x0, symName: __ZNSt3__14pairIPN8nlohmann16json_abi_v3_11_310basic_jsonINS_3mapENS_6vectorENS_12basic_stringIcNS_11char_traitsIcEENS_9allocatorIcEEEEbxydS9_NS2_14adl_serializerENS5_IhNS9_IhEEEEvEENS_20back_insert_iteratorINS5_ISF_NS9_ISF_EEEEEEEC2B8ue170006ISG_SK_LPv0EEEOT_OT0_, symObjAddr: 0x3380, symBinAddr: 0x1000040F0, symSize: 0x30 }
  - { offsetInCU: 0x192F0, offset: 0x192F0, size: 0x8, addend: 0x0, symName: __ZNSt3__118__unwrap_iter_implINS_20back_insert_iteratorINS_6vectorIN8nlohmann16json_abi_v3_11_310basic_jsonINS_3mapES2_NS_12basic_stringIcNS_11char_traitsIcEENS_9allocatorIcEEEEbxydSA_NS4_14adl_serializerENS2_IhNSA_IhEEEEvEENSA_ISG_EEEEEELb0EE8__unwrapB8ue170006ESJ_, symObjAddr: 0x33B0, symBinAddr: 0x100004120, symSize: 0x20 }
  - { offsetInCU: 0x19336, offset: 0x19336, size: 0x8, addend: 0x0, symName: __ZNSt3__14pairINS_11__wrap_iterIPN8nlohmann16json_abi_v3_11_310basic_jsonINS_3mapENS_6vectorENS_12basic_stringIcNS_11char_traitsIcEENS_9allocatorIcEEEEbxydSA_NS3_14adl_serializerENS6_IhNSA_IhEEEEvEEEENS_20back_insert_iteratorINS6_ISG_NSA_ISG_EEEEEEEC1B8ue170006ISI_SM_LPv0EEEOT_OT0_, symObjAddr: 0x33D0, symBinAddr: 0x100004140, symSize: 0x30 }
  - { offsetInCU: 0x19394, offset: 0x19394, size: 0x8, addend: 0x0, symName: __ZNSt3__14pairINS_11__wrap_iterIPN8nlohmann16json_abi_v3_11_310basic_jsonINS_3mapENS_6vectorENS_12basic_stringIcNS_11char_traitsIcEENS_9allocatorIcEEEEbxydSA_NS3_14adl_serializerENS6_IhNSA_IhEEEEvEEEENS_20back_insert_iteratorINS6_ISG_NSA_ISG_EEEEEEEC2B8ue170006ISI_SM_LPv0EEEOT_OT0_, symObjAddr: 0x3400, symBinAddr: 0x100004170, symSize: 0x30 }
  - { offsetInCU: 0x193F2, offset: 0x193F2, size: 0x8, addend: 0x0, symName: __ZNSt3__118__unwrap_iter_implINS_11__wrap_iterIPN8nlohmann16json_abi_v3_11_310basic_jsonINS_3mapENS_6vectorENS_12basic_stringIcNS_11char_traitsIcEENS_9allocatorIcEEEEbxydSA_NS3_14adl_serializerENS6_IhNSA_IhEEEEvEEEELb1EE8__rewrapB8ue170006ESI_SH_, symObjAddr: 0x3480, symBinAddr: 0x1000041F0, symSize: 0x50 }
  - { offsetInCU: 0x19423, offset: 0x19423, size: 0x8, addend: 0x0, symName: __ZNKSt3__111__wrap_iterIPN8nlohmann16json_abi_v3_11_310basic_jsonINS_3mapENS_6vectorENS_12basic_stringIcNS_11char_traitsIcEENS_9allocatorIcEEEEbxydS9_NS2_14adl_serializerENS5_IhNS9_IhEEEEvEEEplB8ue170006El, symObjAddr: 0x34D0, symBinAddr: 0x100004240, symSize: 0x40 }
  - { offsetInCU: 0x19465, offset: 0x19465, size: 0x8, addend: 0x0, symName: __ZNSt3__111__wrap_iterIPN8nlohmann16json_abi_v3_11_310basic_jsonINS_3mapENS_6vectorENS_12basic_stringIcNS_11char_traitsIcEENS_9allocatorIcEEEEbxydS9_NS2_14adl_serializerENS5_IhNS9_IhEEEEvEEEpLB8ue170006El, symObjAddr: 0x3510, symBinAddr: 0x100004280, symSize: 0x20 }
  - { offsetInCU: 0x19499, offset: 0x19499, size: 0x8, addend: 0x0, symName: __ZNSt3__118__unwrap_iter_implINS_20back_insert_iteratorINS_6vectorIN8nlohmann16json_abi_v3_11_310basic_jsonINS_3mapES2_NS_12basic_stringIcNS_11char_traitsIcEENS_9allocatorIcEEEEbxydSA_NS4_14adl_serializerENS2_IhNSA_IhEEEEvEENSA_ISG_EEEEEELb0EE8__rewrapB8ue170006ESJ_SJ_, symObjAddr: 0x3530, symBinAddr: 0x1000042A0, symSize: 0x20 }
  - { offsetInCU: 0x194C7, offset: 0x194C7, size: 0x8, addend: 0x0, symName: __ZNSt3__16vectorIN8nlohmann16json_abi_v3_11_310basic_jsonINS_3mapES0_NS_12basic_stringIcNS_11char_traitsIcEENS_9allocatorIcEEEEbxydS8_NS2_14adl_serializerENS0_IhNS8_IhEEEEvEENS8_ISE_EEE11__make_iterB8ue170006EPSE_, symObjAddr: 0x3550, symBinAddr: 0x1000042C0, symSize: 0x30 }
  - { offsetInCU: 0x194FC, offset: 0x194FC, size: 0x8, addend: 0x0, symName: __ZNSt3__111__wrap_iterIPN8nlohmann16json_abi_v3_11_310basic_jsonINS_3mapENS_6vectorENS_12basic_stringIcNS_11char_traitsIcEENS_9allocatorIcEEEEbxydS9_NS2_14adl_serializerENS5_IhNS9_IhEEEEvEEEC1B8ue170006ESG_, symObjAddr: 0x3580, symBinAddr: 0x1000042F0, symSize: 0x30 }
  - { offsetInCU: 0x19534, offset: 0x19534, size: 0x8, addend: 0x0, symName: __ZNSt3__111__wrap_iterIPN8nlohmann16json_abi_v3_11_310basic_jsonINS_3mapENS_6vectorENS_12basic_stringIcNS_11char_traitsIcEENS_9allocatorIcEEEEbxydS9_NS2_14adl_serializerENS5_IhNS9_IhEEEEvEEEC2B8ue170006ESG_, symObjAddr: 0x35B0, symBinAddr: 0x100004320, symSize: 0x20 }
  - { offsetInCU: 0x1956C, offset: 0x1956C, size: 0x8, addend: 0x0, symName: __ZNSt3__120back_insert_iteratorINS_6vectorIN8nlohmann16json_abi_v3_11_310basic_jsonINS_3mapES1_NS_12basic_stringIcNS_11char_traitsIcEENS_9allocatorIcEEEEbxydS9_NS3_14adl_serializerENS1_IhNS9_IhEEEEvEENS9_ISF_EEEEEC1B8ue170006ERSH_, symObjAddr: 0x35D0, symBinAddr: 0x100004340, symSize: 0x30 }
  - { offsetInCU: 0x195A4, offset: 0x195A4, size: 0x8, addend: 0x0, symName: __ZNSt3__120back_insert_iteratorINS_6vectorIN8nlohmann16json_abi_v3_11_310basic_jsonINS_3mapES1_NS_12basic_stringIcNS_11char_traitsIcEENS_9allocatorIcEEEEbxydS9_NS3_14adl_serializerENS1_IhNS9_IhEEEEvEENS9_ISF_EEEEEC2B8ue170006ERSH_, symObjAddr: 0x3600, symBinAddr: 0x100004370, symSize: 0x20 }
  - { offsetInCU: 0x195DC, offset: 0x195DC, size: 0x8, addend: 0x0, symName: __ZNKSt3__16__treeINS_12__value_typeINS_12basic_stringIcNS_11char_traitsIcEENS_9allocatorIcEEEEN8nlohmann16json_abi_v3_11_310basic_jsonINS_3mapENS_6vectorES7_bxydS5_NS9_14adl_serializerENSC_IhNS5_IhEEEEvEEEENS_19__map_value_compareIS7_SH_NS_4lessIvEELb1EEENS5_ISH_EEE4sizeB8ue170006Ev, symObjAddr: 0x3620, symBinAddr: 0x100004390, symSize: 0x20 }
  - { offsetInCU: 0x19602, offset: 0x19602, size: 0x8, addend: 0x0, symName: __ZNKSt3__117__compressed_pairImNS_19__map_value_compareINS_12basic_stringIcNS_11char_traitsIcEENS_9allocatorIcEEEENS_12__value_typeIS7_N8nlohmann16json_abi_v3_11_310basic_jsonINS_3mapENS_6vectorES7_bxydS5_NSA_14adl_serializerENSD_IhNS5_IhEEEEvEEEENS_4lessIvEELb1EEEE5firstB8ue170006Ev, symObjAddr: 0x3640, symBinAddr: 0x1000043B0, symSize: 0x20 }
  - { offsetInCU: 0x19628, offset: 0x19628, size: 0x8, addend: 0x0, symName: __ZNKSt3__122__compressed_pair_elemImLi0ELb0EE5__getB8ue170006Ev, symObjAddr: 0x3660, symBinAddr: 0x1000043D0, symSize: 0x10 }
  - { offsetInCU: 0x1964E, offset: 0x1964E, size: 0x8, addend: 0x0, symName: __ZNSt3__16__treeINS_12__value_typeINS_12basic_stringIcNS_11char_traitsIcEENS_9allocatorIcEEEEN8nlohmann16json_abi_v3_11_310basic_jsonINS_3mapENS_6vectorES7_bxydS5_NS9_14adl_serializerENSC_IhNS5_IhEEEEvEEEENS_19__map_value_compareIS7_SH_NS_4lessIvEELb1EEENS5_ISH_EEE5beginB8ue170006Ev, symObjAddr: 0x3670, symBinAddr: 0x1000043E0, symSize: 0x30 }
  - { offsetInCU: 0x19674, offset: 0x19674, size: 0x8, addend: 0x0, symName: __ZNSt3__114__map_iteratorINS_15__tree_iteratorINS_12__value_typeINS_12basic_stringIcNS_11char_traitsIcEENS_9allocatorIcEEEEN8nlohmann16json_abi_v3_11_310basic_jsonINS_3mapENS_6vectorES8_bxydS6_NSA_14adl_serializerENSD_IhNS6_IhEEEEvEEEEPNS_11__tree_nodeISI_PvEElEEEC1B8ue170006ESN_, symObjAddr: 0x36A0, symBinAddr: 0x100004410, symSize: 0x30 }
  - { offsetInCU: 0x196AD, offset: 0x196AD, size: 0x8, addend: 0x0, symName: __ZNSt3__16__treeINS_12__value_typeINS_12basic_stringIcNS_11char_traitsIcEENS_9allocatorIcEEEEN8nlohmann16json_abi_v3_11_310basic_jsonINS_3mapENS_6vectorES7_bxydS5_NS9_14adl_serializerENSC_IhNS5_IhEEEEvEEEENS_19__map_value_compareIS7_SH_NS_4lessIvEELb1EEENS5_ISH_EEE12__begin_nodeB8ue170006Ev, symObjAddr: 0x36D0, symBinAddr: 0x100004440, symSize: 0x10 }
  - { offsetInCU: 0x196D3, offset: 0x196D3, size: 0x8, addend: 0x0, symName: __ZNSt3__115__tree_iteratorINS_12__value_typeINS_12basic_stringIcNS_11char_traitsIcEENS_9allocatorIcEEEEN8nlohmann16json_abi_v3_11_310basic_jsonINS_3mapENS_6vectorES7_bxydS5_NS9_14adl_serializerENSC_IhNS5_IhEEEEvEEEEPNS_11__tree_nodeISH_PvEElEC1B8ue170006EPNS_15__tree_end_nodeIPNS_16__tree_node_baseISJ_EEEE, symObjAddr: 0x36E0, symBinAddr: 0x100004450, symSize: 0x30 }
  - { offsetInCU: 0x1970C, offset: 0x1970C, size: 0x8, addend: 0x0, symName: __ZNSt3__115__tree_iteratorINS_12__value_typeINS_12basic_stringIcNS_11char_traitsIcEENS_9allocatorIcEEEEN8nlohmann16json_abi_v3_11_310basic_jsonINS_3mapENS_6vectorES7_bxydS5_NS9_14adl_serializerENSC_IhNS5_IhEEEEvEEEEPNS_11__tree_nodeISH_PvEElEC2B8ue170006EPNS_15__tree_end_nodeIPNS_16__tree_node_baseISJ_EEEE, symObjAddr: 0x3710, symBinAddr: 0x100004480, symSize: 0x20 }
  - { offsetInCU: 0x19745, offset: 0x19745, size: 0x8, addend: 0x0, symName: __ZNSt3__114__map_iteratorINS_15__tree_iteratorINS_12__value_typeINS_12basic_stringIcNS_11char_traitsIcEENS_9allocatorIcEEEEN8nlohmann16json_abi_v3_11_310basic_jsonINS_3mapENS_6vectorES8_bxydS6_NSA_14adl_serializerENSD_IhNS6_IhEEEEvEEEEPNS_11__tree_nodeISI_PvEElEEEC2B8ue170006ESN_, symObjAddr: 0x3730, symBinAddr: 0x1000044A0, symSize: 0x20 }
  - { offsetInCU: 0x1977E, offset: 0x1977E, size: 0x8, addend: 0x0, symName: __ZNSt3__16__treeINS_12__value_typeINS_12basic_stringIcNS_11char_traitsIcEENS_9allocatorIcEEEEN8nlohmann16json_abi_v3_11_310basic_jsonINS_3mapENS_6vectorES7_bxydS5_NS9_14adl_serializerENSC_IhNS5_IhEEEEvEEEENS_19__map_value_compareIS7_SH_NS_4lessIvEELb1EEENS5_ISH_EEE3endB8ue170006Ev, symObjAddr: 0x3750, symBinAddr: 0x1000044C0, symSize: 0x30 }
  - { offsetInCU: 0x197A4, offset: 0x197A4, size: 0x8, addend: 0x0, symName: __ZNSt3__16__treeINS_12__value_typeINS_12basic_stringIcNS_11char_traitsIcEENS_9allocatorIcEEEEN8nlohmann16json_abi_v3_11_310basic_jsonINS_3mapENS_6vectorES7_bxydS5_NS9_14adl_serializerENSC_IhNS5_IhEEEEvEEEENS_19__map_value_compareIS7_SH_NS_4lessIvEELb1EEENS5_ISH_EEE10__end_nodeB8ue170006Ev, symObjAddr: 0x3780, symBinAddr: 0x1000044F0, symSize: 0x30 }
  - { offsetInCU: 0x197CA, offset: 0x197CA, size: 0x8, addend: 0x0, symName: __ZNSt3__114pointer_traitsIPNS_15__tree_end_nodeIPNS_16__tree_node_baseIPvEEEEE10pointer_toB8ue170006ERS6_, symObjAddr: 0x37B0, symBinAddr: 0x100004520, symSize: 0x10 }
  - { offsetInCU: 0x197ED, offset: 0x197ED, size: 0x8, addend: 0x0, symName: __ZNSt3__117__compressed_pairINS_15__tree_end_nodeIPNS_16__tree_node_baseIPvEEEENS_9allocatorINS_11__tree_nodeINS_12__value_typeINS_12basic_stringIcNS_11char_traitsIcEENS7_IcEEEEN8nlohmann16json_abi_v3_11_310basic_jsonINS_3mapENS_6vectorESE_bxydS7_NSG_14adl_serializerENSJ_IhNS7_IhEEEEvEEEES3_EEEEE5firstB8ue170006Ev, symObjAddr: 0x37C0, symBinAddr: 0x100004530, symSize: 0x20 }
  - { offsetInCU: 0x19813, offset: 0x19813, size: 0x8, addend: 0x0, symName: __ZNSt3__122__compressed_pair_elemINS_15__tree_end_nodeIPNS_16__tree_node_baseIPvEEEELi0ELb0EE5__getB8ue170006Ev, symObjAddr: 0x37E0, symBinAddr: 0x100004550, symSize: 0x10 }
  - { offsetInCU: 0x19839, offset: 0x19839, size: 0x8, addend: 0x0, symName: __ZNKSt3__115__tree_iteratorINS_12__value_typeINS_12basic_stringIcNS_11char_traitsIcEENS_9allocatorIcEEEEN8nlohmann16json_abi_v3_11_310basic_jsonINS_3mapENS_6vectorES7_bxydS5_NS9_14adl_serializerENSC_IhNS5_IhEEEEvEEEEPNS_11__tree_nodeISH_PvEElEptB8ue170006Ev, symObjAddr: 0x3850, symBinAddr: 0x1000045C0, symSize: 0x30 }
  - { offsetInCU: 0x1985F, offset: 0x1985F, size: 0x8, addend: 0x0, symName: __ZNSt3__112__value_typeINS_12basic_stringIcNS_11char_traitsIcEENS_9allocatorIcEEEEN8nlohmann16json_abi_v3_11_310basic_jsonINS_3mapENS_6vectorES6_bxydS4_NS8_14adl_serializerENSB_IhNS4_IhEEEEvEEE11__get_valueB8ue170006Ev, symObjAddr: 0x3880, symBinAddr: 0x1000045F0, symSize: 0x20 }
  - { offsetInCU: 0x19885, offset: 0x19885, size: 0x8, addend: 0x0, symName: __ZNSt3__114pointer_traitsIPNS_12__value_typeINS_12basic_stringIcNS_11char_traitsIcEENS_9allocatorIcEEEEN8nlohmann16json_abi_v3_11_310basic_jsonINS_3mapENS_6vectorES7_bxydS5_NS9_14adl_serializerENSC_IhNS5_IhEEEEvEEEEE10pointer_toB8ue170006ERSH_, symObjAddr: 0x38A0, symBinAddr: 0x100004610, symSize: 0x10 }
  - { offsetInCU: 0x198A8, offset: 0x198A8, size: 0x8, addend: 0x0, symName: __ZNKSt3__115__tree_iteratorINS_12__value_typeINS_12basic_stringIcNS_11char_traitsIcEENS_9allocatorIcEEEEN8nlohmann16json_abi_v3_11_310basic_jsonINS_3mapENS_6vectorES7_bxydS5_NS9_14adl_serializerENSC_IhNS5_IhEEEEvEEEEPNS_11__tree_nodeISH_PvEElE8__get_npB8ue170006Ev, symObjAddr: 0x38B0, symBinAddr: 0x100004620, symSize: 0x20 }
  - { offsetInCU: 0x198CE, offset: 0x198CE, size: 0x8, addend: 0x0, symName: __ZNSt3__16vectorIN8nlohmann16json_abi_v3_11_310basic_jsonINS_3mapES0_NS_12basic_stringIcNS_11char_traitsIcEENS_9allocatorIcEEEEbxydS8_NS2_14adl_serializerENS0_IhNS8_IhEEEEvEENS8_ISE_EEE22__construct_one_at_endB8ue170006IJSE_EEEvDpOT_, symObjAddr: 0x3900, symBinAddr: 0x100004670, symSize: 0x90 }
  - { offsetInCU: 0x1991D, offset: 0x1991D, size: 0x8, addend: 0x0, symName: __ZNSt3__16vectorIN8nlohmann16json_abi_v3_11_310basic_jsonINS_3mapES0_NS_12basic_stringIcNS_11char_traitsIcEENS_9allocatorIcEEEEbxydS8_NS2_14adl_serializerENS0_IhNS8_IhEEEEvEENS8_ISE_EEE21__push_back_slow_pathISE_EEvOT_, symObjAddr: 0x3990, symBinAddr: 0x100004700, symSize: 0xD0 }
  - { offsetInCU: 0x19997, offset: 0x19997, size: 0x8, addend: 0x0, symName: __ZNSt3__16vectorIN8nlohmann16json_abi_v3_11_310basic_jsonINS_3mapES0_NS_12basic_stringIcNS_11char_traitsIcEENS_9allocatorIcEEEEbxydS8_NS2_14adl_serializerENS0_IhNS8_IhEEEEvEENS8_ISE_EEE21_ConstructTransactionC1B8ue170006ERSG_m, symObjAddr: 0x3A60, symBinAddr: 0x1000047D0, symSize: 0x30 }
  - { offsetInCU: 0x199DF, offset: 0x199DF, size: 0x8, addend: 0x0, symName: __ZNSt3__16vectorIN8nlohmann16json_abi_v3_11_310basic_jsonINS_3mapES0_NS_12basic_stringIcNS_11char_traitsIcEENS_9allocatorIcEEEEbxydS8_NS2_14adl_serializerENS0_IhNS8_IhEEEEvEENS8_ISE_EEE21_ConstructTransactionD1B8ue170006Ev, symObjAddr: 0x3A90, symBinAddr: 0x100004800, symSize: 0x20 }
  - { offsetInCU: 0x19A09, offset: 0x19A09, size: 0x8, addend: 0x0, symName: __ZNSt3__16vectorIN8nlohmann16json_abi_v3_11_310basic_jsonINS_3mapES0_NS_12basic_stringIcNS_11char_traitsIcEENS_9allocatorIcEEEEbxydS8_NS2_14adl_serializerENS0_IhNS8_IhEEEEvEENS8_ISE_EEE21_ConstructTransactionC2B8ue170006ERSG_m, symObjAddr: 0x3AB0, symBinAddr: 0x100004820, symSize: 0x40 }
  - { offsetInCU: 0x19A51, offset: 0x19A51, size: 0x8, addend: 0x0, symName: __ZNSt3__16vectorIN8nlohmann16json_abi_v3_11_310basic_jsonINS_3mapES0_NS_12basic_stringIcNS_11char_traitsIcEENS_9allocatorIcEEEEbxydS8_NS2_14adl_serializerENS0_IhNS8_IhEEEEvEENS8_ISE_EEE21_ConstructTransactionD2B8ue170006Ev, symObjAddr: 0x3AF0, symBinAddr: 0x100004860, symSize: 0x20 }
  - { offsetInCU: 0x19A7B, offset: 0x19A7B, size: 0x8, addend: 0x0, symName: __ZNKSt3__16vectorIN8nlohmann16json_abi_v3_11_310basic_jsonINS_3mapES0_NS_12basic_stringIcNS_11char_traitsIcEENS_9allocatorIcEEEEbxydS8_NS2_14adl_serializerENS0_IhNS8_IhEEEEvEENS8_ISE_EEE11__recommendB8ue170006Em, symObjAddr: 0x3B10, symBinAddr: 0x100004880, symSize: 0xA0 }
  - { offsetInCU: 0x19AD0, offset: 0x19AD0, size: 0x8, addend: 0x0, symName: __ZNSt3__115__tree_iteratorINS_12__value_typeINS_12basic_stringIcNS_11char_traitsIcEENS_9allocatorIcEEEEN8nlohmann16json_abi_v3_11_310basic_jsonINS_3mapENS_6vectorES7_bxydS5_NS9_14adl_serializerENSC_IhNS5_IhEEEEvEEEEPNS_11__tree_nodeISH_PvEElEppB8ue170006Ev, symObjAddr: 0x3C30, symBinAddr: 0x1000049A0, symSize: 0x30 }
  - { offsetInCU: 0x19AF6, offset: 0x19AF6, size: 0x8, addend: 0x0, symName: __ZNKSt3__116__tree_node_baseIPvE15__parent_unsafeB8ue170006Ev, symObjAddr: 0x3D50, symBinAddr: 0x100004AC0, symSize: 0x20 }
  - { offsetInCU: 0x19B1C, offset: 0x19B1C, size: 0x8, addend: 0x0, symName: __ZN8nlohmann16json_abi_v3_11_310basic_jsonINSt3__13mapENS2_6vectorENS2_12basic_stringIcNS2_11char_traitsIcEENS2_9allocatorIcEEEEbxydS8_NS0_14adl_serializerENS4_IhNS8_IhEEEEvEC2EOSE_, symObjAddr: 0x3D70, symBinAddr: 0x100004AE0, symSize: 0x80 }
  - { offsetInCU: 0x19B55, offset: 0x19B55, size: 0x8, addend: 0x0, symName: __ZN8nlohmann16json_abi_v3_11_310basic_jsonINSt3__13mapENS2_6vectorENS2_12basic_stringIcNS2_11char_traitsIcEENS2_9allocatorIcEEEEbxydS8_NS0_14adl_serializerENS4_IhNS8_IhEEEEvE11set_parentsEv, symObjAddr: 0x3DF0, symBinAddr: 0x100004B60, symSize: 0x10 }
  - { offsetInCU: 0x19B7B, offset: 0x19B7B, size: 0x8, addend: 0x0, symName: __ZNSt3__16vectorIN8nlohmann16json_abi_v3_11_310basic_jsonINS_3mapES0_NS_12basic_stringIcNS_11char_traitsIcEENS_9allocatorIcEEEEbxydS8_NS2_14adl_serializerENS0_IhNS8_IhEEEEvEENS8_ISE_EEE17__destruct_at_endB8ue170006EPSE_, symObjAddr: 0x3E00, symBinAddr: 0x100004B70, symSize: 0x50 }
  - { offsetInCU: 0x19BBF, offset: 0x19BBF, size: 0x8, addend: 0x0, symName: __ZNSt3__16vectorIN8nlohmann16json_abi_v3_11_310basic_jsonINS_3mapES0_NS_12basic_stringIcNS_11char_traitsIcEENS_9allocatorIcEEEEbxydS8_NS2_14adl_serializerENS0_IhNS8_IhEEEEvEENS8_ISE_EEE22__base_destruct_at_endB8ue170006EPSE_, symObjAddr: 0x3E50, symBinAddr: 0x100004BC0, symSize: 0x80 }
  - { offsetInCU: 0x19C03, offset: 0x19C03, size: 0x8, addend: 0x0, symName: __ZNKSt3__16vectorIN8nlohmann16json_abi_v3_11_310basic_jsonINS_3mapES0_NS_12basic_stringIcNS_11char_traitsIcEENS_9allocatorIcEEEEbxydS8_NS2_14adl_serializerENS0_IhNS8_IhEEEEvEENS8_ISE_EEE17__annotate_shrinkB8ue170006Em, symObjAddr: 0x3ED0, symBinAddr: 0x100004C40, symSize: 0xA0 }
  - { offsetInCU: 0x19C38, offset: 0x19C38, size: 0x8, addend: 0x0, symName: __ZNSt3__16vectorIN8nlohmann16json_abi_v3_11_310basic_jsonINS_3mapES0_NS_12basic_stringIcNS_11char_traitsIcEENS_9allocatorIcEEEEbxydS8_NS2_14adl_serializerENS0_IhNS8_IhEEEEvEENS8_ISE_EEE7__clearB8ue170006Ev, symObjAddr: 0x3F70, symBinAddr: 0x100004CE0, symSize: 0x20 }
  - { offsetInCU: 0x19C5E, offset: 0x19C5E, size: 0x8, addend: 0x0, symName: __ZNSt3__16__treeINS_12__value_typeINS_12basic_stringIcNS_11char_traitsIcEENS_9allocatorIcEEEEN8nlohmann16json_abi_v3_11_310basic_jsonINS_3mapENS_6vectorES7_bxydS5_NS9_14adl_serializerENSC_IhNS5_IhEEEEvEEEENS_19__map_value_compareIS7_SH_NS_4lessIvEELb1EEENS5_ISH_EEE5clearEv, symObjAddr: 0x3F90, symBinAddr: 0x100004D00, symSize: 0x70 }
  - { offsetInCU: 0x19C86, offset: 0x19C86, size: 0x8, addend: 0x0, symName: __ZNSt3__16__treeINS_12__value_typeINS_12basic_stringIcNS_11char_traitsIcEENS_9allocatorIcEEEEN8nlohmann16json_abi_v3_11_310basic_jsonINS_3mapENS_6vectorES7_bxydS5_NS9_14adl_serializerENSC_IhNS5_IhEEEEvEEEENS_19__map_value_compareIS7_SH_NS_4lessIvEELb1EEENS5_ISH_EEE7destroyEPNS_11__tree_nodeISH_PvEE, symObjAddr: 0x4000, symBinAddr: 0x100004D70, symSize: 0xB0 }
  - { offsetInCU: 0x19CD3, offset: 0x19CD3, size: 0x8, addend: 0x0, symName: __ZNKSt3__16__treeINS_12__value_typeINS_12basic_stringIcNS_11char_traitsIcEENS_9allocatorIcEEEEN8nlohmann16json_abi_v3_11_310basic_jsonINS_3mapENS_6vectorES7_bxydS5_NS9_14adl_serializerENSC_IhNS5_IhEEEEvEEEENS_19__map_value_compareIS7_SH_NS_4lessIvEELb1EEENS5_ISH_EEE6__rootB8ue170006Ev, symObjAddr: 0x40B0, symBinAddr: 0x100004E20, symSize: 0x20 }
  - { offsetInCU: 0x19CF9, offset: 0x19CF9, size: 0x8, addend: 0x0, symName: __ZNSt3__16__treeINS_12__value_typeINS_12basic_stringIcNS_11char_traitsIcEENS_9allocatorIcEEEEN8nlohmann16json_abi_v3_11_310basic_jsonINS_3mapENS_6vectorES7_bxydS5_NS9_14adl_serializerENSC_IhNS5_IhEEEEvEEEENS_19__map_value_compareIS7_SH_NS_4lessIvEELb1EEENS5_ISH_EEE4sizeB8ue170006Ev, symObjAddr: 0x40D0, symBinAddr: 0x100004E40, symSize: 0x20 }
  - { offsetInCU: 0x19D1F, offset: 0x19D1F, size: 0x8, addend: 0x0, symName: __ZNSt3__16__treeINS_12__value_typeINS_12basic_stringIcNS_11char_traitsIcEENS_9allocatorIcEEEEN8nlohmann16json_abi_v3_11_310basic_jsonINS_3mapENS_6vectorES7_bxydS5_NS9_14adl_serializerENSC_IhNS5_IhEEEEvEEEENS_19__map_value_compareIS7_SH_NS_4lessIvEELb1EEENS5_ISH_EEE12__node_allocB8ue170006Ev, symObjAddr: 0x40F0, symBinAddr: 0x100004E60, symSize: 0x20 }
  - { offsetInCU: 0x19D45, offset: 0x19D45, size: 0x8, addend: 0x0, symName: __ZNSt3__116allocator_traitsINS_9allocatorINS_11__tree_nodeINS_12__value_typeINS_12basic_stringIcNS_11char_traitsIcEENS1_IcEEEEN8nlohmann16json_abi_v3_11_310basic_jsonINS_3mapENS_6vectorES8_bxydS1_NSA_14adl_serializerENSD_IhNS1_IhEEEEvEEEEPvEEEEE7destroyB8ue170006INS_4pairIKS8_SH_EEvvEEvRSL_PT_, symObjAddr: 0x4110, symBinAddr: 0x100004E80, symSize: 0x20 }
  - { offsetInCU: 0x19D80, offset: 0x19D80, size: 0x8, addend: 0x0, symName: __ZNSt3__122__tree_key_value_typesINS_12__value_typeINS_12basic_stringIcNS_11char_traitsIcEENS_9allocatorIcEEEEN8nlohmann16json_abi_v3_11_310basic_jsonINS_3mapENS_6vectorES7_bxydS5_NS9_14adl_serializerENSC_IhNS5_IhEEEEvEEEEE9__get_ptrB8ue170006ERSH_, symObjAddr: 0x4130, symBinAddr: 0x100004EA0, symSize: 0x20 }
  - { offsetInCU: 0x19DA4, offset: 0x19DA4, size: 0x8, addend: 0x0, symName: __ZNSt3__116allocator_traitsINS_9allocatorINS_11__tree_nodeINS_12__value_typeINS_12basic_stringIcNS_11char_traitsIcEENS1_IcEEEEN8nlohmann16json_abi_v3_11_310basic_jsonINS_3mapENS_6vectorES8_bxydS1_NSA_14adl_serializerENSD_IhNS1_IhEEEEvEEEEPvEEEEE10deallocateB8ue170006ERSL_PSK_m, symObjAddr: 0x4150, symBinAddr: 0x100004EC0, symSize: 0x30 }
  - { offsetInCU: 0x19DE6, offset: 0x19DE6, size: 0x8, addend: 0x0, symName: __ZNSt3__117__compressed_pairINS_15__tree_end_nodeIPNS_16__tree_node_baseIPvEEEENS_9allocatorINS_11__tree_nodeINS_12__value_typeINS_12basic_stringIcNS_11char_traitsIcEENS7_IcEEEEN8nlohmann16json_abi_v3_11_310basic_jsonINS_3mapENS_6vectorESE_bxydS7_NSG_14adl_serializerENSJ_IhNS7_IhEEEEvEEEES3_EEEEE6secondB8ue170006Ev, symObjAddr: 0x4180, symBinAddr: 0x100004EF0, symSize: 0x20 }
  - { offsetInCU: 0x19E0C, offset: 0x19E0C, size: 0x8, addend: 0x0, symName: __ZNSt3__122__compressed_pair_elemINS_9allocatorINS_11__tree_nodeINS_12__value_typeINS_12basic_stringIcNS_11char_traitsIcEENS1_IcEEEEN8nlohmann16json_abi_v3_11_310basic_jsonINS_3mapENS_6vectorES8_bxydS1_NSA_14adl_serializerENSD_IhNS1_IhEEEEvEEEEPvEEEELi1ELb1EE5__getB8ue170006Ev, symObjAddr: 0x41A0, symBinAddr: 0x100004F10, symSize: 0x10 }
  - { offsetInCU: 0x19E32, offset: 0x19E32, size: 0x8, addend: 0x0, symName: __ZNSt3__14pairIKNS_12basic_stringIcNS_11char_traitsIcEENS_9allocatorIcEEEEN8nlohmann16json_abi_v3_11_310basic_jsonINS_3mapENS_6vectorES6_bxydS4_NS9_14adl_serializerENSC_IhNS4_IhEEEEvEEED1Ev, symObjAddr: 0x41B0, symBinAddr: 0x100004F20, symSize: 0x20 }
  - { offsetInCU: 0x19E5E, offset: 0x19E5E, size: 0x8, addend: 0x0, symName: __ZNSt3__14pairIKNS_12basic_stringIcNS_11char_traitsIcEENS_9allocatorIcEEEEN8nlohmann16json_abi_v3_11_310basic_jsonINS_3mapENS_6vectorES6_bxydS4_NS9_14adl_serializerENSC_IhNS4_IhEEEEvEEED2Ev, symObjAddr: 0x41D0, symBinAddr: 0x100004F40, symSize: 0x30 }
  - { offsetInCU: 0x19E8A, offset: 0x19E8A, size: 0x8, addend: 0x0, symName: __ZNSt3__19allocatorINS_11__tree_nodeINS_12__value_typeINS_12basic_stringIcNS_11char_traitsIcEENS0_IcEEEEN8nlohmann16json_abi_v3_11_310basic_jsonINS_3mapENS_6vectorES7_bxydS0_NS9_14adl_serializerENSC_IhNS0_IhEEEEvEEEEPvEEE10deallocateB8ue170006EPSJ_m, symObjAddr: 0x4200, symBinAddr: 0x100004F70, symSize: 0x50 }
  - { offsetInCU: 0x19ECC, offset: 0x19ECC, size: 0x8, addend: 0x0, symName: __ZNKSt3__16__treeINS_12__value_typeINS_12basic_stringIcNS_11char_traitsIcEENS_9allocatorIcEEEEN8nlohmann16json_abi_v3_11_310basic_jsonINS_3mapENS_6vectorES7_bxydS5_NS9_14adl_serializerENSC_IhNS5_IhEEEEvEEEENS_19__map_value_compareIS7_SH_NS_4lessIvEELb1EEENS5_ISH_EEE10__end_nodeB8ue170006Ev, symObjAddr: 0x4250, symBinAddr: 0x100004FC0, symSize: 0x30 }
  - { offsetInCU: 0x19EF2, offset: 0x19EF2, size: 0x8, addend: 0x0, symName: __ZNKSt3__117__compressed_pairINS_15__tree_end_nodeIPNS_16__tree_node_baseIPvEEEENS_9allocatorINS_11__tree_nodeINS_12__value_typeINS_12basic_stringIcNS_11char_traitsIcEENS7_IcEEEEN8nlohmann16json_abi_v3_11_310basic_jsonINS_3mapENS_6vectorESE_bxydS7_NSG_14adl_serializerENSJ_IhNS7_IhEEEEvEEEES3_EEEEE5firstB8ue170006Ev, symObjAddr: 0x4280, symBinAddr: 0x100004FF0, symSize: 0x20 }
  - { offsetInCU: 0x19F18, offset: 0x19F18, size: 0x8, addend: 0x0, symName: __ZNKSt3__122__compressed_pair_elemINS_15__tree_end_nodeIPNS_16__tree_node_baseIPvEEEELi0ELb0EE5__getB8ue170006Ev, symObjAddr: 0x42A0, symBinAddr: 0x100005010, symSize: 0x10 }
  - { offsetInCU: 0x19F3E, offset: 0x19F3E, size: 0x8, addend: 0x0, symName: __ZNSt3__117__compressed_pairImNS_19__map_value_compareINS_12basic_stringIcNS_11char_traitsIcEENS_9allocatorIcEEEENS_12__value_typeIS7_N8nlohmann16json_abi_v3_11_310basic_jsonINS_3mapENS_6vectorES7_bxydS5_NSA_14adl_serializerENSD_IhNS5_IhEEEEvEEEENS_4lessIvEELb1EEEE5firstB8ue170006Ev, symObjAddr: 0x42B0, symBinAddr: 0x100005020, symSize: 0x20 }
  - { offsetInCU: 0x19F64, offset: 0x19F64, size: 0x8, addend: 0x0, symName: __ZNSt3__122__compressed_pair_elemImLi0ELb0EE5__getB8ue170006Ev, symObjAddr: 0x42D0, symBinAddr: 0x100005040, symSize: 0x10 }
  - { offsetInCU: 0x19F8A, offset: 0x19F8A, size: 0x8, addend: 0x0, symName: __ZNSt3__16vectorIN8nlohmann16json_abi_v3_11_310basic_jsonINS_3mapES0_NS_12basic_stringIcNS_11char_traitsIcEENS_9allocatorIcEEEEbxydS8_NS2_14adl_serializerENS0_IhNS8_IhEEEEvEENS8_ISE_EEED2B8ue170006Ev, symObjAddr: 0x42E0, symBinAddr: 0x100005050, symSize: 0x40 }
  - { offsetInCU: 0x19FB4, offset: 0x19FB4, size: 0x8, addend: 0x0, symName: __ZNSt3__16vectorIN8nlohmann16json_abi_v3_11_310basic_jsonINS_3mapES0_NS_12basic_stringIcNS_11char_traitsIcEENS_9allocatorIcEEEEbxydS8_NS2_14adl_serializerENS0_IhNS8_IhEEEEvEENS8_ISE_EEE16__destroy_vectorC1B8ue170006ERSG_, symObjAddr: 0x4320, symBinAddr: 0x100005090, symSize: 0x30 }
  - { offsetInCU: 0x19FED, offset: 0x19FED, size: 0x8, addend: 0x0, symName: __ZNSt3__16vectorIN8nlohmann16json_abi_v3_11_310basic_jsonINS_3mapES0_NS_12basic_stringIcNS_11char_traitsIcEENS_9allocatorIcEEEEbxydS8_NS2_14adl_serializerENS0_IhNS8_IhEEEEvEENS8_ISE_EEE16__destroy_vectorclB8ue170006Ev, symObjAddr: 0x4350, symBinAddr: 0x1000050C0, symSize: 0x80 }
  - { offsetInCU: 0x1A013, offset: 0x1A013, size: 0x8, addend: 0x0, symName: __ZNSt3__16vectorIN8nlohmann16json_abi_v3_11_310basic_jsonINS_3mapES0_NS_12basic_stringIcNS_11char_traitsIcEENS_9allocatorIcEEEEbxydS8_NS2_14adl_serializerENS0_IhNS8_IhEEEEvEENS8_ISE_EEE16__destroy_vectorC2B8ue170006ERSG_, symObjAddr: 0x43D0, symBinAddr: 0x100005140, symSize: 0x20 }
  - { offsetInCU: 0x1A04C, offset: 0x1A04C, size: 0x8, addend: 0x0, symName: __ZNSt3__19allocatorINS_3mapINS_12basic_stringIcNS_11char_traitsIcEENS0_IcEEEEN8nlohmann16json_abi_v3_11_310basic_jsonIS1_NS_6vectorES6_bxydS0_NS8_14adl_serializerENSA_IhNS0_IhEEEEvEENS_4lessIvEENS0_INS_4pairIKS6_SE_EEEEEEEC2B8ue170006Ev, symObjAddr: 0x43F0, symBinAddr: 0x100005160, symSize: 0x20 }
  - { offsetInCU: 0x1A076, offset: 0x1A076, size: 0x8, addend: 0x0, symName: __ZNSt3__116__non_trivial_ifILb1ENS_9allocatorINS_3mapINS_12basic_stringIcNS_11char_traitsIcEENS1_IcEEEEN8nlohmann16json_abi_v3_11_310basic_jsonIS2_NS_6vectorES7_bxydS1_NS9_14adl_serializerENSB_IhNS1_IhEEEEvEENS_4lessIvEENS1_INS_4pairIKS7_SF_EEEEEEEEEC2B8ue170006Ev, symObjAddr: 0x4410, symBinAddr: 0x100005180, symSize: 0x10 }
  - { offsetInCU: 0x1A0A0, offset: 0x1A0A0, size: 0x8, addend: 0x0, symName: __ZNSt3__19allocatorINS_3mapINS_12basic_stringIcNS_11char_traitsIcEENS0_IcEEEEN8nlohmann16json_abi_v3_11_310basic_jsonIS1_NS_6vectorES6_bxydS0_NS8_14adl_serializerENSA_IhNS0_IhEEEEvEENS_4lessIvEENS0_INS_4pairIKS6_SE_EEEEEEE7destroyB8ue170006EPSL_, symObjAddr: 0x4420, symBinAddr: 0x100005190, symSize: 0x20 }
  - { offsetInCU: 0x1A0D4, offset: 0x1A0D4, size: 0x8, addend: 0x0, symName: __ZNSt3__13mapINS_12basic_stringIcNS_11char_traitsIcEENS_9allocatorIcEEEEN8nlohmann16json_abi_v3_11_310basic_jsonIS0_NS_6vectorES6_bxydS4_NS8_14adl_serializerENSA_IhNS4_IhEEEEvEENS_4lessIvEENS4_INS_4pairIKS6_SE_EEEEED1B8ue170006Ev, symObjAddr: 0x4440, symBinAddr: 0x1000051B0, symSize: 0x20 }
  - { offsetInCU: 0x1A0FE, offset: 0x1A0FE, size: 0x8, addend: 0x0, symName: __ZNSt3__13mapINS_12basic_stringIcNS_11char_traitsIcEENS_9allocatorIcEEEEN8nlohmann16json_abi_v3_11_310basic_jsonIS0_NS_6vectorES6_bxydS4_NS8_14adl_serializerENSA_IhNS4_IhEEEEvEENS_4lessIvEENS4_INS_4pairIKS6_SE_EEEEED2B8ue170006Ev, symObjAddr: 0x4460, symBinAddr: 0x1000051D0, symSize: 0x20 }
  - { offsetInCU: 0x1A128, offset: 0x1A128, size: 0x8, addend: 0x0, symName: __ZNSt3__16__treeINS_12__value_typeINS_12basic_stringIcNS_11char_traitsIcEENS_9allocatorIcEEEEN8nlohmann16json_abi_v3_11_310basic_jsonINS_3mapENS_6vectorES7_bxydS5_NS9_14adl_serializerENSC_IhNS5_IhEEEEvEEEENS_19__map_value_compareIS7_SH_NS_4lessIvEELb1EEENS5_ISH_EEED1Ev, symObjAddr: 0x4480, symBinAddr: 0x1000051F0, symSize: 0x20 }
  - { offsetInCU: 0x1A154, offset: 0x1A154, size: 0x8, addend: 0x0, symName: __ZNSt3__16__treeINS_12__value_typeINS_12basic_stringIcNS_11char_traitsIcEENS_9allocatorIcEEEEN8nlohmann16json_abi_v3_11_310basic_jsonINS_3mapENS_6vectorES7_bxydS5_NS9_14adl_serializerENSC_IhNS5_IhEEEEvEEEENS_19__map_value_compareIS7_SH_NS_4lessIvEELb1EEENS5_ISH_EEED2Ev, symObjAddr: 0x44A0, symBinAddr: 0x100005210, symSize: 0x30 }
  - { offsetInCU: 0x1A180, offset: 0x1A180, size: 0x8, addend: 0x0, symName: __ZNSt3__19allocatorINS_3mapINS_12basic_stringIcNS_11char_traitsIcEENS0_IcEEEEN8nlohmann16json_abi_v3_11_310basic_jsonIS1_NS_6vectorES6_bxydS0_NS8_14adl_serializerENSA_IhNS0_IhEEEEvEENS_4lessIvEENS0_INS_4pairIKS6_SE_EEEEEEE10deallocateB8ue170006EPSL_m, symObjAddr: 0x44D0, symBinAddr: 0x100005240, symSize: 0x50 }
  - { offsetInCU: 0x1A1C2, offset: 0x1A1C2, size: 0x8, addend: 0x0, symName: __ZNSt3__19allocatorINS_6vectorIN8nlohmann16json_abi_v3_11_310basic_jsonINS_3mapES1_NS_12basic_stringIcNS_11char_traitsIcEENS0_IcEEEEbxydS0_NS3_14adl_serializerENS1_IhNS0_IhEEEEvEENS0_ISE_EEEEEC2B8ue170006Ev, symObjAddr: 0x4520, symBinAddr: 0x100005290, symSize: 0x20 }
  - { offsetInCU: 0x1A1EC, offset: 0x1A1EC, size: 0x8, addend: 0x0, symName: __ZNSt3__116__non_trivial_ifILb1ENS_9allocatorINS_6vectorIN8nlohmann16json_abi_v3_11_310basic_jsonINS_3mapES2_NS_12basic_stringIcNS_11char_traitsIcEENS1_IcEEEEbxydS1_NS4_14adl_serializerENS2_IhNS1_IhEEEEvEENS1_ISF_EEEEEEEC2B8ue170006Ev, symObjAddr: 0x4540, symBinAddr: 0x1000052B0, symSize: 0x10 }
  - { offsetInCU: 0x1A216, offset: 0x1A216, size: 0x8, addend: 0x0, symName: __ZNSt3__19allocatorINS_6vectorIN8nlohmann16json_abi_v3_11_310basic_jsonINS_3mapES1_NS_12basic_stringIcNS_11char_traitsIcEENS0_IcEEEEbxydS0_NS3_14adl_serializerENS1_IhNS0_IhEEEEvEENS0_ISE_EEEEE7destroyB8ue170006EPSG_, symObjAddr: 0x4550, symBinAddr: 0x1000052C0, symSize: 0x20 }
  - { offsetInCU: 0x1A24A, offset: 0x1A24A, size: 0x8, addend: 0x0, symName: __ZNSt3__19allocatorINS_6vectorIN8nlohmann16json_abi_v3_11_310basic_jsonINS_3mapES1_NS_12basic_stringIcNS_11char_traitsIcEENS0_IcEEEEbxydS0_NS3_14adl_serializerENS1_IhNS0_IhEEEEvEENS0_ISE_EEEEE10deallocateB8ue170006EPSG_m, symObjAddr: 0x4570, symBinAddr: 0x1000052E0, symSize: 0x50 }
  - { offsetInCU: 0x1A28C, offset: 0x1A28C, size: 0x8, addend: 0x0, symName: __ZNSt3__19allocatorINS_12basic_stringIcNS_11char_traitsIcEENS0_IcEEEEEC2B8ue170006Ev, symObjAddr: 0x45C0, symBinAddr: 0x100005330, symSize: 0x20 }
  - { offsetInCU: 0x1A2B6, offset: 0x1A2B6, size: 0x8, addend: 0x0, symName: __ZNSt3__116__non_trivial_ifILb1ENS_9allocatorINS_12basic_stringIcNS_11char_traitsIcEENS1_IcEEEEEEEC2B8ue170006Ev, symObjAddr: 0x45E0, symBinAddr: 0x100005350, symSize: 0x10 }
  - { offsetInCU: 0x1A2E0, offset: 0x1A2E0, size: 0x8, addend: 0x0, symName: __ZNSt3__19allocatorINS_12basic_stringIcNS_11char_traitsIcEENS0_IcEEEEE7destroyB8ue170006EPS5_, symObjAddr: 0x45F0, symBinAddr: 0x100005360, symSize: 0x20 }
  - { offsetInCU: 0x1A314, offset: 0x1A314, size: 0x8, addend: 0x0, symName: __ZNSt3__19allocatorINS_12basic_stringIcNS_11char_traitsIcEENS0_IcEEEEE10deallocateB8ue170006EPS5_m, symObjAddr: 0x4610, symBinAddr: 0x100005380, symSize: 0x50 }
  - { offsetInCU: 0x1A356, offset: 0x1A356, size: 0x8, addend: 0x0, symName: __ZNSt3__19allocatorIN8nlohmann16json_abi_v3_11_327byte_container_with_subtypeINS_6vectorIhNS0_IhEEEEEEEC2B8ue170006Ev, symObjAddr: 0x4660, symBinAddr: 0x1000053D0, symSize: 0x20 }
  - { offsetInCU: 0x1A380, offset: 0x1A380, size: 0x8, addend: 0x0, symName: __ZNSt3__116__non_trivial_ifILb1ENS_9allocatorIN8nlohmann16json_abi_v3_11_327byte_container_with_subtypeINS_6vectorIhNS1_IhEEEEEEEEEC2B8ue170006Ev, symObjAddr: 0x4680, symBinAddr: 0x1000053F0, symSize: 0x10 }
  - { offsetInCU: 0x1A3AA, offset: 0x1A3AA, size: 0x8, addend: 0x0, symName: __ZNSt3__19allocatorIN8nlohmann16json_abi_v3_11_327byte_container_with_subtypeINS_6vectorIhNS0_IhEEEEEEE7destroyB8ue170006EPS7_, symObjAddr: 0x4690, symBinAddr: 0x100005400, symSize: 0x20 }
  - { offsetInCU: 0x1A3DE, offset: 0x1A3DE, size: 0x8, addend: 0x0, symName: __ZN8nlohmann16json_abi_v3_11_327byte_container_with_subtypeINSt3__16vectorIhNS2_9allocatorIhEEEEED1Ev, symObjAddr: 0x46B0, symBinAddr: 0x100005420, symSize: 0x20 }
  - { offsetInCU: 0x1A40B, offset: 0x1A40B, size: 0x8, addend: 0x0, symName: __ZN8nlohmann16json_abi_v3_11_327byte_container_with_subtypeINSt3__16vectorIhNS2_9allocatorIhEEEEED2Ev, symObjAddr: 0x46D0, symBinAddr: 0x100005440, symSize: 0x20 }
  - { offsetInCU: 0x1A438, offset: 0x1A438, size: 0x8, addend: 0x0, symName: __ZNSt3__16vectorIhNS_9allocatorIhEEED2B8ue170006Ev, symObjAddr: 0x46F0, symBinAddr: 0x100005460, symSize: 0x40 }
  - { offsetInCU: 0x1A462, offset: 0x1A462, size: 0x8, addend: 0x0, symName: __ZNSt3__16vectorIhNS_9allocatorIhEEE16__destroy_vectorC1B8ue170006ERS3_, symObjAddr: 0x4730, symBinAddr: 0x1000054A0, symSize: 0x30 }
  - { offsetInCU: 0x1A49B, offset: 0x1A49B, size: 0x8, addend: 0x0, symName: __ZNSt3__16vectorIhNS_9allocatorIhEEE16__destroy_vectorclB8ue170006Ev, symObjAddr: 0x4760, symBinAddr: 0x1000054D0, symSize: 0x80 }
  - { offsetInCU: 0x1A4C1, offset: 0x1A4C1, size: 0x8, addend: 0x0, symName: __ZNSt3__16vectorIhNS_9allocatorIhEEE16__destroy_vectorC2B8ue170006ERS3_, symObjAddr: 0x47E0, symBinAddr: 0x100005550, symSize: 0x20 }
  - { offsetInCU: 0x1A4FA, offset: 0x1A4FA, size: 0x8, addend: 0x0, symName: __ZNSt3__16vectorIhNS_9allocatorIhEEE7__clearB8ue170006Ev, symObjAddr: 0x4800, symBinAddr: 0x100005570, symSize: 0x20 }
  - { offsetInCU: 0x1A520, offset: 0x1A520, size: 0x8, addend: 0x0, symName: __ZNKSt3__16vectorIhNS_9allocatorIhEEE17__annotate_deleteB8ue170006Ev, symObjAddr: 0x4820, symBinAddr: 0x100005590, symSize: 0xA0 }
  - { offsetInCU: 0x1A546, offset: 0x1A546, size: 0x8, addend: 0x0, symName: __ZNSt3__116allocator_traitsINS_9allocatorIhEEE10deallocateB8ue170006ERS2_Phm, symObjAddr: 0x48C0, symBinAddr: 0x100005630, symSize: 0x30 }
  - { offsetInCU: 0x1A588, offset: 0x1A588, size: 0x8, addend: 0x0, symName: __ZNSt3__16vectorIhNS_9allocatorIhEEE7__allocB8ue170006Ev, symObjAddr: 0x48F0, symBinAddr: 0x100005660, symSize: 0x20 }
  - { offsetInCU: 0x1A5AE, offset: 0x1A5AE, size: 0x8, addend: 0x0, symName: __ZNKSt3__16vectorIhNS_9allocatorIhEEE8capacityB8ue170006Ev, symObjAddr: 0x4910, symBinAddr: 0x100005680, symSize: 0x30 }
  - { offsetInCU: 0x1A5D4, offset: 0x1A5D4, size: 0x8, addend: 0x0, symName: __ZNSt3__16vectorIhNS_9allocatorIhEEE22__base_destruct_at_endB8ue170006EPh, symObjAddr: 0x4940, symBinAddr: 0x1000056B0, symSize: 0x80 }
  - { offsetInCU: 0x1A618, offset: 0x1A618, size: 0x8, addend: 0x0, symName: __ZNSt3__116allocator_traitsINS_9allocatorIhEEE7destroyB8ue170006IhvEEvRS2_PT_, symObjAddr: 0x49C0, symBinAddr: 0x100005730, symSize: 0x30 }
  - { offsetInCU: 0x1A655, offset: 0x1A655, size: 0x8, addend: 0x0, symName: __ZNSt3__19allocatorIhE7destroyB8ue170006EPh, symObjAddr: 0x4A00, symBinAddr: 0x100005770, symSize: 0x10 }
  - { offsetInCU: 0x1A689, offset: 0x1A689, size: 0x8, addend: 0x0, symName: __ZNKSt3__16vectorIhNS_9allocatorIhEEE31__annotate_contiguous_containerB8ue170006EPKvS5_S5_S5_, symObjAddr: 0x4A10, symBinAddr: 0x100005780, symSize: 0x20 }
  - { offsetInCU: 0x1A6DF, offset: 0x1A6DF, size: 0x8, addend: 0x0, symName: __ZNKSt3__16vectorIhNS_9allocatorIhEEE4dataB8ue170006Ev, symObjAddr: 0x4A30, symBinAddr: 0x1000057A0, symSize: 0x20 }
  - { offsetInCU: 0x1A705, offset: 0x1A705, size: 0x8, addend: 0x0, symName: __ZNKSt3__16vectorIhNS_9allocatorIhEEE4sizeB8ue170006Ev, symObjAddr: 0x4A50, symBinAddr: 0x1000057C0, symSize: 0x20 }
  - { offsetInCU: 0x1A72B, offset: 0x1A72B, size: 0x8, addend: 0x0, symName: __ZNSt3__19allocatorIhE10deallocateB8ue170006EPhm, symObjAddr: 0x4A70, symBinAddr: 0x1000057E0, symSize: 0x40 }
  - { offsetInCU: 0x1A76D, offset: 0x1A76D, size: 0x8, addend: 0x0, symName: __ZNSt3__117__compressed_pairIPhNS_9allocatorIhEEE6secondB8ue170006Ev, symObjAddr: 0x4AB0, symBinAddr: 0x100005820, symSize: 0x20 }
  - { offsetInCU: 0x1A793, offset: 0x1A793, size: 0x8, addend: 0x0, symName: __ZNSt3__122__compressed_pair_elemINS_9allocatorIhEELi1ELb1EE5__getB8ue170006Ev, symObjAddr: 0x4AD0, symBinAddr: 0x100005840, symSize: 0x10 }
  - { offsetInCU: 0x1A7B9, offset: 0x1A7B9, size: 0x8, addend: 0x0, symName: __ZNKSt3__16vectorIhNS_9allocatorIhEEE9__end_capB8ue170006Ev, symObjAddr: 0x4AE0, symBinAddr: 0x100005850, symSize: 0x20 }
  - { offsetInCU: 0x1A7DF, offset: 0x1A7DF, size: 0x8, addend: 0x0, symName: __ZNKSt3__117__compressed_pairIPhNS_9allocatorIhEEE5firstB8ue170006Ev, symObjAddr: 0x4B00, symBinAddr: 0x100005870, symSize: 0x20 }
  - { offsetInCU: 0x1A805, offset: 0x1A805, size: 0x8, addend: 0x0, symName: __ZNKSt3__122__compressed_pair_elemIPhLi0ELb0EE5__getB8ue170006Ev, symObjAddr: 0x4B20, symBinAddr: 0x100005890, symSize: 0x10 }
  - { offsetInCU: 0x1A82B, offset: 0x1A82B, size: 0x8, addend: 0x0, symName: __ZNSt3__19allocatorIN8nlohmann16json_abi_v3_11_327byte_container_with_subtypeINS_6vectorIhNS0_IhEEEEEEE10deallocateB8ue170006EPS7_m, symObjAddr: 0x4B30, symBinAddr: 0x1000058A0, symSize: 0x50 }
  - { offsetInCU: 0x1A86D, offset: 0x1A86D, size: 0x8, addend: 0x0, symName: __ZN8nlohmann16json_abi_v3_11_310basic_jsonINSt3__13mapENS2_6vectorENS2_12basic_stringIcNS2_11char_traitsIcEENS2_9allocatorIcEEEEbxydS8_NS0_14adl_serializerENS4_IhNS8_IhEEEEvEC2ERKSE_, symObjAddr: 0x4B80, symBinAddr: 0x1000058F0, symSize: 0x210 }
  - { offsetInCU: 0x1A8A6, offset: 0x1A8A6, size: 0x8, addend: 0x0, symName: __ZN8nlohmann16json_abi_v3_11_310basic_jsonINSt3__13mapENS2_6vectorENS2_12basic_stringIcNS2_11char_traitsIcEENS2_9allocatorIcEEEEbxydS8_NS0_14adl_serializerENS4_IhNS8_IhEEEEvE4dataC1Ev, symObjAddr: 0x4D90, symBinAddr: 0x100005B00, symSize: 0x20 }
  - { offsetInCU: 0x1A8D0, offset: 0x1A8D0, size: 0x8, addend: 0x0, symName: __ZN8nlohmann16json_abi_v3_11_310basic_jsonINSt3__13mapENS2_6vectorENS2_12basic_stringIcNS2_11char_traitsIcEENS2_9allocatorIcEEEEbxydS8_NS0_14adl_serializerENS4_IhNS8_IhEEEEvE10json_valueC1ERKNS3_ISA_SE_NS2_4lessIvEENS8_INS2_4pairIKSA_SE_EEEEEE, symObjAddr: 0x4DB0, symBinAddr: 0x100005B20, symSize: 0x30 }
  - { offsetInCU: 0x1A909, offset: 0x1A909, size: 0x8, addend: 0x0, symName: __ZN8nlohmann16json_abi_v3_11_310basic_jsonINSt3__13mapENS2_6vectorENS2_12basic_stringIcNS2_11char_traitsIcEENS2_9allocatorIcEEEEbxydS8_NS0_14adl_serializerENS4_IhNS8_IhEEEEvE10json_valueC1ERKNS4_ISE_NS8_ISE_EEEE, symObjAddr: 0x4DE0, symBinAddr: 0x100005B50, symSize: 0x30 }
  - { offsetInCU: 0x1A942, offset: 0x1A942, size: 0x8, addend: 0x0, symName: __ZN8nlohmann16json_abi_v3_11_310basic_jsonINSt3__13mapENS2_6vectorENS2_12basic_stringIcNS2_11char_traitsIcEENS2_9allocatorIcEEEEbxydS8_NS0_14adl_serializerENS4_IhNS8_IhEEEEvE10json_valueC1ERKSA_, symObjAddr: 0x4E10, symBinAddr: 0x100005B80, symSize: 0x30 }
  - { offsetInCU: 0x1A97B, offset: 0x1A97B, size: 0x8, addend: 0x0, symName: __ZN8nlohmann16json_abi_v3_11_310basic_jsonINSt3__13mapENS2_6vectorENS2_12basic_stringIcNS2_11char_traitsIcEENS2_9allocatorIcEEEEbxydS8_NS0_14adl_serializerENS4_IhNS8_IhEEEEvE10json_valueC1Eb, symObjAddr: 0x4E40, symBinAddr: 0x100005BB0, symSize: 0x30 }
  - { offsetInCU: 0x1A9B4, offset: 0x1A9B4, size: 0x8, addend: 0x0, symName: __ZN8nlohmann16json_abi_v3_11_310basic_jsonINSt3__13mapENS2_6vectorENS2_12basic_stringIcNS2_11char_traitsIcEENS2_9allocatorIcEEEEbxydS8_NS0_14adl_serializerENS4_IhNS8_IhEEEEvE10json_valueC1Ex, symObjAddr: 0x4E70, symBinAddr: 0x100005BE0, symSize: 0x30 }
  - { offsetInCU: 0x1A9ED, offset: 0x1A9ED, size: 0x8, addend: 0x0, symName: __ZN8nlohmann16json_abi_v3_11_310basic_jsonINSt3__13mapENS2_6vectorENS2_12basic_stringIcNS2_11char_traitsIcEENS2_9allocatorIcEEEEbxydS8_NS0_14adl_serializerENS4_IhNS8_IhEEEEvE10json_valueC1Ey, symObjAddr: 0x4EA0, symBinAddr: 0x100005C10, symSize: 0x30 }
  - { offsetInCU: 0x1AA26, offset: 0x1AA26, size: 0x8, addend: 0x0, symName: __ZN8nlohmann16json_abi_v3_11_310basic_jsonINSt3__13mapENS2_6vectorENS2_12basic_stringIcNS2_11char_traitsIcEENS2_9allocatorIcEEEEbxydS8_NS0_14adl_serializerENS4_IhNS8_IhEEEEvE10json_valueC1Ed, symObjAddr: 0x4ED0, symBinAddr: 0x100005C40, symSize: 0x30 }
  - { offsetInCU: 0x1AA5F, offset: 0x1AA5F, size: 0x8, addend: 0x0, symName: __ZN8nlohmann16json_abi_v3_11_310basic_jsonINSt3__13mapENS2_6vectorENS2_12basic_stringIcNS2_11char_traitsIcEENS2_9allocatorIcEEEEbxydS8_NS0_14adl_serializerENS4_IhNS8_IhEEEEvE10json_valueC1ERKNS0_27byte_container_with_subtypeISD_EE, symObjAddr: 0x4F00, symBinAddr: 0x100005C70, symSize: 0x30 }
  - { offsetInCU: 0x1AA98, offset: 0x1AA98, size: 0x8, addend: 0x0, symName: __ZN8nlohmann16json_abi_v3_11_310basic_jsonINSt3__13mapENS2_6vectorENS2_12basic_stringIcNS2_11char_traitsIcEENS2_9allocatorIcEEEEbxydS8_NS0_14adl_serializerENS4_IhNS8_IhEEEEvE4dataC2Ev, symObjAddr: 0x4F30, symBinAddr: 0x100005CA0, symSize: 0x30 }
  - { offsetInCU: 0x1AAC2, offset: 0x1AAC2, size: 0x8, addend: 0x0, symName: __ZN8nlohmann16json_abi_v3_11_310basic_jsonINSt3__13mapENS2_6vectorENS2_12basic_stringIcNS2_11char_traitsIcEENS2_9allocatorIcEEEEbxydS8_NS0_14adl_serializerENS4_IhNS8_IhEEEEvE10json_valueC2ERKNS3_ISA_SE_NS2_4lessIvEENS8_INS2_4pairIKSA_SE_EEEEEE, symObjAddr: 0x4F60, symBinAddr: 0x100005CD0, symSize: 0x40 }
  - { offsetInCU: 0x1AAFB, offset: 0x1AAFB, size: 0x8, addend: 0x0, symName: __ZN8nlohmann16json_abi_v3_11_310basic_jsonINSt3__13mapENS2_6vectorENS2_12basic_stringIcNS2_11char_traitsIcEENS2_9allocatorIcEEEEbxydS8_NS0_14adl_serializerENS4_IhNS8_IhEEEEvE6createINS3_ISA_SE_NS2_4lessIvEENS8_INS2_4pairIKSA_SE_EEEEEEJRKSM_EEEPT_DpOT0_, symObjAddr: 0x4FA0, symBinAddr: 0x100005D10, symSize: 0xF0 }
  - { offsetInCU: 0x1AB89, offset: 0x1AB89, size: 0x8, addend: 0x0, symName: __ZNSt3__116allocator_traitsINS_9allocatorINS_3mapINS_12basic_stringIcNS_11char_traitsIcEENS1_IcEEEEN8nlohmann16json_abi_v3_11_310basic_jsonIS2_NS_6vectorES7_bxydS1_NS9_14adl_serializerENSB_IhNS1_IhEEEEvEENS_4lessIvEENS1_INS_4pairIKS7_SF_EEEEEEEEE8allocateB8ue170006ERSN_m, symObjAddr: 0x5090, symBinAddr: 0x100005E00, symSize: 0x30 }
  - { offsetInCU: 0x1AC5D, offset: 0x1AC5D, size: 0x8, addend: 0x0, symName: __ZNSt3__110unique_ptrINS_3mapINS_12basic_stringIcNS_11char_traitsIcEENS_9allocatorIcEEEEN8nlohmann16json_abi_v3_11_310basic_jsonIS1_NS_6vectorES7_bxydS5_NS9_14adl_serializerENSB_IhNS5_IhEEEEvEENS_4lessIvEENS5_INS_4pairIKS7_SF_EEEEEEZNSF_6createISM_JRKSM_EEEPT_DpOT0_EUlPSM_E_EC1B8ue170006ILb1EvEESV_NS_16__dependent_typeINS_27__unique_ptr_deleter_sfinaeISW_EEXT_EE15__lval_ref_typeE, symObjAddr: 0x50C0, symBinAddr: 0x100005E30, symSize: 0x30 }
  - { offsetInCU: 0x1ACAE, offset: 0x1ACAE, size: 0x8, addend: 0x0, symName: __ZNSt3__116allocator_traitsINS_9allocatorINS_3mapINS_12basic_stringIcNS_11char_traitsIcEENS1_IcEEEEN8nlohmann16json_abi_v3_11_310basic_jsonIS2_NS_6vectorES7_bxydS1_NS9_14adl_serializerENSB_IhNS1_IhEEEEvEENS_4lessIvEENS1_INS_4pairIKS7_SF_EEEEEEEEE9constructB8ue170006ISM_JRKSM_EvEEvRSN_PT_DpOT0_, symObjAddr: 0x50F0, symBinAddr: 0x100005E60, symSize: 0x30 }
  - { offsetInCU: 0x1AD05, offset: 0x1AD05, size: 0x8, addend: 0x0, symName: __ZNKSt3__110unique_ptrINS_3mapINS_12basic_stringIcNS_11char_traitsIcEENS_9allocatorIcEEEEN8nlohmann16json_abi_v3_11_310basic_jsonIS1_NS_6vectorES7_bxydS5_NS9_14adl_serializerENSB_IhNS5_IhEEEEvEENS_4lessIvEENS5_INS_4pairIKS7_SF_EEEEEEZNSF_6createISM_JRKSM_EEEPT_DpOT0_EUlPSM_E_E3getB8ue170006Ev, symObjAddr: 0x5120, symBinAddr: 0x100005E90, symSize: 0x20 }
  - { offsetInCU: 0x1AD2B, offset: 0x1AD2B, size: 0x8, addend: 0x0, symName: __ZNSt3__110unique_ptrINS_3mapINS_12basic_stringIcNS_11char_traitsIcEENS_9allocatorIcEEEEN8nlohmann16json_abi_v3_11_310basic_jsonIS1_NS_6vectorES7_bxydS5_NS9_14adl_serializerENSB_IhNS5_IhEEEEvEENS_4lessIvEENS5_INS_4pairIKS7_SF_EEEEEEZNSF_6createISM_JRKSM_EEEPT_DpOT0_EUlPSM_E_E7releaseB8ue170006Ev, symObjAddr: 0x5170, symBinAddr: 0x100005EE0, symSize: 0x40 }
  - { offsetInCU: 0x1AD60, offset: 0x1AD60, size: 0x8, addend: 0x0, symName: __ZNSt3__110unique_ptrINS_3mapINS_12basic_stringIcNS_11char_traitsIcEENS_9allocatorIcEEEEN8nlohmann16json_abi_v3_11_310basic_jsonIS1_NS_6vectorES7_bxydS5_NS9_14adl_serializerENSB_IhNS5_IhEEEEvEENS_4lessIvEENS5_INS_4pairIKS7_SF_EEEEEEZNSF_6createISM_JRKSM_EEEPT_DpOT0_EUlPSM_E_ED1B8ue170006Ev, symObjAddr: 0x51B0, symBinAddr: 0x100005F20, symSize: 0x20 }
  - { offsetInCU: 0x1AD8A, offset: 0x1AD8A, size: 0x8, addend: 0x0, symName: __ZNSt3__19allocatorINS_3mapINS_12basic_stringIcNS_11char_traitsIcEENS0_IcEEEEN8nlohmann16json_abi_v3_11_310basic_jsonIS1_NS_6vectorES6_bxydS0_NS8_14adl_serializerENSA_IhNS0_IhEEEEvEENS_4lessIvEENS0_INS_4pairIKS6_SE_EEEEEEE8allocateB8ue170006Em, symObjAddr: 0x51D0, symBinAddr: 0x100005F40, symSize: 0x50 }
  - { offsetInCU: 0x1ADC9, offset: 0x1ADC9, size: 0x8, addend: 0x0, symName: __ZNSt3__116allocator_traitsINS_9allocatorINS_3mapINS_12basic_stringIcNS_11char_traitsIcEENS1_IcEEEEN8nlohmann16json_abi_v3_11_310basic_jsonIS2_NS_6vectorES7_bxydS1_NS9_14adl_serializerENSB_IhNS1_IhEEEEvEENS_4lessIvEENS1_INS_4pairIKS7_SF_EEEEEEEEE8max_sizeB8ue170006ISN_vEEmRKSN_, symObjAddr: 0x5220, symBinAddr: 0x100005F90, symSize: 0x20 }
  - { offsetInCU: 0x1ADF7, offset: 0x1ADF7, size: 0x8, addend: 0x0, symName: __ZNKSt3__19allocatorINS_3mapINS_12basic_stringIcNS_11char_traitsIcEENS0_IcEEEEN8nlohmann16json_abi_v3_11_310basic_jsonIS1_NS_6vectorES6_bxydS0_NS8_14adl_serializerENSA_IhNS0_IhEEEEvEENS_4lessIvEENS0_INS_4pairIKS6_SE_EEEEEEE8max_sizeB8ue170006Ev, symObjAddr: 0x5240, symBinAddr: 0x100005FB0, symSize: 0x20 }
  - { offsetInCU: 0x1AE1D, offset: 0x1AE1D, size: 0x8, addend: 0x0, symName: __ZNSt3__110unique_ptrINS_3mapINS_12basic_stringIcNS_11char_traitsIcEENS_9allocatorIcEEEEN8nlohmann16json_abi_v3_11_310basic_jsonIS1_NS_6vectorES7_bxydS5_NS9_14adl_serializerENSB_IhNS5_IhEEEEvEENS_4lessIvEENS5_INS_4pairIKS7_SF_EEEEEEZNSF_6createISM_JRKSM_EEEPT_DpOT0_EUlPSM_E_EC2B8ue170006ILb1EvEESV_NS_16__dependent_typeINS_27__unique_ptr_deleter_sfinaeISW_EEXT_EE15__lval_ref_typeE, symObjAddr: 0x5260, symBinAddr: 0x100005FD0, symSize: 0x40 }
  - { offsetInCU: 0x1AE6E, offset: 0x1AE6E, size: 0x8, addend: 0x0, symName: __ZNSt3__117__compressed_pairIPNS_3mapINS_12basic_stringIcNS_11char_traitsIcEENS_9allocatorIcEEEEN8nlohmann16json_abi_v3_11_310basic_jsonIS1_NS_6vectorES7_bxydS5_NS9_14adl_serializerENSB_IhNS5_IhEEEEvEENS_4lessIvEENS5_INS_4pairIKS7_SF_EEEEEEZNSF_6createISM_JRKSM_EEEPT_DpOT0_EUlSN_E_EC1B8ue170006IRSN_RKSW_EEOSR_OT0_, symObjAddr: 0x52A0, symBinAddr: 0x100006010, symSize: 0x30 }
  - { offsetInCU: 0x1AEC6, offset: 0x1AEC6, size: 0x8, addend: 0x0, symName: __ZNSt3__117__compressed_pairIPNS_3mapINS_12basic_stringIcNS_11char_traitsIcEENS_9allocatorIcEEEEN8nlohmann16json_abi_v3_11_310basic_jsonIS1_NS_6vectorES7_bxydS5_NS9_14adl_serializerENSB_IhNS5_IhEEEEvEENS_4lessIvEENS5_INS_4pairIKS7_SF_EEEEEEZNSF_6createISM_JRKSM_EEEPT_DpOT0_EUlSN_E_EC2B8ue170006IRSN_RKSW_EEOSR_OT0_, symObjAddr: 0x52D0, symBinAddr: 0x100006040, symSize: 0x40 }
  - { offsetInCU: 0x1AF1E, offset: 0x1AF1E, size: 0x8, addend: 0x0, symName: __ZNSt3__122__compressed_pair_elemIPNS_3mapINS_12basic_stringIcNS_11char_traitsIcEENS_9allocatorIcEEEEN8nlohmann16json_abi_v3_11_310basic_jsonIS1_NS_6vectorES7_bxydS5_NS9_14adl_serializerENSB_IhNS5_IhEEEEvEENS_4lessIvEENS5_INS_4pairIKS7_SF_EEEEEELi0ELb0EEC2B8ue170006IRSN_vEEOT_, symObjAddr: 0x5310, symBinAddr: 0x100006080, symSize: 0x20 }
  - { offsetInCU: 0x1AF60, offset: 0x1AF60, size: 0x8, addend: 0x0, symName: __ZNSt3__122__compressed_pair_elemIZN8nlohmann16json_abi_v3_11_310basic_jsonINS_3mapENS_6vectorENS_12basic_stringIcNS_11char_traitsIcEENS_9allocatorIcEEEEbxydS9_NS2_14adl_serializerENS5_IhNS9_IhEEEEvE6createINS4_ISB_SF_NS_4lessIvEENS9_INS_4pairIKSB_SF_EEEEEEJRKSN_EEEPT_DpOT0_EUlPSN_E_Li1ELb0EEC2B8ue170006IRKSW_vEEOSQ_, symObjAddr: 0x5330, symBinAddr: 0x1000060A0, symSize: 0x20 }
  - { offsetInCU: 0x1AFA2, offset: 0x1AFA2, size: 0x8, addend: 0x0, symName: __ZNSt3__19allocatorINS_3mapINS_12basic_stringIcNS_11char_traitsIcEENS0_IcEEEEN8nlohmann16json_abi_v3_11_310basic_jsonIS1_NS_6vectorES6_bxydS0_NS8_14adl_serializerENSA_IhNS0_IhEEEEvEENS_4lessIvEENS0_INS_4pairIKS6_SE_EEEEEEE9constructB8ue170006ISL_JRKSL_EEEvPT_DpOT0_, symObjAddr: 0x5350, symBinAddr: 0x1000060C0, symSize: 0x30 }
  - { offsetInCU: 0x1AFF8, offset: 0x1AFF8, size: 0x8, addend: 0x0, symName: __ZNSt3__13mapINS_12basic_stringIcNS_11char_traitsIcEENS_9allocatorIcEEEEN8nlohmann16json_abi_v3_11_310basic_jsonIS0_NS_6vectorES6_bxydS4_NS8_14adl_serializerENSA_IhNS4_IhEEEEvEENS_4lessIvEENS4_INS_4pairIKS6_SE_EEEEEC1B8ue170006ERKSL_, symObjAddr: 0x5380, symBinAddr: 0x1000060F0, symSize: 0x30 }
  - { offsetInCU: 0x1B031, offset: 0x1B031, size: 0x8, addend: 0x0, symName: __ZNSt3__13mapINS_12basic_stringIcNS_11char_traitsIcEENS_9allocatorIcEEEEN8nlohmann16json_abi_v3_11_310basic_jsonIS0_NS_6vectorES6_bxydS4_NS8_14adl_serializerENSA_IhNS4_IhEEEEvEENS_4lessIvEENS4_INS_4pairIKS6_SE_EEEEEC2B8ue170006ERKSL_, symObjAddr: 0x53B0, symBinAddr: 0x100006120, symSize: 0x80 }
  - { offsetInCU: 0x1B06A, offset: 0x1B06A, size: 0x8, addend: 0x0, symName: __ZNSt3__16__treeINS_12__value_typeINS_12basic_stringIcNS_11char_traitsIcEENS_9allocatorIcEEEEN8nlohmann16json_abi_v3_11_310basic_jsonINS_3mapENS_6vectorES7_bxydS5_NS9_14adl_serializerENSC_IhNS5_IhEEEEvEEEENS_19__map_value_compareIS7_SH_NS_4lessIvEELb1EEENS5_ISH_EEEC1ERKSN_, symObjAddr: 0x5430, symBinAddr: 0x1000061A0, symSize: 0x30 }
  - { offsetInCU: 0x1B0A5, offset: 0x1B0A5, size: 0x8, addend: 0x0, symName: __ZNSt3__13mapINS_12basic_stringIcNS_11char_traitsIcEENS_9allocatorIcEEEEN8nlohmann16json_abi_v3_11_310basic_jsonIS0_NS_6vectorES6_bxydS4_NS8_14adl_serializerENSA_IhNS4_IhEEEEvEENS_4lessIvEENS4_INS_4pairIKS6_SE_EEEEE6insertB8ue170006INS_20__map_const_iteratorINS_21__tree_const_iteratorINS_12__value_typeIS6_SE_EEPNS_11__tree_nodeISQ_PvEElEEEEEEvT_SX_, symObjAddr: 0x5460, symBinAddr: 0x1000061D0, symSize: 0x90 }
  - { offsetInCU: 0x1B10F, offset: 0x1B10F, size: 0x8, addend: 0x0, symName: __ZNKSt3__13mapINS_12basic_stringIcNS_11char_traitsIcEENS_9allocatorIcEEEEN8nlohmann16json_abi_v3_11_310basic_jsonIS0_NS_6vectorES6_bxydS4_NS8_14adl_serializerENSA_IhNS4_IhEEEEvEENS_4lessIvEENS4_INS_4pairIKS6_SE_EEEEE5beginB8ue170006Ev, symObjAddr: 0x54F0, symBinAddr: 0x100006260, symSize: 0x30 }
  - { offsetInCU: 0x1B135, offset: 0x1B135, size: 0x8, addend: 0x0, symName: __ZNKSt3__13mapINS_12basic_stringIcNS_11char_traitsIcEENS_9allocatorIcEEEEN8nlohmann16json_abi_v3_11_310basic_jsonIS0_NS_6vectorES6_bxydS4_NS8_14adl_serializerENSA_IhNS4_IhEEEEvEENS_4lessIvEENS4_INS_4pairIKS6_SE_EEEEE3endB8ue170006Ev, symObjAddr: 0x5520, symBinAddr: 0x100006290, symSize: 0x30 }
  - { offsetInCU: 0x1B15B, offset: 0x1B15B, size: 0x8, addend: 0x0, symName: __ZNSt3__16__treeINS_12__value_typeINS_12basic_stringIcNS_11char_traitsIcEENS_9allocatorIcEEEEN8nlohmann16json_abi_v3_11_310basic_jsonINS_3mapENS_6vectorES7_bxydS5_NS9_14adl_serializerENSC_IhNS5_IhEEEEvEEEENS_19__map_value_compareIS7_SH_NS_4lessIvEELb1EEENS5_ISH_EEEC2ERKSN_, symObjAddr: 0x5550, symBinAddr: 0x1000062C0, symSize: 0xA0 }
  - { offsetInCU: 0x1B1A1, offset: 0x1B1A1, size: 0x8, addend: 0x0, symName: __ZNSt3__116allocator_traitsINS_9allocatorINS_11__tree_nodeINS_12__value_typeINS_12basic_stringIcNS_11char_traitsIcEENS1_IcEEEEN8nlohmann16json_abi_v3_11_310basic_jsonINS_3mapENS_6vectorES8_bxydS1_NSA_14adl_serializerENSD_IhNS1_IhEEEEvEEEEPvEEEEE37select_on_container_copy_constructionB8ue170006ISL_vvEESL_RKSL_, symObjAddr: 0x55F0, symBinAddr: 0x100006360, symSize: 0x10 }
  - { offsetInCU: 0x1B1D0, offset: 0x1B1D0, size: 0x8, addend: 0x0, symName: __ZNKSt3__16__treeINS_12__value_typeINS_12basic_stringIcNS_11char_traitsIcEENS_9allocatorIcEEEEN8nlohmann16json_abi_v3_11_310basic_jsonINS_3mapENS_6vectorES7_bxydS5_NS9_14adl_serializerENSC_IhNS5_IhEEEEvEEEENS_19__map_value_compareIS7_SH_NS_4lessIvEELb1EEENS5_ISH_EEE12__node_allocB8ue170006Ev, symObjAddr: 0x5600, symBinAddr: 0x100006370, symSize: 0x20 }
  - { offsetInCU: 0x1B1FC, offset: 0x1B1FC, size: 0x8, addend: 0x0, symName: __ZNSt3__117__compressed_pairINS_15__tree_end_nodeIPNS_16__tree_node_baseIPvEEEENS_9allocatorINS_11__tree_nodeINS_12__value_typeINS_12basic_stringIcNS_11char_traitsIcEENS7_IcEEEEN8nlohmann16json_abi_v3_11_310basic_jsonINS_3mapENS_6vectorESE_bxydS7_NSG_14adl_serializerENSJ_IhNS7_IhEEEEvEEEES3_EEEEEC1B8ue170006INS_18__default_init_tagESQ_EEOT_OT0_, symObjAddr: 0x5620, symBinAddr: 0x100006390, symSize: 0x30 }
  - { offsetInCU: 0x1B254, offset: 0x1B254, size: 0x8, addend: 0x0, symName: __ZNKSt3__16__treeINS_12__value_typeINS_12basic_stringIcNS_11char_traitsIcEENS_9allocatorIcEEEEN8nlohmann16json_abi_v3_11_310basic_jsonINS_3mapENS_6vectorES7_bxydS5_NS9_14adl_serializerENSC_IhNS5_IhEEEEvEEEENS_19__map_value_compareIS7_SH_NS_4lessIvEELb1EEENS5_ISH_EEE10value_compB8ue170006Ev, symObjAddr: 0x5650, symBinAddr: 0x1000063C0, symSize: 0x20 }
  - { offsetInCU: 0x1B27A, offset: 0x1B27A, size: 0x8, addend: 0x0, symName: __ZNSt3__117__compressed_pairImNS_19__map_value_compareINS_12basic_stringIcNS_11char_traitsIcEENS_9allocatorIcEEEENS_12__value_typeIS7_N8nlohmann16json_abi_v3_11_310basic_jsonINS_3mapENS_6vectorES7_bxydS5_NSA_14adl_serializerENSD_IhNS5_IhEEEEvEEEENS_4lessIvEELb1EEEEC1B8ue170006IiRKSL_EEOT_OT0_, symObjAddr: 0x5670, symBinAddr: 0x1000063E0, symSize: 0x30 }
  - { offsetInCU: 0x1B2D2, offset: 0x1B2D2, size: 0x8, addend: 0x0, symName: __ZNKSt3__117__compressed_pairINS_15__tree_end_nodeIPNS_16__tree_node_baseIPvEEEENS_9allocatorINS_11__tree_nodeINS_12__value_typeINS_12basic_stringIcNS_11char_traitsIcEENS7_IcEEEEN8nlohmann16json_abi_v3_11_310basic_jsonINS_3mapENS_6vectorESE_bxydS7_NSG_14adl_serializerENSJ_IhNS7_IhEEEEvEEEES3_EEEEE6secondB8ue170006Ev, symObjAddr: 0x56A0, symBinAddr: 0x100006410, symSize: 0x20 }
  - { offsetInCU: 0x1B2F8, offset: 0x1B2F8, size: 0x8, addend: 0x0, symName: __ZNKSt3__122__compressed_pair_elemINS_9allocatorINS_11__tree_nodeINS_12__value_typeINS_12basic_stringIcNS_11char_traitsIcEENS1_IcEEEEN8nlohmann16json_abi_v3_11_310basic_jsonINS_3mapENS_6vectorES8_bxydS1_NSA_14adl_serializerENSD_IhNS1_IhEEEEvEEEEPvEEEELi1ELb1EE5__getB8ue170006Ev, symObjAddr: 0x56C0, symBinAddr: 0x100006430, symSize: 0x10 }
  - { offsetInCU: 0x1B31E, offset: 0x1B31E, size: 0x8, addend: 0x0, symName: __ZNSt3__117__compressed_pairINS_15__tree_end_nodeIPNS_16__tree_node_baseIPvEEEENS_9allocatorINS_11__tree_nodeINS_12__value_typeINS_12basic_stringIcNS_11char_traitsIcEENS7_IcEEEEN8nlohmann16json_abi_v3_11_310basic_jsonINS_3mapENS_6vectorESE_bxydS7_NSG_14adl_serializerENSJ_IhNS7_IhEEEEvEEEES3_EEEEEC2B8ue170006INS_18__default_init_tagESQ_EEOT_OT0_, symObjAddr: 0x56D0, symBinAddr: 0x100006440, symSize: 0x40 }
  - { offsetInCU: 0x1B376, offset: 0x1B376, size: 0x8, addend: 0x0, symName: __ZNSt3__122__compressed_pair_elemINS_15__tree_end_nodeIPNS_16__tree_node_baseIPvEEEELi0ELb0EEC2B8ue170006ENS_18__default_init_tagE, symObjAddr: 0x5710, symBinAddr: 0x100006480, symSize: 0x20 }
  - { offsetInCU: 0x1B3AB, offset: 0x1B3AB, size: 0x8, addend: 0x0, symName: __ZNSt3__122__compressed_pair_elemINS_9allocatorINS_11__tree_nodeINS_12__value_typeINS_12basic_stringIcNS_11char_traitsIcEENS1_IcEEEEN8nlohmann16json_abi_v3_11_310basic_jsonINS_3mapENS_6vectorES8_bxydS1_NSA_14adl_serializerENSD_IhNS1_IhEEEEvEEEEPvEEEELi1ELb1EEC2B8ue170006ISL_vEEOT_, symObjAddr: 0x5730, symBinAddr: 0x1000064A0, symSize: 0x10 }
  - { offsetInCU: 0x1B3ED, offset: 0x1B3ED, size: 0x8, addend: 0x0, symName: __ZNSt3__115__tree_end_nodeIPNS_16__tree_node_baseIPvEEEC1B8ue170006Ev, symObjAddr: 0x5740, symBinAddr: 0x1000064B0, symSize: 0x20 }
  - { offsetInCU: 0x1B417, offset: 0x1B417, size: 0x8, addend: 0x0, symName: __ZNSt3__115__tree_end_nodeIPNS_16__tree_node_baseIPvEEEC2B8ue170006Ev, symObjAddr: 0x5760, symBinAddr: 0x1000064D0, symSize: 0x20 }
  - { offsetInCU: 0x1B441, offset: 0x1B441, size: 0x8, addend: 0x0, symName: __ZNKSt3__117__compressed_pairImNS_19__map_value_compareINS_12basic_stringIcNS_11char_traitsIcEENS_9allocatorIcEEEENS_12__value_typeIS7_N8nlohmann16json_abi_v3_11_310basic_jsonINS_3mapENS_6vectorES7_bxydS5_NSA_14adl_serializerENSD_IhNS5_IhEEEEvEEEENS_4lessIvEELb1EEEE6secondB8ue170006Ev, symObjAddr: 0x5780, symBinAddr: 0x1000064F0, symSize: 0x20 }
  - { offsetInCU: 0x1B467, offset: 0x1B467, size: 0x8, addend: 0x0, symName: __ZNKSt3__122__compressed_pair_elemINS_19__map_value_compareINS_12basic_stringIcNS_11char_traitsIcEENS_9allocatorIcEEEENS_12__value_typeIS7_N8nlohmann16json_abi_v3_11_310basic_jsonINS_3mapENS_6vectorES7_bxydS5_NSA_14adl_serializerENSD_IhNS5_IhEEEEvEEEENS_4lessIvEELb1EEELi1ELb1EE5__getB8ue170006Ev, symObjAddr: 0x57A0, symBinAddr: 0x100006510, symSize: 0x10 }
  - { offsetInCU: 0x1B48D, offset: 0x1B48D, size: 0x8, addend: 0x0, symName: __ZNSt3__117__compressed_pairImNS_19__map_value_compareINS_12basic_stringIcNS_11char_traitsIcEENS_9allocatorIcEEEENS_12__value_typeIS7_N8nlohmann16json_abi_v3_11_310basic_jsonINS_3mapENS_6vectorES7_bxydS5_NSA_14adl_serializerENSD_IhNS5_IhEEEEvEEEENS_4lessIvEELb1EEEEC2B8ue170006IiRKSL_EEOT_OT0_, symObjAddr: 0x57B0, symBinAddr: 0x100006520, symSize: 0x40 }
  - { offsetInCU: 0x1B4E5, offset: 0x1B4E5, size: 0x8, addend: 0x0, symName: __ZNSt3__122__compressed_pair_elemImLi0ELb0EEC2B8ue170006IivEEOT_, symObjAddr: 0x57F0, symBinAddr: 0x100006560, symSize: 0x20 }
  - { offsetInCU: 0x1B527, offset: 0x1B527, size: 0x8, addend: 0x0, symName: __ZNSt3__122__compressed_pair_elemINS_19__map_value_compareINS_12basic_stringIcNS_11char_traitsIcEENS_9allocatorIcEEEENS_12__value_typeIS7_N8nlohmann16json_abi_v3_11_310basic_jsonINS_3mapENS_6vectorES7_bxydS5_NSA_14adl_serializerENSD_IhNS5_IhEEEEvEEEENS_4lessIvEELb1EEELi1ELb1EEC2B8ue170006IRKSL_vEEOT_, symObjAddr: 0x5810, symBinAddr: 0x100006580, symSize: 0x10 }
  - { offsetInCU: 0x1B569, offset: 0x1B569, size: 0x8, addend: 0x0, symName: __ZNKSt3__13mapINS_12basic_stringIcNS_11char_traitsIcEENS_9allocatorIcEEEEN8nlohmann16json_abi_v3_11_310basic_jsonIS0_NS_6vectorES6_bxydS4_NS8_14adl_serializerENSA_IhNS4_IhEEEEvEENS_4lessIvEENS4_INS_4pairIKS6_SE_EEEEE4cendB8ue170006Ev, symObjAddr: 0x5820, symBinAddr: 0x100006590, symSize: 0x30 }
  - { offsetInCU: 0x1B58F, offset: 0x1B58F, size: 0x8, addend: 0x0, symName: __ZNSt3__13mapINS_12basic_stringIcNS_11char_traitsIcEENS_9allocatorIcEEEEN8nlohmann16json_abi_v3_11_310basic_jsonIS0_NS_6vectorES6_bxydS4_NS8_14adl_serializerENSA_IhNS4_IhEEEEvEENS_4lessIvEENS4_INS_4pairIKS6_SE_EEEEE6insertB8ue170006ENS_20__map_const_iteratorINS_21__tree_const_iteratorINS_12__value_typeIS6_SE_EEPNS_11__tree_nodeISP_PvEElEEEERKSJ_, symObjAddr: 0x5880, symBinAddr: 0x1000065F0, symSize: 0x50 }
  - { offsetInCU: 0x1B5D3, offset: 0x1B5D3, size: 0x8, addend: 0x0, symName: __ZNSt3__120__map_const_iteratorINS_21__tree_const_iteratorINS_12__value_typeINS_12basic_stringIcNS_11char_traitsIcEENS_9allocatorIcEEEEN8nlohmann16json_abi_v3_11_310basic_jsonINS_3mapENS_6vectorES8_bxydS6_NSA_14adl_serializerENSD_IhNS6_IhEEEEvEEEEPNS_11__tree_nodeISI_PvEElEEEC1B8ue170006ESN_, symObjAddr: 0x58D0, symBinAddr: 0x100006640, symSize: 0x30 }
  - { offsetInCU: 0x1B60C, offset: 0x1B60C, size: 0x8, addend: 0x0, symName: __ZNKSt3__120__map_const_iteratorINS_21__tree_const_iteratorINS_12__value_typeINS_12basic_stringIcNS_11char_traitsIcEENS_9allocatorIcEEEEN8nlohmann16json_abi_v3_11_310basic_jsonINS_3mapENS_6vectorES8_bxydS6_NSA_14adl_serializerENSD_IhNS6_IhEEEEvEEEEPNS_11__tree_nodeISI_PvEElEEEdeB8ue170006Ev, symObjAddr: 0x5900, symBinAddr: 0x100006670, symSize: 0x30 }
  - { offsetInCU: 0x1B632, offset: 0x1B632, size: 0x8, addend: 0x0, symName: __ZNSt3__120__map_const_iteratorINS_21__tree_const_iteratorINS_12__value_typeINS_12basic_stringIcNS_11char_traitsIcEENS_9allocatorIcEEEEN8nlohmann16json_abi_v3_11_310basic_jsonINS_3mapENS_6vectorES8_bxydS6_NSA_14adl_serializerENSD_IhNS6_IhEEEEvEEEEPNS_11__tree_nodeISI_PvEElEEEppB8ue170006Ev, symObjAddr: 0x5930, symBinAddr: 0x1000066A0, symSize: 0x30 }
  - { offsetInCU: 0x1B658, offset: 0x1B658, size: 0x8, addend: 0x0, symName: __ZNSt3__16__treeINS_12__value_typeINS_12basic_stringIcNS_11char_traitsIcEENS_9allocatorIcEEEEN8nlohmann16json_abi_v3_11_310basic_jsonINS_3mapENS_6vectorES7_bxydS5_NS9_14adl_serializerENSC_IhNS5_IhEEEEvEEEENS_19__map_value_compareIS7_SH_NS_4lessIvEELb1EEENS5_ISH_EEE15__insert_uniqueB8ue170006ENS_21__tree_const_iteratorISH_PNS_11__tree_nodeISH_PvEElEERKNS_4pairIKS7_SG_EE, symObjAddr: 0x59C0, symBinAddr: 0x100006730, symSize: 0x60 }
  - { offsetInCU: 0x1B69C, offset: 0x1B69C, size: 0x8, addend: 0x0, symName: __ZNSt3__16__treeINS_12__value_typeINS_12basic_stringIcNS_11char_traitsIcEENS_9allocatorIcEEEEN8nlohmann16json_abi_v3_11_310basic_jsonINS_3mapENS_6vectorES7_bxydS5_NS9_14adl_serializerENSC_IhNS5_IhEEEEvEEEENS_19__map_value_compareIS7_SH_NS_4lessIvEELb1EEENS5_ISH_EEE30__emplace_hint_unique_key_argsIS7_JRKNS_4pairIKS7_SG_EEEEENSP_INS_15__tree_iteratorISH_PNS_11__tree_nodeISH_PvEElEEbEENS_21__tree_const_iteratorISH_SY_lEERKT_DpOT0_, symObjAddr: 0x5A20, symBinAddr: 0x100006790, symSize: 0x110 }
  - { offsetInCU: 0x1B771, offset: 0x1B771, size: 0x8, addend: 0x0, symName: __ZNSt3__122__tree_key_value_typesINS_12__value_typeINS_12basic_stringIcNS_11char_traitsIcEENS_9allocatorIcEEEEN8nlohmann16json_abi_v3_11_310basic_jsonINS_3mapENS_6vectorES7_bxydS5_NS9_14adl_serializerENSC_IhNS5_IhEEEEvEEEEE9__get_keyB8ue170006IKNS_4pairIKS7_SG_EEEENS_9enable_ifIXsr17__is_same_uncvrefIT_SM_EE5valueERSL_E4typeERSP_, symObjAddr: 0x5B30, symBinAddr: 0x1000068A0, symSize: 0x10 }
  - { offsetInCU: 0x1B79E, offset: 0x1B79E, size: 0x8, addend: 0x0, symName: __ZNSt3__16__treeINS_12__value_typeINS_12basic_stringIcNS_11char_traitsIcEENS_9allocatorIcEEEEN8nlohmann16json_abi_v3_11_310basic_jsonINS_3mapENS_6vectorES7_bxydS5_NS9_14adl_serializerENSC_IhNS5_IhEEEEvEEEENS_19__map_value_compareIS7_SH_NS_4lessIvEELb1EEENS5_ISH_EEE12__find_equalIS7_EERPNS_16__tree_node_baseIPvEENS_21__tree_const_iteratorISH_PNS_11__tree_nodeISH_SQ_EElEERPNS_15__tree_end_nodeISS_EEST_RKT_, symObjAddr: 0x5B40, symBinAddr: 0x1000068B0, symSize: 0x330 }
  - { offsetInCU: 0x1B847, offset: 0x1B847, size: 0x8, addend: 0x0, symName: __ZNSt3__16__treeINS_12__value_typeINS_12basic_stringIcNS_11char_traitsIcEENS_9allocatorIcEEEEN8nlohmann16json_abi_v3_11_310basic_jsonINS_3mapENS_6vectorES7_bxydS5_NS9_14adl_serializerENSC_IhNS5_IhEEEEvEEEENS_19__map_value_compareIS7_SH_NS_4lessIvEELb1EEENS5_ISH_EEE16__construct_nodeIJRKNS_4pairIKS7_SG_EEEEENS_10unique_ptrINS_11__tree_nodeISH_PvEENS_22__tree_node_destructorINS5_ISX_EEEEEEDpOT_, symObjAddr: 0x5E70, symBinAddr: 0x100006BE0, symSize: 0xF0 }
  - { offsetInCU: 0x1B8A8, offset: 0x1B8A8, size: 0x8, addend: 0x0, symName: __ZNSt3__16__treeINS_12__value_typeINS_12basic_stringIcNS_11char_traitsIcEENS_9allocatorIcEEEEN8nlohmann16json_abi_v3_11_310basic_jsonINS_3mapENS_6vectorES7_bxydS5_NS9_14adl_serializerENSC_IhNS5_IhEEEEvEEEENS_19__map_value_compareIS7_SH_NS_4lessIvEELb1EEENS5_ISH_EEE16__insert_node_atEPNS_15__tree_end_nodeIPNS_16__tree_node_baseIPvEEEERSS_SS_, symObjAddr: 0x5F60, symBinAddr: 0x100006CD0, symSize: 0xC0 }
  - { offsetInCU: 0x1B8FD, offset: 0x1B8FD, size: 0x8, addend: 0x0, symName: __ZNKSt3__110unique_ptrINS_11__tree_nodeINS_12__value_typeINS_12basic_stringIcNS_11char_traitsIcEENS_9allocatorIcEEEEN8nlohmann16json_abi_v3_11_310basic_jsonINS_3mapENS_6vectorES8_bxydS6_NSA_14adl_serializerENSD_IhNS6_IhEEEEvEEEEPvEENS_22__tree_node_destructorINS6_ISK_EEEEE3getB8ue170006Ev, symObjAddr: 0x6020, symBinAddr: 0x100006D90, symSize: 0x20 }
  - { offsetInCU: 0x1B923, offset: 0x1B923, size: 0x8, addend: 0x0, symName: __ZNSt3__110unique_ptrINS_11__tree_nodeINS_12__value_typeINS_12basic_stringIcNS_11char_traitsIcEENS_9allocatorIcEEEEN8nlohmann16json_abi_v3_11_310basic_jsonINS_3mapENS_6vectorES8_bxydS6_NSA_14adl_serializerENSD_IhNS6_IhEEEEvEEEEPvEENS_22__tree_node_destructorINS6_ISK_EEEEE7releaseB8ue170006Ev, symObjAddr: 0x6040, symBinAddr: 0x100006DB0, symSize: 0x40 }
  - { offsetInCU: 0x1B958, offset: 0x1B958, size: 0x8, addend: 0x0, symName: __ZNSt3__110unique_ptrINS_11__tree_nodeINS_12__value_typeINS_12basic_stringIcNS_11char_traitsIcEENS_9allocatorIcEEEEN8nlohmann16json_abi_v3_11_310basic_jsonINS_3mapENS_6vectorES8_bxydS6_NSA_14adl_serializerENSD_IhNS6_IhEEEEvEEEEPvEENS_22__tree_node_destructorINS6_ISK_EEEEED1B8ue170006Ev, symObjAddr: 0x6080, symBinAddr: 0x100006DF0, symSize: 0x20 }
  - { offsetInCU: 0x1B982, offset: 0x1B982, size: 0x8, addend: 0x0, symName: __ZNSt3__115__tree_iteratorINS_12__value_typeINS_12basic_stringIcNS_11char_traitsIcEENS_9allocatorIcEEEEN8nlohmann16json_abi_v3_11_310basic_jsonINS_3mapENS_6vectorES7_bxydS5_NS9_14adl_serializerENSC_IhNS5_IhEEEEvEEEEPNS_11__tree_nodeISH_PvEElEC1B8ue170006ESL_, symObjAddr: 0x60A0, symBinAddr: 0x100006E10, symSize: 0x30 }
  - { offsetInCU: 0x1B9C7, offset: 0x1B9C7, size: 0x8, addend: 0x0, symName: __ZNSt3__14pairINS_15__tree_iteratorINS_12__value_typeINS_12basic_stringIcNS_11char_traitsIcEENS_9allocatorIcEEEEN8nlohmann16json_abi_v3_11_310basic_jsonINS_3mapENS_6vectorES8_bxydS6_NSA_14adl_serializerENSD_IhNS6_IhEEEEvEEEEPNS_11__tree_nodeISI_PvEElEEbEC1B8ue170006ISN_RbLSK_0EEEOT_OT0_, symObjAddr: 0x60D0, symBinAddr: 0x100006E40, symSize: 0x30 }
  - { offsetInCU: 0x1BA25, offset: 0x1BA25, size: 0x8, addend: 0x0, symName: __ZNSt3__121__tree_const_iteratorINS_12__value_typeINS_12basic_stringIcNS_11char_traitsIcEENS_9allocatorIcEEEEN8nlohmann16json_abi_v3_11_310basic_jsonINS_3mapENS_6vectorES7_bxydS5_NS9_14adl_serializerENSC_IhNS5_IhEEEEvEEEEPNS_11__tree_nodeISH_PvEElEC1B8ue170006ENS_15__tree_iteratorISH_SL_lEE, symObjAddr: 0x6100, symBinAddr: 0x100006E70, symSize: 0x30 }
  - { offsetInCU: 0x1BA5E, offset: 0x1BA5E, size: 0x8, addend: 0x0, symName: __ZNSt3__16__treeINS_12__value_typeINS_12basic_stringIcNS_11char_traitsIcEENS_9allocatorIcEEEEN8nlohmann16json_abi_v3_11_310basic_jsonINS_3mapENS_6vectorES7_bxydS5_NS9_14adl_serializerENSC_IhNS5_IhEEEEvEEEENS_19__map_value_compareIS7_SH_NS_4lessIvEELb1EEENS5_ISH_EEE10value_compB8ue170006Ev, symObjAddr: 0x6130, symBinAddr: 0x100006EA0, symSize: 0x20 }
  - { offsetInCU: 0x1BA84, offset: 0x1BA84, size: 0x8, addend: 0x0, symName: __ZNKSt3__119__map_value_compareINS_12basic_stringIcNS_11char_traitsIcEENS_9allocatorIcEEEENS_12__value_typeIS6_N8nlohmann16json_abi_v3_11_310basic_jsonINS_3mapENS_6vectorES6_bxydS4_NS9_14adl_serializerENSC_IhNS4_IhEEEEvEEEENS_4lessIvEELb1EEclB8ue170006ERKS6_RKSH_, symObjAddr: 0x6150, symBinAddr: 0x100006EC0, symSize: 0x50 }
  - { offsetInCU: 0x1BAC8, offset: 0x1BAC8, size: 0x8, addend: 0x0, symName: __ZNKSt3__121__tree_const_iteratorINS_12__value_typeINS_12basic_stringIcNS_11char_traitsIcEENS_9allocatorIcEEEEN8nlohmann16json_abi_v3_11_310basic_jsonINS_3mapENS_6vectorES7_bxydS5_NS9_14adl_serializerENSC_IhNS5_IhEEEEvEEEEPNS_11__tree_nodeISH_PvEElEdeB8ue170006Ev, symObjAddr: 0x61A0, symBinAddr: 0x100006F10, symSize: 0x20 }
  - { offsetInCU: 0x1BAEE, offset: 0x1BAEE, size: 0x8, addend: 0x0, symName: __ZNKSt3__119__map_value_compareINS_12basic_stringIcNS_11char_traitsIcEENS_9allocatorIcEEEENS_12__value_typeIS6_N8nlohmann16json_abi_v3_11_310basic_jsonINS_3mapENS_6vectorES6_bxydS4_NS9_14adl_serializerENSC_IhNS4_IhEEEEvEEEENS_4lessIvEELb1EEclB8ue170006ERKSH_RKS6_, symObjAddr: 0x61C0, symBinAddr: 0x100006F30, symSize: 0x40 }
  - { offsetInCU: 0x1BB32, offset: 0x1BB32, size: 0x8, addend: 0x0, symName: __ZNSt3__121__tree_const_iteratorINS_12__value_typeINS_12basic_stringIcNS_11char_traitsIcEENS_9allocatorIcEEEEN8nlohmann16json_abi_v3_11_310basic_jsonINS_3mapENS_6vectorES7_bxydS5_NS9_14adl_serializerENSC_IhNS5_IhEEEEvEEEEPNS_11__tree_nodeISH_PvEElEmmB8ue170006Ev, symObjAddr: 0x6200, symBinAddr: 0x100006F70, symSize: 0x30 }
  - { offsetInCU: 0x1BB58, offset: 0x1BB58, size: 0x8, addend: 0x0, symName: __ZNSt3__16__treeINS_12__value_typeINS_12basic_stringIcNS_11char_traitsIcEENS_9allocatorIcEEEEN8nlohmann16json_abi_v3_11_310basic_jsonINS_3mapENS_6vectorES7_bxydS5_NS9_14adl_serializerENSC_IhNS5_IhEEEEvEEEENS_19__map_value_compareIS7_SH_NS_4lessIvEELb1EEENS5_ISH_EEE12__find_equalIS7_EERPNS_16__tree_node_baseIPvEERPNS_15__tree_end_nodeISS_EERKT_, symObjAddr: 0x6230, symBinAddr: 0x100006FA0, symSize: 0x180 }
  - { offsetInCU: 0x1BBC5, offset: 0x1BBC5, size: 0x8, addend: 0x0, symName: __ZNKSt3__121__tree_const_iteratorINS_12__value_typeINS_12basic_stringIcNS_11char_traitsIcEENS_9allocatorIcEEEEN8nlohmann16json_abi_v3_11_310basic_jsonINS_3mapENS_6vectorES7_bxydS5_NS9_14adl_serializerENSC_IhNS5_IhEEEEvEEEEPNS_11__tree_nodeISH_PvEElE8__get_npB8ue170006Ev, symObjAddr: 0x63E0, symBinAddr: 0x100007150, symSize: 0x20 }
  - { offsetInCU: 0x1BBEB, offset: 0x1BBEB, size: 0x8, addend: 0x0, symName: __ZNSt3__121__tree_const_iteratorINS_12__value_typeINS_12basic_stringIcNS_11char_traitsIcEENS_9allocatorIcEEEEN8nlohmann16json_abi_v3_11_310basic_jsonINS_3mapENS_6vectorES7_bxydS5_NS9_14adl_serializerENSC_IhNS5_IhEEEEvEEEEPNS_11__tree_nodeISH_PvEElEC2B8ue170006ENS_15__tree_iteratorISH_SL_lEE, symObjAddr: 0x6400, symBinAddr: 0x100007170, symSize: 0x20 }
  - { offsetInCU: 0x1BC24, offset: 0x1BC24, size: 0x8, addend: 0x0, symName: __ZNSt3__117__compressed_pairImNS_19__map_value_compareINS_12basic_stringIcNS_11char_traitsIcEENS_9allocatorIcEEEENS_12__value_typeIS7_N8nlohmann16json_abi_v3_11_310basic_jsonINS_3mapENS_6vectorES7_bxydS5_NSA_14adl_serializerENSD_IhNS5_IhEEEEvEEEENS_4lessIvEELb1EEEE6secondB8ue170006Ev, symObjAddr: 0x6420, symBinAddr: 0x100007190, symSize: 0x20 }
  - { offsetInCU: 0x1BC4A, offset: 0x1BC4A, size: 0x8, addend: 0x0, symName: __ZNSt3__122__compressed_pair_elemINS_19__map_value_compareINS_12basic_stringIcNS_11char_traitsIcEENS_9allocatorIcEEEENS_12__value_typeIS7_N8nlohmann16json_abi_v3_11_310basic_jsonINS_3mapENS_6vectorES7_bxydS5_NSA_14adl_serializerENSD_IhNS5_IhEEEEvEEEENS_4lessIvEELb1EEELi1ELb1EE5__getB8ue170006Ev, symObjAddr: 0x6440, symBinAddr: 0x1000071B0, symSize: 0x10 }
  - { offsetInCU: 0x1BC76, offset: 0x1BC76, size: 0x8, addend: 0x0, symName: __ZNKSt3__14lessIvEclB8ue170006IRKNS_12basic_stringIcNS_11char_traitsIcEENS_9allocatorIcEEEESA_EEDTltclsr3stdE7forwardIT_Efp_Eclsr3stdE7forwardIT0_Efp0_EEOSB_OSC_, symObjAddr: 0x6450, symBinAddr: 0x1000071C0, symSize: 0x30 }
  - { offsetInCU: 0x1BCCC, offset: 0x1BCCC, size: 0x8, addend: 0x0, symName: __ZNKSt3__112__value_typeINS_12basic_stringIcNS_11char_traitsIcEENS_9allocatorIcEEEEN8nlohmann16json_abi_v3_11_310basic_jsonINS_3mapENS_6vectorES6_bxydS4_NS8_14adl_serializerENSB_IhNS4_IhEEEEvEEE11__get_valueB8ue170006Ev, symObjAddr: 0x6480, symBinAddr: 0x1000071F0, symSize: 0x20 }
  - { offsetInCU: 0x1BCF2, offset: 0x1BCF2, size: 0x8, addend: 0x0, symName: __ZNKSt3__112basic_stringIcNS_11char_traitsIcEENS_9allocatorIcEEE7compareB8ue170006ERKS5_, symObjAddr: 0x64D0, symBinAddr: 0x100007240, symSize: 0x40 }
  - { offsetInCU: 0x1BD29, offset: 0x1BD29, size: 0x8, addend: 0x0, symName: __ZNKSt3__112basic_stringIcNS_11char_traitsIcEENS_9allocatorIcEEE7compareINS_17basic_string_viewIcS2_EELi0EEEiRKT_, symObjAddr: 0x6510, symBinAddr: 0x100007280, symSize: 0xF0 }
  - { offsetInCU: 0x1BDAC, offset: 0x1BDAC, size: 0x8, addend: 0x0, symName: __ZNKSt3__112basic_stringIcNS_11char_traitsIcEENS_9allocatorIcEEEcvNS_17basic_string_viewIcS2_EEB8ue170006Ev, symObjAddr: 0x6600, symBinAddr: 0x100007370, symSize: 0x50 }
  - { offsetInCU: 0x1BDD2, offset: 0x1BDD2, size: 0x8, addend: 0x0, symName: __ZNKSt3__112basic_stringIcNS_11char_traitsIcEENS_9allocatorIcEEE4sizeB8ue170006Ev, symObjAddr: 0x6650, symBinAddr: 0x1000073C0, symSize: 0x50 }
  - { offsetInCU: 0x1BDF8, offset: 0x1BDF8, size: 0x8, addend: 0x0, symName: __ZNKSt3__117basic_string_viewIcNS_11char_traitsIcEEE4sizeB8ue170006Ev, symObjAddr: 0x66A0, symBinAddr: 0x100007410, symSize: 0x20 }
  - { offsetInCU: 0x1BE1E, offset: 0x1BE1E, size: 0x8, addend: 0x0, symName: __ZNSt3__111char_traitsIcE7compareB8ue170006EPKcS3_m, symObjAddr: 0x66C0, symBinAddr: 0x100007430, symSize: 0x30 }
  - { offsetInCU: 0x1BE5D, offset: 0x1BE5D, size: 0x8, addend: 0x0, symName: __ZNKSt3__112basic_stringIcNS_11char_traitsIcEENS_9allocatorIcEEE4dataB8ue170006Ev, symObjAddr: 0x66F0, symBinAddr: 0x100007460, symSize: 0x30 }
  - { offsetInCU: 0x1BE83, offset: 0x1BE83, size: 0x8, addend: 0x0, symName: __ZNKSt3__117basic_string_viewIcNS_11char_traitsIcEEE4dataB8ue170006Ev, symObjAddr: 0x6720, symBinAddr: 0x100007490, symSize: 0x20 }
  - { offsetInCU: 0x1BEA9, offset: 0x1BEA9, size: 0x8, addend: 0x0, symName: __ZNKSt3__112basic_stringIcNS_11char_traitsIcEENS_9allocatorIcEEE9__is_longB8ue170006Ev, symObjAddr: 0x6740, symBinAddr: 0x1000074B0, symSize: 0x30 }
  - { offsetInCU: 0x1BECF, offset: 0x1BECF, size: 0x8, addend: 0x0, symName: __ZNKSt3__112basic_stringIcNS_11char_traitsIcEENS_9allocatorIcEEE15__get_long_sizeB8ue170006Ev, symObjAddr: 0x6770, symBinAddr: 0x1000074E0, symSize: 0x20 }
  - { offsetInCU: 0x1BEF5, offset: 0x1BEF5, size: 0x8, addend: 0x0, symName: __ZNKSt3__112basic_stringIcNS_11char_traitsIcEENS_9allocatorIcEEE16__get_short_sizeB8ue170006Ev, symObjAddr: 0x6790, symBinAddr: 0x100007500, symSize: 0x30 }
  - { offsetInCU: 0x1BF1B, offset: 0x1BF1B, size: 0x8, addend: 0x0, symName: __ZNKSt3__117__compressed_pairINS_12basic_stringIcNS_11char_traitsIcEENS_9allocatorIcEEE5__repES5_E5firstB8ue170006Ev, symObjAddr: 0x67C0, symBinAddr: 0x100007530, symSize: 0x20 }
  - { offsetInCU: 0x1BF41, offset: 0x1BF41, size: 0x8, addend: 0x0, symName: __ZNKSt3__122__compressed_pair_elemINS_12basic_stringIcNS_11char_traitsIcEENS_9allocatorIcEEE5__repELi0ELb0EE5__getB8ue170006Ev, symObjAddr: 0x67E0, symBinAddr: 0x100007550, symSize: 0x10 }
  - { offsetInCU: 0x1BF67, offset: 0x1BF67, size: 0x8, addend: 0x0, symName: __ZNKSt3__112basic_stringIcNS_11char_traitsIcEENS_9allocatorIcEEE13__get_pointerB8ue170006Ev, symObjAddr: 0x6800, symBinAddr: 0x100007570, symSize: 0x50 }
  - { offsetInCU: 0x1BF8D, offset: 0x1BF8D, size: 0x8, addend: 0x0, symName: __ZNKSt3__112basic_stringIcNS_11char_traitsIcEENS_9allocatorIcEEE18__get_long_pointerB8ue170006Ev, symObjAddr: 0x6850, symBinAddr: 0x1000075C0, symSize: 0x20 }
  - { offsetInCU: 0x1BFB3, offset: 0x1BFB3, size: 0x8, addend: 0x0, symName: __ZNKSt3__112basic_stringIcNS_11char_traitsIcEENS_9allocatorIcEEE19__get_short_pointerB8ue170006Ev, symObjAddr: 0x6870, symBinAddr: 0x1000075E0, symSize: 0x30 }
  - { offsetInCU: 0x1BFD9, offset: 0x1BFD9, size: 0x8, addend: 0x0, symName: __ZNSt3__114pointer_traitsIPKcE10pointer_toB8ue170006ERS1_, symObjAddr: 0x68A0, symBinAddr: 0x100007610, symSize: 0x10 }
  - { offsetInCU: 0x1BFFC, offset: 0x1BFFC, size: 0x8, addend: 0x0, symName: __ZNSt3__117basic_string_viewIcNS_11char_traitsIcEEEC1B8ue170006EPKcm, symObjAddr: 0x68B0, symBinAddr: 0x100007620, symSize: 0x30 }
  - { offsetInCU: 0x1C044, offset: 0x1C044, size: 0x8, addend: 0x0, symName: __ZNSt3__117basic_string_viewIcNS_11char_traitsIcEEEC2B8ue170006EPKcm, symObjAddr: 0x68E0, symBinAddr: 0x100007650, symSize: 0x30 }
  - { offsetInCU: 0x1C08C, offset: 0x1C08C, size: 0x8, addend: 0x0, symName: __ZNKSt3__16__treeINS_12__value_typeINS_12basic_stringIcNS_11char_traitsIcEENS_9allocatorIcEEEEN8nlohmann16json_abi_v3_11_310basic_jsonINS_3mapENS_6vectorES7_bxydS5_NS9_14adl_serializerENSC_IhNS5_IhEEEEvEEEENS_19__map_value_compareIS7_SH_NS_4lessIvEELb1EEENS5_ISH_EEE10__root_ptrB8ue170006Ev, symObjAddr: 0x69F0, symBinAddr: 0x100007760, symSize: 0x20 }
  - { offsetInCU: 0x1C0B2, offset: 0x1C0B2, size: 0x8, addend: 0x0, symName: __ZNSt3__121__tree_const_iteratorINS_12__value_typeINS_12basic_stringIcNS_11char_traitsIcEENS_9allocatorIcEEEEN8nlohmann16json_abi_v3_11_310basic_jsonINS_3mapENS_6vectorES7_bxydS5_NS9_14adl_serializerENSC_IhNS5_IhEEEEvEEEEPNS_11__tree_nodeISH_PvEElEppB8ue170006Ev, symObjAddr: 0x6AD0, symBinAddr: 0x100007840, symSize: 0x30 }
  - { offsetInCU: 0x1C0D8, offset: 0x1C0D8, size: 0x8, addend: 0x0, symName: __ZNSt3__116allocator_traitsINS_9allocatorINS_11__tree_nodeINS_12__value_typeINS_12basic_stringIcNS_11char_traitsIcEENS1_IcEEEEN8nlohmann16json_abi_v3_11_310basic_jsonINS_3mapENS_6vectorES8_bxydS1_NSA_14adl_serializerENSD_IhNS1_IhEEEEvEEEEPvEEEEE8allocateB8ue170006ERSL_m, symObjAddr: 0x6B00, symBinAddr: 0x100007870, symSize: 0x30 }
  - { offsetInCU: 0x1C10B, offset: 0x1C10B, size: 0x8, addend: 0x0, symName: __ZNSt3__122__tree_node_destructorINS_9allocatorINS_11__tree_nodeINS_12__value_typeINS_12basic_stringIcNS_11char_traitsIcEENS1_IcEEEEN8nlohmann16json_abi_v3_11_310basic_jsonINS_3mapENS_6vectorES8_bxydS1_NSA_14adl_serializerENSD_IhNS1_IhEEEEvEEEEPvEEEEEC1B8ue170006ERSL_b, symObjAddr: 0x6B30, symBinAddr: 0x1000078A0, symSize: 0x40 }
  - { offsetInCU: 0x1C159, offset: 0x1C159, size: 0x8, addend: 0x0, symName: __ZNSt3__110unique_ptrINS_11__tree_nodeINS_12__value_typeINS_12basic_stringIcNS_11char_traitsIcEENS_9allocatorIcEEEEN8nlohmann16json_abi_v3_11_310basic_jsonINS_3mapENS_6vectorES8_bxydS6_NSA_14adl_serializerENSD_IhNS6_IhEEEEvEEEEPvEENS_22__tree_node_destructorINS6_ISK_EEEEEC1B8ue170006ILb1EvEEPSK_NS_16__dependent_typeINS_27__unique_ptr_deleter_sfinaeISN_EEXT_EE20__good_rval_ref_typeE, symObjAddr: 0x6B70, symBinAddr: 0x1000078E0, symSize: 0x30 }
  - { offsetInCU: 0x1C1AA, offset: 0x1C1AA, size: 0x8, addend: 0x0, symName: __ZNSt3__116allocator_traitsINS_9allocatorINS_11__tree_nodeINS_12__value_typeINS_12basic_stringIcNS_11char_traitsIcEENS1_IcEEEEN8nlohmann16json_abi_v3_11_310basic_jsonINS_3mapENS_6vectorES8_bxydS1_NSA_14adl_serializerENSD_IhNS1_IhEEEEvEEEEPvEEEEE9constructB8ue170006INS_4pairIKS8_SH_EEJRKSQ_EvEEvRSL_PT_DpOT0_, symObjAddr: 0x6BA0, symBinAddr: 0x100007910, symSize: 0x30 }
  - { offsetInCU: 0x1C201, offset: 0x1C201, size: 0x8, addend: 0x0, symName: __ZNKSt3__110unique_ptrINS_11__tree_nodeINS_12__value_typeINS_12basic_stringIcNS_11char_traitsIcEENS_9allocatorIcEEEEN8nlohmann16json_abi_v3_11_310basic_jsonINS_3mapENS_6vectorES8_bxydS6_NSA_14adl_serializerENSD_IhNS6_IhEEEEvEEEEPvEENS_22__tree_node_destructorINS6_ISK_EEEEEptB8ue170006Ev, symObjAddr: 0x6BD0, symBinAddr: 0x100007940, symSize: 0x20 }
  - { offsetInCU: 0x1C227, offset: 0x1C227, size: 0x8, addend: 0x0, symName: __ZNSt3__110unique_ptrINS_11__tree_nodeINS_12__value_typeINS_12basic_stringIcNS_11char_traitsIcEENS_9allocatorIcEEEEN8nlohmann16json_abi_v3_11_310basic_jsonINS_3mapENS_6vectorES8_bxydS6_NSA_14adl_serializerENSD_IhNS6_IhEEEEvEEEEPvEENS_22__tree_node_destructorINS6_ISK_EEEEE11get_deleterB8ue170006Ev, symObjAddr: 0x6BF0, symBinAddr: 0x100007960, symSize: 0x20 }
  - { offsetInCU: 0x1C24D, offset: 0x1C24D, size: 0x8, addend: 0x0, symName: __ZNSt3__19allocatorINS_11__tree_nodeINS_12__value_typeINS_12basic_stringIcNS_11char_traitsIcEENS0_IcEEEEN8nlohmann16json_abi_v3_11_310basic_jsonINS_3mapENS_6vectorES7_bxydS0_NS9_14adl_serializerENSC_IhNS0_IhEEEEvEEEEPvEEE8allocateB8ue170006Em, symObjAddr: 0x6C10, symBinAddr: 0x100007980, symSize: 0x50 }
  - { offsetInCU: 0x1C281, offset: 0x1C281, size: 0x8, addend: 0x0, symName: __ZNSt3__116allocator_traitsINS_9allocatorINS_11__tree_nodeINS_12__value_typeINS_12basic_stringIcNS_11char_traitsIcEENS1_IcEEEEN8nlohmann16json_abi_v3_11_310basic_jsonINS_3mapENS_6vectorES8_bxydS1_NSA_14adl_serializerENSD_IhNS1_IhEEEEvEEEEPvEEEEE8max_sizeB8ue170006ISL_vEEmRKSL_, symObjAddr: 0x6C60, symBinAddr: 0x1000079D0, symSize: 0x20 }
  - { offsetInCU: 0x1C2AF, offset: 0x1C2AF, size: 0x8, addend: 0x0, symName: __ZNKSt3__19allocatorINS_11__tree_nodeINS_12__value_typeINS_12basic_stringIcNS_11char_traitsIcEENS0_IcEEEEN8nlohmann16json_abi_v3_11_310basic_jsonINS_3mapENS_6vectorES7_bxydS0_NS9_14adl_serializerENSC_IhNS0_IhEEEEvEEEEPvEEE8max_sizeB8ue170006Ev, symObjAddr: 0x6C80, symBinAddr: 0x1000079F0, symSize: 0x20 }
  - { offsetInCU: 0x1C2D5, offset: 0x1C2D5, size: 0x8, addend: 0x0, symName: __ZNSt3__122__tree_node_destructorINS_9allocatorINS_11__tree_nodeINS_12__value_typeINS_12basic_stringIcNS_11char_traitsIcEENS1_IcEEEEN8nlohmann16json_abi_v3_11_310basic_jsonINS_3mapENS_6vectorES8_bxydS1_NSA_14adl_serializerENSD_IhNS1_IhEEEEvEEEEPvEEEEEC2B8ue170006ERSL_b, symObjAddr: 0x6CA0, symBinAddr: 0x100007A10, symSize: 0x30 }
  - { offsetInCU: 0x1C31D, offset: 0x1C31D, size: 0x8, addend: 0x0, symName: __ZNSt3__110unique_ptrINS_11__tree_nodeINS_12__value_typeINS_12basic_stringIcNS_11char_traitsIcEENS_9allocatorIcEEEEN8nlohmann16json_abi_v3_11_310basic_jsonINS_3mapENS_6vectorES8_bxydS6_NSA_14adl_serializerENSD_IhNS6_IhEEEEvEEEEPvEENS_22__tree_node_destructorINS6_ISK_EEEEEC2B8ue170006ILb1EvEEPSK_NS_16__dependent_typeINS_27__unique_ptr_deleter_sfinaeISN_EEXT_EE20__good_rval_ref_typeE, symObjAddr: 0x6CD0, symBinAddr: 0x100007A40, symSize: 0x40 }
  - { offsetInCU: 0x1C36E, offset: 0x1C36E, size: 0x8, addend: 0x0, symName: __ZNSt3__117__compressed_pairIPNS_11__tree_nodeINS_12__value_typeINS_12basic_stringIcNS_11char_traitsIcEENS_9allocatorIcEEEEN8nlohmann16json_abi_v3_11_310basic_jsonINS_3mapENS_6vectorES8_bxydS6_NSA_14adl_serializerENSD_IhNS6_IhEEEEvEEEEPvEENS_22__tree_node_destructorINS6_ISK_EEEEEC1B8ue170006IRSL_SO_EEOT_OT0_, symObjAddr: 0x6D10, symBinAddr: 0x100007A80, symSize: 0x30 }
  - { offsetInCU: 0x1C3C6, offset: 0x1C3C6, size: 0x8, addend: 0x0, symName: __ZNSt3__117__compressed_pairIPNS_11__tree_nodeINS_12__value_typeINS_12basic_stringIcNS_11char_traitsIcEENS_9allocatorIcEEEEN8nlohmann16json_abi_v3_11_310basic_jsonINS_3mapENS_6vectorES8_bxydS6_NSA_14adl_serializerENSD_IhNS6_IhEEEEvEEEEPvEENS_22__tree_node_destructorINS6_ISK_EEEEEC2B8ue170006IRSL_SO_EEOT_OT0_, symObjAddr: 0x6D40, symBinAddr: 0x100007AB0, symSize: 0x40 }
  - { offsetInCU: 0x1C41E, offset: 0x1C41E, size: 0x8, addend: 0x0, symName: __ZNSt3__122__compressed_pair_elemIPNS_11__tree_nodeINS_12__value_typeINS_12basic_stringIcNS_11char_traitsIcEENS_9allocatorIcEEEEN8nlohmann16json_abi_v3_11_310basic_jsonINS_3mapENS_6vectorES8_bxydS6_NSA_14adl_serializerENSD_IhNS6_IhEEEEvEEEEPvEELi0ELb0EEC2B8ue170006IRSL_vEEOT_, symObjAddr: 0x6D80, symBinAddr: 0x100007AF0, symSize: 0x20 }
  - { offsetInCU: 0x1C460, offset: 0x1C460, size: 0x8, addend: 0x0, symName: __ZNSt3__122__compressed_pair_elemINS_22__tree_node_destructorINS_9allocatorINS_11__tree_nodeINS_12__value_typeINS_12basic_stringIcNS_11char_traitsIcEENS2_IcEEEEN8nlohmann16json_abi_v3_11_310basic_jsonINS_3mapENS_6vectorES9_bxydS2_NSB_14adl_serializerENSE_IhNS2_IhEEEEvEEEEPvEEEEEELi1ELb0EEC2B8ue170006ISN_vEEOT_, symObjAddr: 0x6DA0, symBinAddr: 0x100007B10, symSize: 0x30 }
  - { offsetInCU: 0x1C4A2, offset: 0x1C4A2, size: 0x8, addend: 0x0, symName: __ZNSt3__19allocatorINS_11__tree_nodeINS_12__value_typeINS_12basic_stringIcNS_11char_traitsIcEENS0_IcEEEEN8nlohmann16json_abi_v3_11_310basic_jsonINS_3mapENS_6vectorES7_bxydS0_NS9_14adl_serializerENSC_IhNS0_IhEEEEvEEEEPvEEE9constructB8ue170006INS_4pairIKS7_SG_EEJRKSO_EEEvPT_DpOT0_, symObjAddr: 0x6DD0, symBinAddr: 0x100007B40, symSize: 0x30 }
  - { offsetInCU: 0x1C4F8, offset: 0x1C4F8, size: 0x8, addend: 0x0, symName: __ZNSt3__14pairIKNS_12basic_stringIcNS_11char_traitsIcEENS_9allocatorIcEEEEN8nlohmann16json_abi_v3_11_310basic_jsonINS_3mapENS_6vectorES6_bxydS4_NS9_14adl_serializerENSC_IhNS4_IhEEEEvEEEC1B8ue170006ERKSH_, symObjAddr: 0x6E00, symBinAddr: 0x100007B70, symSize: 0x30 }
  - { offsetInCU: 0x1C52D, offset: 0x1C52D, size: 0x8, addend: 0x0, symName: __ZNSt3__14pairIKNS_12basic_stringIcNS_11char_traitsIcEENS_9allocatorIcEEEEN8nlohmann16json_abi_v3_11_310basic_jsonINS_3mapENS_6vectorES6_bxydS4_NS9_14adl_serializerENSC_IhNS4_IhEEEEvEEEC2B8ue170006ERKSH_, symObjAddr: 0x6E30, symBinAddr: 0x100007BA0, symSize: 0x60 }
  - { offsetInCU: 0x1C562, offset: 0x1C562, size: 0x8, addend: 0x0, symName: __ZNKSt3__117__compressed_pairIPNS_11__tree_nodeINS_12__value_typeINS_12basic_stringIcNS_11char_traitsIcEENS_9allocatorIcEEEEN8nlohmann16json_abi_v3_11_310basic_jsonINS_3mapENS_6vectorES8_bxydS6_NSA_14adl_serializerENSD_IhNS6_IhEEEEvEEEEPvEENS_22__tree_node_destructorINS6_ISK_EEEEE5firstB8ue170006Ev, symObjAddr: 0x6E90, symBinAddr: 0x100007C00, symSize: 0x20 }
  - { offsetInCU: 0x1C588, offset: 0x1C588, size: 0x8, addend: 0x0, symName: __ZNKSt3__122__compressed_pair_elemIPNS_11__tree_nodeINS_12__value_typeINS_12basic_stringIcNS_11char_traitsIcEENS_9allocatorIcEEEEN8nlohmann16json_abi_v3_11_310basic_jsonINS_3mapENS_6vectorES8_bxydS6_NSA_14adl_serializerENSD_IhNS6_IhEEEEvEEEEPvEELi0ELb0EE5__getB8ue170006Ev, symObjAddr: 0x6EB0, symBinAddr: 0x100007C20, symSize: 0x10 }
  - { offsetInCU: 0x1C5AE, offset: 0x1C5AE, size: 0x8, addend: 0x0, symName: __ZNSt3__117__compressed_pairIPNS_11__tree_nodeINS_12__value_typeINS_12basic_stringIcNS_11char_traitsIcEENS_9allocatorIcEEEEN8nlohmann16json_abi_v3_11_310basic_jsonINS_3mapENS_6vectorES8_bxydS6_NSA_14adl_serializerENSD_IhNS6_IhEEEEvEEEEPvEENS_22__tree_node_destructorINS6_ISK_EEEEE6secondB8ue170006Ev, symObjAddr: 0x6EC0, symBinAddr: 0x100007C30, symSize: 0x20 }
  - { offsetInCU: 0x1C5D4, offset: 0x1C5D4, size: 0x8, addend: 0x0, symName: __ZNSt3__122__compressed_pair_elemINS_22__tree_node_destructorINS_9allocatorINS_11__tree_nodeINS_12__value_typeINS_12basic_stringIcNS_11char_traitsIcEENS2_IcEEEEN8nlohmann16json_abi_v3_11_310basic_jsonINS_3mapENS_6vectorES9_bxydS2_NSB_14adl_serializerENSE_IhNS2_IhEEEEvEEEEPvEEEEEELi1ELb0EE5__getB8ue170006Ev, symObjAddr: 0x6EE0, symBinAddr: 0x100007C50, symSize: 0x10 }
  - { offsetInCU: 0x1C5FA, offset: 0x1C5FA, size: 0x8, addend: 0x0, symName: __ZNSt3__116__tree_node_baseIPvE12__set_parentB8ue170006EPS2_, symObjAddr: 0x72C0, symBinAddr: 0x100008030, symSize: 0x20 }
  - { offsetInCU: 0x1C62F, offset: 0x1C62F, size: 0x8, addend: 0x0, symName: __ZNSt3__117__compressed_pairIPNS_11__tree_nodeINS_12__value_typeINS_12basic_stringIcNS_11char_traitsIcEENS_9allocatorIcEEEEN8nlohmann16json_abi_v3_11_310basic_jsonINS_3mapENS_6vectorES8_bxydS6_NSA_14adl_serializerENSD_IhNS6_IhEEEEvEEEEPvEENS_22__tree_node_destructorINS6_ISK_EEEEE5firstB8ue170006Ev, symObjAddr: 0x72E0, symBinAddr: 0x100008050, symSize: 0x20 }
  - { offsetInCU: 0x1C655, offset: 0x1C655, size: 0x8, addend: 0x0, symName: __ZNSt3__122__compressed_pair_elemIPNS_11__tree_nodeINS_12__value_typeINS_12basic_stringIcNS_11char_traitsIcEENS_9allocatorIcEEEEN8nlohmann16json_abi_v3_11_310basic_jsonINS_3mapENS_6vectorES8_bxydS6_NSA_14adl_serializerENSD_IhNS6_IhEEEEvEEEEPvEELi0ELb0EE5__getB8ue170006Ev, symObjAddr: 0x7300, symBinAddr: 0x100008070, symSize: 0x10 }
  - { offsetInCU: 0x1C67B, offset: 0x1C67B, size: 0x8, addend: 0x0, symName: __ZNSt3__110unique_ptrINS_11__tree_nodeINS_12__value_typeINS_12basic_stringIcNS_11char_traitsIcEENS_9allocatorIcEEEEN8nlohmann16json_abi_v3_11_310basic_jsonINS_3mapENS_6vectorES8_bxydS6_NSA_14adl_serializerENSD_IhNS6_IhEEEEvEEEEPvEENS_22__tree_node_destructorINS6_ISK_EEEEED2B8ue170006Ev, symObjAddr: 0x7310, symBinAddr: 0x100008080, symSize: 0x20 }
  - { offsetInCU: 0x1C6A5, offset: 0x1C6A5, size: 0x8, addend: 0x0, symName: __ZNSt3__110unique_ptrINS_11__tree_nodeINS_12__value_typeINS_12basic_stringIcNS_11char_traitsIcEENS_9allocatorIcEEEEN8nlohmann16json_abi_v3_11_310basic_jsonINS_3mapENS_6vectorES8_bxydS6_NSA_14adl_serializerENSD_IhNS6_IhEEEEvEEEEPvEENS_22__tree_node_destructorINS6_ISK_EEEEE5resetB8ue170006EPSK_, symObjAddr: 0x7330, symBinAddr: 0x1000080A0, symSize: 0x70 }
  - { offsetInCU: 0x1C6E9, offset: 0x1C6E9, size: 0x8, addend: 0x0, symName: __ZNSt3__122__tree_node_destructorINS_9allocatorINS_11__tree_nodeINS_12__value_typeINS_12basic_stringIcNS_11char_traitsIcEENS1_IcEEEEN8nlohmann16json_abi_v3_11_310basic_jsonINS_3mapENS_6vectorES8_bxydS1_NSA_14adl_serializerENSD_IhNS1_IhEEEEvEEEEPvEEEEEclB8ue170006EPSK_, symObjAddr: 0x73A0, symBinAddr: 0x100008110, symSize: 0x70 }
  - { offsetInCU: 0x1C71E, offset: 0x1C71E, size: 0x8, addend: 0x0, symName: __ZNSt3__115__tree_iteratorINS_12__value_typeINS_12basic_stringIcNS_11char_traitsIcEENS_9allocatorIcEEEEN8nlohmann16json_abi_v3_11_310basic_jsonINS_3mapENS_6vectorES7_bxydS5_NS9_14adl_serializerENSC_IhNS5_IhEEEEvEEEEPNS_11__tree_nodeISH_PvEElEC2B8ue170006ESL_, symObjAddr: 0x7410, symBinAddr: 0x100008180, symSize: 0x20 }
  - { offsetInCU: 0x1C757, offset: 0x1C757, size: 0x8, addend: 0x0, symName: __ZNSt3__14pairINS_15__tree_iteratorINS_12__value_typeINS_12basic_stringIcNS_11char_traitsIcEENS_9allocatorIcEEEEN8nlohmann16json_abi_v3_11_310basic_jsonINS_3mapENS_6vectorES8_bxydS6_NSA_14adl_serializerENSD_IhNS6_IhEEEEvEEEEPNS_11__tree_nodeISI_PvEElEEbEC2B8ue170006ISN_RbLSK_0EEEOT_OT0_, symObjAddr: 0x7430, symBinAddr: 0x1000081A0, symSize: 0x30 }
  - { offsetInCU: 0x1C7B5, offset: 0x1C7B5, size: 0x8, addend: 0x0, symName: __ZNSt3__120__map_const_iteratorINS_21__tree_const_iteratorINS_12__value_typeINS_12basic_stringIcNS_11char_traitsIcEENS_9allocatorIcEEEEN8nlohmann16json_abi_v3_11_310basic_jsonINS_3mapENS_6vectorES8_bxydS6_NSA_14adl_serializerENSD_IhNS6_IhEEEEvEEEEPNS_11__tree_nodeISI_PvEElEEEC2B8ue170006ESN_, symObjAddr: 0x7460, symBinAddr: 0x1000081D0, symSize: 0x20 }
  - { offsetInCU: 0x1C7EE, offset: 0x1C7EE, size: 0x8, addend: 0x0, symName: __ZNKSt3__121__tree_const_iteratorINS_12__value_typeINS_12basic_stringIcNS_11char_traitsIcEENS_9allocatorIcEEEEN8nlohmann16json_abi_v3_11_310basic_jsonINS_3mapENS_6vectorES7_bxydS5_NS9_14adl_serializerENSC_IhNS5_IhEEEEvEEEEPNS_11__tree_nodeISH_PvEElEptB8ue170006Ev, symObjAddr: 0x7480, symBinAddr: 0x1000081F0, symSize: 0x30 }
  - { offsetInCU: 0x1C814, offset: 0x1C814, size: 0x8, addend: 0x0, symName: __ZNSt3__114pointer_traitsIPKNS_12__value_typeINS_12basic_stringIcNS_11char_traitsIcEENS_9allocatorIcEEEEN8nlohmann16json_abi_v3_11_310basic_jsonINS_3mapENS_6vectorES7_bxydS5_NS9_14adl_serializerENSC_IhNS5_IhEEEEvEEEEE10pointer_toB8ue170006ERSI_, symObjAddr: 0x74B0, symBinAddr: 0x100008220, symSize: 0x10 }
  - { offsetInCU: 0x1C837, offset: 0x1C837, size: 0x8, addend: 0x0, symName: __ZNKSt3__16__treeINS_12__value_typeINS_12basic_stringIcNS_11char_traitsIcEENS_9allocatorIcEEEEN8nlohmann16json_abi_v3_11_310basic_jsonINS_3mapENS_6vectorES7_bxydS5_NS9_14adl_serializerENSC_IhNS5_IhEEEEvEEEENS_19__map_value_compareIS7_SH_NS_4lessIvEELb1EEENS5_ISH_EEE5beginB8ue170006Ev, symObjAddr: 0x74C0, symBinAddr: 0x100008230, symSize: 0x30 }
  - { offsetInCU: 0x1C85D, offset: 0x1C85D, size: 0x8, addend: 0x0, symName: __ZNKSt3__16__treeINS_12__value_typeINS_12basic_stringIcNS_11char_traitsIcEENS_9allocatorIcEEEEN8nlohmann16json_abi_v3_11_310basic_jsonINS_3mapENS_6vectorES7_bxydS5_NS9_14adl_serializerENSC_IhNS5_IhEEEEvEEEENS_19__map_value_compareIS7_SH_NS_4lessIvEELb1EEENS5_ISH_EEE12__begin_nodeB8ue170006Ev, symObjAddr: 0x74F0, symBinAddr: 0x100008260, symSize: 0x10 }
  - { offsetInCU: 0x1C883, offset: 0x1C883, size: 0x8, addend: 0x0, symName: __ZNSt3__121__tree_const_iteratorINS_12__value_typeINS_12basic_stringIcNS_11char_traitsIcEENS_9allocatorIcEEEEN8nlohmann16json_abi_v3_11_310basic_jsonINS_3mapENS_6vectorES7_bxydS5_NS9_14adl_serializerENSC_IhNS5_IhEEEEvEEEEPNS_11__tree_nodeISH_PvEElEC1B8ue170006EPNS_15__tree_end_nodeIPNS_16__tree_node_baseISJ_EEEE, symObjAddr: 0x7500, symBinAddr: 0x100008270, symSize: 0x30 }
  - { offsetInCU: 0x1C8BC, offset: 0x1C8BC, size: 0x8, addend: 0x0, symName: __ZNSt3__121__tree_const_iteratorINS_12__value_typeINS_12basic_stringIcNS_11char_traitsIcEENS_9allocatorIcEEEEN8nlohmann16json_abi_v3_11_310basic_jsonINS_3mapENS_6vectorES7_bxydS5_NS9_14adl_serializerENSC_IhNS5_IhEEEEvEEEEPNS_11__tree_nodeISH_PvEElEC2B8ue170006EPNS_15__tree_end_nodeIPNS_16__tree_node_baseISJ_EEEE, symObjAddr: 0x7530, symBinAddr: 0x1000082A0, symSize: 0x20 }
  - { offsetInCU: 0x1C8F5, offset: 0x1C8F5, size: 0x8, addend: 0x0, symName: __ZNKSt3__16__treeINS_12__value_typeINS_12basic_stringIcNS_11char_traitsIcEENS_9allocatorIcEEEEN8nlohmann16json_abi_v3_11_310basic_jsonINS_3mapENS_6vectorES7_bxydS5_NS9_14adl_serializerENSC_IhNS5_IhEEEEvEEEENS_19__map_value_compareIS7_SH_NS_4lessIvEELb1EEENS5_ISH_EEE3endB8ue170006Ev, symObjAddr: 0x7550, symBinAddr: 0x1000082C0, symSize: 0x30 }
  - { offsetInCU: 0x1C91B, offset: 0x1C91B, size: 0x8, addend: 0x0, symName: __ZNKSt3__117__compressed_pairIPNS_3mapINS_12basic_stringIcNS_11char_traitsIcEENS_9allocatorIcEEEEN8nlohmann16json_abi_v3_11_310basic_jsonIS1_NS_6vectorES7_bxydS5_NS9_14adl_serializerENSB_IhNS5_IhEEEEvEENS_4lessIvEENS5_INS_4pairIKS7_SF_EEEEEEZNSF_6createISM_JRKSM_EEEPT_DpOT0_EUlSN_E_E5firstB8ue170006Ev, symObjAddr: 0x7580, symBinAddr: 0x1000082F0, symSize: 0x20 }
  - { offsetInCU: 0x1C941, offset: 0x1C941, size: 0x8, addend: 0x0, symName: __ZNKSt3__122__compressed_pair_elemIPNS_3mapINS_12basic_stringIcNS_11char_traitsIcEENS_9allocatorIcEEEEN8nlohmann16json_abi_v3_11_310basic_jsonIS1_NS_6vectorES7_bxydS5_NS9_14adl_serializerENSB_IhNS5_IhEEEEvEENS_4lessIvEENS5_INS_4pairIKS7_SF_EEEEEELi0ELb0EE5__getB8ue170006Ev, symObjAddr: 0x75A0, symBinAddr: 0x100008310, symSize: 0x10 }
  - { offsetInCU: 0x1C967, offset: 0x1C967, size: 0x8, addend: 0x0, symName: __ZNKSt3__110unique_ptrINS_3mapINS_12basic_stringIcNS_11char_traitsIcEENS_9allocatorIcEEEEN8nlohmann16json_abi_v3_11_310basic_jsonIS1_NS_6vectorES7_bxydS5_NS9_14adl_serializerENSB_IhNS5_IhEEEEvEENS_4lessIvEENS5_INS_4pairIKS7_SF_EEEEEEZNSF_6createISM_JRKSM_EEEPT_DpOT0_EUlPSM_E_EcvbB8ue170006Ev, symObjAddr: 0x75B0, symBinAddr: 0x100008320, symSize: 0x30 }
  - { offsetInCU: 0x1C98D, offset: 0x1C98D, size: 0x8, addend: 0x0, symName: __ZNSt3__117__compressed_pairIPNS_3mapINS_12basic_stringIcNS_11char_traitsIcEENS_9allocatorIcEEEEN8nlohmann16json_abi_v3_11_310basic_jsonIS1_NS_6vectorES7_bxydS5_NS9_14adl_serializerENSB_IhNS5_IhEEEEvEENS_4lessIvEENS5_INS_4pairIKS7_SF_EEEEEEZNSF_6createISM_JRKSM_EEEPT_DpOT0_EUlSN_E_E5firstB8ue170006Ev, symObjAddr: 0x75E0, symBinAddr: 0x100008350, symSize: 0x20 }
  - { offsetInCU: 0x1C9B3, offset: 0x1C9B3, size: 0x8, addend: 0x0, symName: __ZNSt3__122__compressed_pair_elemIPNS_3mapINS_12basic_stringIcNS_11char_traitsIcEENS_9allocatorIcEEEEN8nlohmann16json_abi_v3_11_310basic_jsonIS1_NS_6vectorES7_bxydS5_NS9_14adl_serializerENSB_IhNS5_IhEEEEvEENS_4lessIvEENS5_INS_4pairIKS7_SF_EEEEEELi0ELb0EE5__getB8ue170006Ev, symObjAddr: 0x7600, symBinAddr: 0x100008370, symSize: 0x10 }
  - { offsetInCU: 0x1C9D9, offset: 0x1C9D9, size: 0x8, addend: 0x0, symName: __ZNSt3__110unique_ptrINS_3mapINS_12basic_stringIcNS_11char_traitsIcEENS_9allocatorIcEEEEN8nlohmann16json_abi_v3_11_310basic_jsonIS1_NS_6vectorES7_bxydS5_NS9_14adl_serializerENSB_IhNS5_IhEEEEvEENS_4lessIvEENS5_INS_4pairIKS7_SF_EEEEEEZNSF_6createISM_JRKSM_EEEPT_DpOT0_EUlPSM_E_ED2B8ue170006Ev, symObjAddr: 0x7610, symBinAddr: 0x100008380, symSize: 0x20 }
  - { offsetInCU: 0x1CA03, offset: 0x1CA03, size: 0x8, addend: 0x0, symName: __ZNSt3__110unique_ptrINS_3mapINS_12basic_stringIcNS_11char_traitsIcEENS_9allocatorIcEEEEN8nlohmann16json_abi_v3_11_310basic_jsonIS1_NS_6vectorES7_bxydS5_NS9_14adl_serializerENSB_IhNS5_IhEEEEvEENS_4lessIvEENS5_INS_4pairIKS7_SF_EEEEEEZNSF_6createISM_JRKSM_EEEPT_DpOT0_EUlPSM_E_E5resetB8ue170006ESV_, symObjAddr: 0x7630, symBinAddr: 0x1000083A0, symSize: 0x80 }
  - { offsetInCU: 0x1CA47, offset: 0x1CA47, size: 0x8, addend: 0x0, symName: __ZNSt3__117__compressed_pairIPNS_3mapINS_12basic_stringIcNS_11char_traitsIcEENS_9allocatorIcEEEEN8nlohmann16json_abi_v3_11_310basic_jsonIS1_NS_6vectorES7_bxydS5_NS9_14adl_serializerENSB_IhNS5_IhEEEEvEENS_4lessIvEENS5_INS_4pairIKS7_SF_EEEEEEZNSF_6createISM_JRKSM_EEEPT_DpOT0_EUlSN_E_E6secondB8ue170006Ev, symObjAddr: 0x76B0, symBinAddr: 0x100008420, symSize: 0x20 }
  - { offsetInCU: 0x1CA73, offset: 0x1CA73, size: 0x8, addend: 0x0, symName: __ZZN8nlohmann16json_abi_v3_11_310basic_jsonINSt3__13mapENS2_6vectorENS2_12basic_stringIcNS2_11char_traitsIcEENS2_9allocatorIcEEEEbxydS8_NS0_14adl_serializerENS4_IhNS8_IhEEEEvE6createINS3_ISA_SE_NS2_4lessIvEENS8_INS2_4pairIKSA_SE_EEEEEEJRKSM_EEEPT_DpOT0_ENKUlPSM_E_clESU_, symObjAddr: 0x76D0, symBinAddr: 0x100008440, symSize: 0x30 }
  - { offsetInCU: 0x1CAAC, offset: 0x1CAAC, size: 0x8, addend: 0x0, symName: __ZNSt3__122__compressed_pair_elemIZN8nlohmann16json_abi_v3_11_310basic_jsonINS_3mapENS_6vectorENS_12basic_stringIcNS_11char_traitsIcEENS_9allocatorIcEEEEbxydS9_NS2_14adl_serializerENS5_IhNS9_IhEEEEvE6createINS4_ISB_SF_NS_4lessIvEENS9_INS_4pairIKSB_SF_EEEEEEJRKSN_EEEPT_DpOT0_EUlPSN_E_Li1ELb0EE5__getB8ue170006Ev, symObjAddr: 0x7700, symBinAddr: 0x100008470, symSize: 0x10 }
  - { offsetInCU: 0x1CAD2, offset: 0x1CAD2, size: 0x8, addend: 0x0, symName: __ZN8nlohmann16json_abi_v3_11_310basic_jsonINSt3__13mapENS2_6vectorENS2_12basic_stringIcNS2_11char_traitsIcEENS2_9allocatorIcEEEEbxydS8_NS0_14adl_serializerENS4_IhNS8_IhEEEEvE10json_valueC2ERKNS4_ISE_NS8_ISE_EEEE, symObjAddr: 0x7710, symBinAddr: 0x100008480, symSize: 0x40 }
  - { offsetInCU: 0x1CB0B, offset: 0x1CB0B, size: 0x8, addend: 0x0, symName: __ZN8nlohmann16json_abi_v3_11_310basic_jsonINSt3__13mapENS2_6vectorENS2_12basic_stringIcNS2_11char_traitsIcEENS2_9allocatorIcEEEEbxydS8_NS0_14adl_serializerENS4_IhNS8_IhEEEEvE6createINS4_ISE_NS8_ISE_EEEEJRKSH_EEEPT_DpOT0_, symObjAddr: 0x7750, symBinAddr: 0x1000084C0, symSize: 0xF0 }
  - { offsetInCU: 0x1CB99, offset: 0x1CB99, size: 0x8, addend: 0x0, symName: __ZNSt3__116allocator_traitsINS_9allocatorINS_6vectorIN8nlohmann16json_abi_v3_11_310basic_jsonINS_3mapES2_NS_12basic_stringIcNS_11char_traitsIcEENS1_IcEEEEbxydS1_NS4_14adl_serializerENS2_IhNS1_IhEEEEvEENS1_ISF_EEEEEEE8allocateB8ue170006ERSI_m, symObjAddr: 0x7840, symBinAddr: 0x1000085B0, symSize: 0x30 }
  - { offsetInCU: 0x1CC6D, offset: 0x1CC6D, size: 0x8, addend: 0x0, symName: __ZNSt3__110unique_ptrINS_6vectorIN8nlohmann16json_abi_v3_11_310basic_jsonINS_3mapES1_NS_12basic_stringIcNS_11char_traitsIcEENS_9allocatorIcEEEEbxydS9_NS3_14adl_serializerENS1_IhNS9_IhEEEEvEENS9_ISF_EEEEZNSF_6createISH_JRKSH_EEEPT_DpOT0_EUlPSH_E_EC1B8ue170006ILb1EvEESQ_NS_16__dependent_typeINS_27__unique_ptr_deleter_sfinaeISR_EEXT_EE15__lval_ref_typeE, symObjAddr: 0x7870, symBinAddr: 0x1000085E0, symSize: 0x30 }
  - { offsetInCU: 0x1CCBE, offset: 0x1CCBE, size: 0x8, addend: 0x0, symName: __ZNSt3__116allocator_traitsINS_9allocatorINS_6vectorIN8nlohmann16json_abi_v3_11_310basic_jsonINS_3mapES2_NS_12basic_stringIcNS_11char_traitsIcEENS1_IcEEEEbxydS1_NS4_14adl_serializerENS2_IhNS1_IhEEEEvEENS1_ISF_EEEEEEE9constructB8ue170006ISH_JRKSH_EvEEvRSI_PT_DpOT0_, symObjAddr: 0x78A0, symBinAddr: 0x100008610, symSize: 0x30 }
  - { offsetInCU: 0x1CD15, offset: 0x1CD15, size: 0x8, addend: 0x0, symName: __ZNKSt3__110unique_ptrINS_6vectorIN8nlohmann16json_abi_v3_11_310basic_jsonINS_3mapES1_NS_12basic_stringIcNS_11char_traitsIcEENS_9allocatorIcEEEEbxydS9_NS3_14adl_serializerENS1_IhNS9_IhEEEEvEENS9_ISF_EEEEZNSF_6createISH_JRKSH_EEEPT_DpOT0_EUlPSH_E_E3getB8ue170006Ev, symObjAddr: 0x78D0, symBinAddr: 0x100008640, symSize: 0x20 }
  - { offsetInCU: 0x1CD3B, offset: 0x1CD3B, size: 0x8, addend: 0x0, symName: __ZNSt3__110unique_ptrINS_6vectorIN8nlohmann16json_abi_v3_11_310basic_jsonINS_3mapES1_NS_12basic_stringIcNS_11char_traitsIcEENS_9allocatorIcEEEEbxydS9_NS3_14adl_serializerENS1_IhNS9_IhEEEEvEENS9_ISF_EEEEZNSF_6createISH_JRKSH_EEEPT_DpOT0_EUlPSH_E_E7releaseB8ue170006Ev, symObjAddr: 0x7920, symBinAddr: 0x100008690, symSize: 0x40 }
  - { offsetInCU: 0x1CD70, offset: 0x1CD70, size: 0x8, addend: 0x0, symName: __ZNSt3__110unique_ptrINS_6vectorIN8nlohmann16json_abi_v3_11_310basic_jsonINS_3mapES1_NS_12basic_stringIcNS_11char_traitsIcEENS_9allocatorIcEEEEbxydS9_NS3_14adl_serializerENS1_IhNS9_IhEEEEvEENS9_ISF_EEEEZNSF_6createISH_JRKSH_EEEPT_DpOT0_EUlPSH_E_ED1B8ue170006Ev, symObjAddr: 0x7960, symBinAddr: 0x1000086D0, symSize: 0x20 }
  - { offsetInCU: 0x1CD9A, offset: 0x1CD9A, size: 0x8, addend: 0x0, symName: __ZNSt3__19allocatorINS_6vectorIN8nlohmann16json_abi_v3_11_310basic_jsonINS_3mapES1_NS_12basic_stringIcNS_11char_traitsIcEENS0_IcEEEEbxydS0_NS3_14adl_serializerENS1_IhNS0_IhEEEEvEENS0_ISE_EEEEE8allocateB8ue170006Em, symObjAddr: 0x7980, symBinAddr: 0x1000086F0, symSize: 0x50 }
  - { offsetInCU: 0x1CDD9, offset: 0x1CDD9, size: 0x8, addend: 0x0, symName: __ZNSt3__116allocator_traitsINS_9allocatorINS_6vectorIN8nlohmann16json_abi_v3_11_310basic_jsonINS_3mapES2_NS_12basic_stringIcNS_11char_traitsIcEENS1_IcEEEEbxydS1_NS4_14adl_serializerENS2_IhNS1_IhEEEEvEENS1_ISF_EEEEEEE8max_sizeB8ue170006ISI_vEEmRKSI_, symObjAddr: 0x79D0, symBinAddr: 0x100008740, symSize: 0x20 }
  - { offsetInCU: 0x1CE07, offset: 0x1CE07, size: 0x8, addend: 0x0, symName: __ZNKSt3__19allocatorINS_6vectorIN8nlohmann16json_abi_v3_11_310basic_jsonINS_3mapES1_NS_12basic_stringIcNS_11char_traitsIcEENS0_IcEEEEbxydS0_NS3_14adl_serializerENS1_IhNS0_IhEEEEvEENS0_ISE_EEEEE8max_sizeB8ue170006Ev, symObjAddr: 0x79F0, symBinAddr: 0x100008760, symSize: 0x20 }
  - { offsetInCU: 0x1CE2D, offset: 0x1CE2D, size: 0x8, addend: 0x0, symName: __ZNSt3__110unique_ptrINS_6vectorIN8nlohmann16json_abi_v3_11_310basic_jsonINS_3mapES1_NS_12basic_stringIcNS_11char_traitsIcEENS_9allocatorIcEEEEbxydS9_NS3_14adl_serializerENS1_IhNS9_IhEEEEvEENS9_ISF_EEEEZNSF_6createISH_JRKSH_EEEPT_DpOT0_EUlPSH_E_EC2B8ue170006ILb1EvEESQ_NS_16__dependent_typeINS_27__unique_ptr_deleter_sfinaeISR_EEXT_EE15__lval_ref_typeE, symObjAddr: 0x7A10, symBinAddr: 0x100008780, symSize: 0x40 }
  - { offsetInCU: 0x1CE7E, offset: 0x1CE7E, size: 0x8, addend: 0x0, symName: __ZNSt3__117__compressed_pairIPNS_6vectorIN8nlohmann16json_abi_v3_11_310basic_jsonINS_3mapES1_NS_12basic_stringIcNS_11char_traitsIcEENS_9allocatorIcEEEEbxydS9_NS3_14adl_serializerENS1_IhNS9_IhEEEEvEENS9_ISF_EEEEZNSF_6createISH_JRKSH_EEEPT_DpOT0_EUlSI_E_EC1B8ue170006IRSI_RKSR_EEOSM_OT0_, symObjAddr: 0x7A50, symBinAddr: 0x1000087C0, symSize: 0x30 }
  - { offsetInCU: 0x1CED6, offset: 0x1CED6, size: 0x8, addend: 0x0, symName: __ZNSt3__117__compressed_pairIPNS_6vectorIN8nlohmann16json_abi_v3_11_310basic_jsonINS_3mapES1_NS_12basic_stringIcNS_11char_traitsIcEENS_9allocatorIcEEEEbxydS9_NS3_14adl_serializerENS1_IhNS9_IhEEEEvEENS9_ISF_EEEEZNSF_6createISH_JRKSH_EEEPT_DpOT0_EUlSI_E_EC2B8ue170006IRSI_RKSR_EEOSM_OT0_, symObjAddr: 0x7A80, symBinAddr: 0x1000087F0, symSize: 0x40 }
  - { offsetInCU: 0x1CF2E, offset: 0x1CF2E, size: 0x8, addend: 0x0, symName: __ZNSt3__122__compressed_pair_elemIPNS_6vectorIN8nlohmann16json_abi_v3_11_310basic_jsonINS_3mapES1_NS_12basic_stringIcNS_11char_traitsIcEENS_9allocatorIcEEEEbxydS9_NS3_14adl_serializerENS1_IhNS9_IhEEEEvEENS9_ISF_EEEELi0ELb0EEC2B8ue170006IRSI_vEEOT_, symObjAddr: 0x7AC0, symBinAddr: 0x100008830, symSize: 0x20 }
  - { offsetInCU: 0x1CF70, offset: 0x1CF70, size: 0x8, addend: 0x0, symName: __ZNSt3__122__compressed_pair_elemIZN8nlohmann16json_abi_v3_11_310basic_jsonINS_3mapENS_6vectorENS_12basic_stringIcNS_11char_traitsIcEENS_9allocatorIcEEEEbxydS9_NS2_14adl_serializerENS5_IhNS9_IhEEEEvE6createINS5_ISF_NS9_ISF_EEEEJRKSI_EEEPT_DpOT0_EUlPSI_E_Li1ELb0EEC2B8ue170006IRKSR_vEEOSL_, symObjAddr: 0x7AE0, symBinAddr: 0x100008850, symSize: 0x20 }
  - { offsetInCU: 0x1CFB2, offset: 0x1CFB2, size: 0x8, addend: 0x0, symName: __ZNSt3__19allocatorINS_6vectorIN8nlohmann16json_abi_v3_11_310basic_jsonINS_3mapES1_NS_12basic_stringIcNS_11char_traitsIcEENS0_IcEEEEbxydS0_NS3_14adl_serializerENS1_IhNS0_IhEEEEvEENS0_ISE_EEEEE9constructB8ue170006ISG_JRKSG_EEEvPT_DpOT0_, symObjAddr: 0x7B00, symBinAddr: 0x100008870, symSize: 0x30 }
  - { offsetInCU: 0x1D008, offset: 0x1D008, size: 0x8, addend: 0x0, symName: __ZNSt3__16vectorIN8nlohmann16json_abi_v3_11_310basic_jsonINS_3mapES0_NS_12basic_stringIcNS_11char_traitsIcEENS_9allocatorIcEEEEbxydS8_NS2_14adl_serializerENS0_IhNS8_IhEEEEvEENS8_ISE_EEEC1ERKSG_, symObjAddr: 0x7B30, symBinAddr: 0x1000088A0, symSize: 0x30 }
  - { offsetInCU: 0x1D043, offset: 0x1D043, size: 0x8, addend: 0x0, symName: __ZNSt3__16vectorIN8nlohmann16json_abi_v3_11_310basic_jsonINS_3mapES0_NS_12basic_stringIcNS_11char_traitsIcEENS_9allocatorIcEEEEbxydS8_NS2_14adl_serializerENS0_IhNS8_IhEEEEvEENS8_ISE_EEEC2ERKSG_, symObjAddr: 0x7B60, symBinAddr: 0x1000088D0, symSize: 0xA0 }
  - { offsetInCU: 0x1D07E, offset: 0x1D07E, size: 0x8, addend: 0x0, symName: __ZNSt3__116allocator_traitsINS_9allocatorIN8nlohmann16json_abi_v3_11_310basic_jsonINS_3mapENS_6vectorENS_12basic_stringIcNS_11char_traitsIcEENS1_IcEEEEbxydS1_NS3_14adl_serializerENS6_IhNS1_IhEEEEvEEEEE37select_on_container_copy_constructionB8ue170006ISG_vvEESG_RKSG_, symObjAddr: 0x7C00, symBinAddr: 0x100008970, symSize: 0x10 }
  - { offsetInCU: 0x1D0B3, offset: 0x1D0B3, size: 0x8, addend: 0x0, symName: __ZNSt3__117__compressed_pairIPN8nlohmann16json_abi_v3_11_310basic_jsonINS_3mapENS_6vectorENS_12basic_stringIcNS_11char_traitsIcEENS_9allocatorIcEEEEbxydS9_NS2_14adl_serializerENS5_IhNS9_IhEEEEvEENS9_ISF_EEEC1B8ue170006IDnSH_EEOT_OT0_, symObjAddr: 0x7C10, symBinAddr: 0x100008980, symSize: 0x30 }
  - { offsetInCU: 0x1D10B, offset: 0x1D10B, size: 0x8, addend: 0x0, symName: __ZNSt3__16vectorIN8nlohmann16json_abi_v3_11_310basic_jsonINS_3mapES0_NS_12basic_stringIcNS_11char_traitsIcEENS_9allocatorIcEEEEbxydS8_NS2_14adl_serializerENS0_IhNS8_IhEEEEvEENS8_ISE_EEE16__init_with_sizeB8ue170006IPSE_SI_EEvT_T0_m, symObjAddr: 0x7C40, symBinAddr: 0x1000089B0, symSize: 0xB0 }
  - { offsetInCU: 0x1D17F, offset: 0x1D17F, size: 0x8, addend: 0x0, symName: __ZNSt3__117__compressed_pairIPN8nlohmann16json_abi_v3_11_310basic_jsonINS_3mapENS_6vectorENS_12basic_stringIcNS_11char_traitsIcEENS_9allocatorIcEEEEbxydS9_NS2_14adl_serializerENS5_IhNS9_IhEEEEvEENS9_ISF_EEEC2B8ue170006IDnSH_EEOT_OT0_, symObjAddr: 0x7CF0, symBinAddr: 0x100008A60, symSize: 0x40 }
  - { offsetInCU: 0x1D1D7, offset: 0x1D1D7, size: 0x8, addend: 0x0, symName: __ZNSt3__122__compressed_pair_elemINS_9allocatorIN8nlohmann16json_abi_v3_11_310basic_jsonINS_3mapENS_6vectorENS_12basic_stringIcNS_11char_traitsIcEENS1_IcEEEEbxydS1_NS3_14adl_serializerENS6_IhNS1_IhEEEEvEEEELi1ELb1EEC2B8ue170006ISG_vEEOT_, symObjAddr: 0x7D30, symBinAddr: 0x100008AA0, symSize: 0x10 }
  - { offsetInCU: 0x1D219, offset: 0x1D219, size: 0x8, addend: 0x0, symName: __ZNSt3__16vectorIN8nlohmann16json_abi_v3_11_310basic_jsonINS_3mapES0_NS_12basic_stringIcNS_11char_traitsIcEENS_9allocatorIcEEEEbxydS8_NS2_14adl_serializerENS0_IhNS8_IhEEEEvEENS8_ISE_EEE11__vallocateB8ue170006Em, symObjAddr: 0x7D80, symBinAddr: 0x100008AF0, symSize: 0xA0 }
  - { offsetInCU: 0x1D25D, offset: 0x1D25D, size: 0x8, addend: 0x0, symName: __ZNSt3__16vectorIN8nlohmann16json_abi_v3_11_310basic_jsonINS_3mapES0_NS_12basic_stringIcNS_11char_traitsIcEENS_9allocatorIcEEEEbxydS8_NS2_14adl_serializerENS0_IhNS8_IhEEEEvEENS8_ISE_EEE18__construct_at_endIPSE_SI_EEvT_T0_m, symObjAddr: 0x7E20, symBinAddr: 0x100008B90, symSize: 0x90 }
  - { offsetInCU: 0x1D2D3, offset: 0x1D2D3, size: 0x8, addend: 0x0, symName: __ZNSt3__128__exception_guard_exceptionsINS_6vectorIN8nlohmann16json_abi_v3_11_310basic_jsonINS_3mapES1_NS_12basic_stringIcNS_11char_traitsIcEENS_9allocatorIcEEEEbxydS9_NS3_14adl_serializerENS1_IhNS9_IhEEEEvEENS9_ISF_EEE16__destroy_vectorEE10__completeB8ue170006Ev, symObjAddr: 0x7EB0, symBinAddr: 0x100008C20, symSize: 0x20 }
  - { offsetInCU: 0x1D2F9, offset: 0x1D2F9, size: 0x8, addend: 0x0, symName: __ZNSt3__128__exception_guard_exceptionsINS_6vectorIN8nlohmann16json_abi_v3_11_310basic_jsonINS_3mapES1_NS_12basic_stringIcNS_11char_traitsIcEENS_9allocatorIcEEEEbxydS9_NS3_14adl_serializerENS1_IhNS9_IhEEEEvEENS9_ISF_EEE16__destroy_vectorEED1B8ue170006Ev, symObjAddr: 0x7ED0, symBinAddr: 0x100008C40, symSize: 0x20 }
  - { offsetInCU: 0x1D323, offset: 0x1D323, size: 0x8, addend: 0x0, symName: __ZNSt3__128__exception_guard_exceptionsINS_6vectorIN8nlohmann16json_abi_v3_11_310basic_jsonINS_3mapES1_NS_12basic_stringIcNS_11char_traitsIcEENS_9allocatorIcEEEEbxydS9_NS3_14adl_serializerENS1_IhNS9_IhEEEEvEENS9_ISF_EEE16__destroy_vectorEEC1B8ue170006ESI_, symObjAddr: 0x7EF0, symBinAddr: 0x100008C60, symSize: 0x30 }
  - { offsetInCU: 0x1D35B, offset: 0x1D35B, size: 0x8, addend: 0x0, symName: __ZNSt3__128__exception_guard_exceptionsINS_6vectorIN8nlohmann16json_abi_v3_11_310basic_jsonINS_3mapES1_NS_12basic_stringIcNS_11char_traitsIcEENS_9allocatorIcEEEEbxydS9_NS3_14adl_serializerENS1_IhNS9_IhEEEEvEENS9_ISF_EEE16__destroy_vectorEEC2B8ue170006ESI_, symObjAddr: 0x7F20, symBinAddr: 0x100008C90, symSize: 0x20 }
  - { offsetInCU: 0x1D393, offset: 0x1D393, size: 0x8, addend: 0x0, symName: __ZNSt3__129_AllocatorDestroyRangeReverseINS_9allocatorIN8nlohmann16json_abi_v3_11_310basic_jsonINS_3mapENS_6vectorENS_12basic_stringIcNS_11char_traitsIcEENS1_IcEEEEbxydS1_NS3_14adl_serializerENS6_IhNS1_IhEEEEvEEEEPSF_EC1B8ue170006ERSG_RSH_SK_, symObjAddr: 0x81D0, symBinAddr: 0x100008F40, symSize: 0x40 }
  - { offsetInCU: 0x1D3EA, offset: 0x1D3EA, size: 0x8, addend: 0x0, symName: __ZNSt3__116allocator_traitsINS_9allocatorIN8nlohmann16json_abi_v3_11_310basic_jsonINS_3mapENS_6vectorENS_12basic_stringIcNS_11char_traitsIcEENS1_IcEEEEbxydS1_NS3_14adl_serializerENS6_IhNS1_IhEEEEvEEEEE9constructB8ue170006ISF_JRSF_EvEEvRSG_PT_DpOT0_, symObjAddr: 0x8210, symBinAddr: 0x100008F80, symSize: 0x30 }
  - { offsetInCU: 0x1D441, offset: 0x1D441, size: 0x8, addend: 0x0, symName: __ZNSt3__128__exception_guard_exceptionsINS_29_AllocatorDestroyRangeReverseINS_9allocatorIN8nlohmann16json_abi_v3_11_310basic_jsonINS_3mapENS_6vectorENS_12basic_stringIcNS_11char_traitsIcEENS2_IcEEEEbxydS2_NS4_14adl_serializerENS7_IhNS2_IhEEEEvEEEEPSG_EEE10__completeB8ue170006Ev, symObjAddr: 0x8240, symBinAddr: 0x100008FB0, symSize: 0x20 }
  - { offsetInCU: 0x1D467, offset: 0x1D467, size: 0x8, addend: 0x0, symName: __ZNSt3__128__exception_guard_exceptionsINS_29_AllocatorDestroyRangeReverseINS_9allocatorIN8nlohmann16json_abi_v3_11_310basic_jsonINS_3mapENS_6vectorENS_12basic_stringIcNS_11char_traitsIcEENS2_IcEEEEbxydS2_NS4_14adl_serializerENS7_IhNS2_IhEEEEvEEEEPSG_EEED1B8ue170006Ev, symObjAddr: 0x8260, symBinAddr: 0x100008FD0, symSize: 0x20 }
  - { offsetInCU: 0x1D491, offset: 0x1D491, size: 0x8, addend: 0x0, symName: __ZNSt3__128__exception_guard_exceptionsINS_29_AllocatorDestroyRangeReverseINS_9allocatorIN8nlohmann16json_abi_v3_11_310basic_jsonINS_3mapENS_6vectorENS_12basic_stringIcNS_11char_traitsIcEENS2_IcEEEEbxydS2_NS4_14adl_serializerENS7_IhNS2_IhEEEEvEEEEPSG_EEEC1B8ue170006ESJ_, symObjAddr: 0x8280, symBinAddr: 0x100008FF0, symSize: 0x40 }
  - { offsetInCU: 0x1D4C9, offset: 0x1D4C9, size: 0x8, addend: 0x0, symName: __ZNSt3__128__exception_guard_exceptionsINS_29_AllocatorDestroyRangeReverseINS_9allocatorIN8nlohmann16json_abi_v3_11_310basic_jsonINS_3mapENS_6vectorENS_12basic_stringIcNS_11char_traitsIcEENS2_IcEEEEbxydS2_NS4_14adl_serializerENS7_IhNS2_IhEEEEvEEEEPSG_EEEC2B8ue170006ESJ_, symObjAddr: 0x82C0, symBinAddr: 0x100009030, symSize: 0x30 }
  - { offsetInCU: 0x1D501, offset: 0x1D501, size: 0x8, addend: 0x0, symName: __ZNSt3__129_AllocatorDestroyRangeReverseINS_9allocatorIN8nlohmann16json_abi_v3_11_310basic_jsonINS_3mapENS_6vectorENS_12basic_stringIcNS_11char_traitsIcEENS1_IcEEEEbxydS1_NS3_14adl_serializerENS6_IhNS1_IhEEEEvEEEEPSF_EC2B8ue170006ERSG_RSH_SK_, symObjAddr: 0x82F0, symBinAddr: 0x100009060, symSize: 0x40 }
  - { offsetInCU: 0x1D558, offset: 0x1D558, size: 0x8, addend: 0x0, symName: __ZNSt3__19allocatorIN8nlohmann16json_abi_v3_11_310basic_jsonINS_3mapENS_6vectorENS_12basic_stringIcNS_11char_traitsIcEENS0_IcEEEEbxydS0_NS2_14adl_serializerENS5_IhNS0_IhEEEEvEEE9constructB8ue170006ISE_JRSE_EEEvPT_DpOT0_, symObjAddr: 0x8330, symBinAddr: 0x1000090A0, symSize: 0x30 }
  - { offsetInCU: 0x1D5AE, offset: 0x1D5AE, size: 0x8, addend: 0x0, symName: __ZNSt3__128__exception_guard_exceptionsINS_29_AllocatorDestroyRangeReverseINS_9allocatorIN8nlohmann16json_abi_v3_11_310basic_jsonINS_3mapENS_6vectorENS_12basic_stringIcNS_11char_traitsIcEENS2_IcEEEEbxydS2_NS4_14adl_serializerENS7_IhNS2_IhEEEEvEEEEPSG_EEED2B8ue170006Ev, symObjAddr: 0x8360, symBinAddr: 0x1000090D0, symSize: 0x40 }
  - { offsetInCU: 0x1D5D8, offset: 0x1D5D8, size: 0x8, addend: 0x0, symName: __ZNKSt3__129_AllocatorDestroyRangeReverseINS_9allocatorIN8nlohmann16json_abi_v3_11_310basic_jsonINS_3mapENS_6vectorENS_12basic_stringIcNS_11char_traitsIcEENS1_IcEEEEbxydS1_NS3_14adl_serializerENS6_IhNS1_IhEEEEvEEEEPSF_EclB8ue170006Ev, symObjAddr: 0x83A0, symBinAddr: 0x100009110, symSize: 0x60 }
  - { offsetInCU: 0x1D5FE, offset: 0x1D5FE, size: 0x8, addend: 0x0, symName: __ZNSt3__118__unwrap_iter_implIPN8nlohmann16json_abi_v3_11_310basic_jsonINS_3mapENS_6vectorENS_12basic_stringIcNS_11char_traitsIcEENS_9allocatorIcEEEEbxydS9_NS2_14adl_serializerENS5_IhNS9_IhEEEEvEELb1EE8__unwrapB8ue170006ESG_, symObjAddr: 0x8470, symBinAddr: 0x1000091E0, symSize: 0x20 }
  - { offsetInCU: 0x1D621, offset: 0x1D621, size: 0x8, addend: 0x0, symName: __ZNSt3__118__unwrap_iter_implIPN8nlohmann16json_abi_v3_11_310basic_jsonINS_3mapENS_6vectorENS_12basic_stringIcNS_11char_traitsIcEENS_9allocatorIcEEEEbxydS9_NS2_14adl_serializerENS5_IhNS9_IhEEEEvEELb1EE8__rewrapB8ue170006ESG_SG_, symObjAddr: 0x8490, symBinAddr: 0x100009200, symSize: 0x50 }
  - { offsetInCU: 0x1D652, offset: 0x1D652, size: 0x8, addend: 0x0, symName: __ZNSt3__128__exception_guard_exceptionsINS_6vectorIN8nlohmann16json_abi_v3_11_310basic_jsonINS_3mapES1_NS_12basic_stringIcNS_11char_traitsIcEENS_9allocatorIcEEEEbxydS9_NS3_14adl_serializerENS1_IhNS9_IhEEEEvEENS9_ISF_EEE16__destroy_vectorEED2B8ue170006Ev, symObjAddr: 0x84E0, symBinAddr: 0x100009250, symSize: 0x30 }
  - { offsetInCU: 0x1D67C, offset: 0x1D67C, size: 0x8, addend: 0x0, symName: __ZNKSt3__117__compressed_pairIPNS_6vectorIN8nlohmann16json_abi_v3_11_310basic_jsonINS_3mapES1_NS_12basic_stringIcNS_11char_traitsIcEENS_9allocatorIcEEEEbxydS9_NS3_14adl_serializerENS1_IhNS9_IhEEEEvEENS9_ISF_EEEEZNSF_6createISH_JRKSH_EEEPT_DpOT0_EUlSI_E_E5firstB8ue170006Ev, symObjAddr: 0x8510, symBinAddr: 0x100009280, symSize: 0x20 }
  - { offsetInCU: 0x1D6A2, offset: 0x1D6A2, size: 0x8, addend: 0x0, symName: __ZNKSt3__122__compressed_pair_elemIPNS_6vectorIN8nlohmann16json_abi_v3_11_310basic_jsonINS_3mapES1_NS_12basic_stringIcNS_11char_traitsIcEENS_9allocatorIcEEEEbxydS9_NS3_14adl_serializerENS1_IhNS9_IhEEEEvEENS9_ISF_EEEELi0ELb0EE5__getB8ue170006Ev, symObjAddr: 0x8530, symBinAddr: 0x1000092A0, symSize: 0x10 }
  - { offsetInCU: 0x1D6C8, offset: 0x1D6C8, size: 0x8, addend: 0x0, symName: __ZNKSt3__110unique_ptrINS_6vectorIN8nlohmann16json_abi_v3_11_310basic_jsonINS_3mapES1_NS_12basic_stringIcNS_11char_traitsIcEENS_9allocatorIcEEEEbxydS9_NS3_14adl_serializerENS1_IhNS9_IhEEEEvEENS9_ISF_EEEEZNSF_6createISH_JRKSH_EEEPT_DpOT0_EUlPSH_E_EcvbB8ue170006Ev, symObjAddr: 0x8540, symBinAddr: 0x1000092B0, symSize: 0x30 }
  - { offsetInCU: 0x1D6EE, offset: 0x1D6EE, size: 0x8, addend: 0x0, symName: __ZNSt3__117__compressed_pairIPNS_6vectorIN8nlohmann16json_abi_v3_11_310basic_jsonINS_3mapES1_NS_12basic_stringIcNS_11char_traitsIcEENS_9allocatorIcEEEEbxydS9_NS3_14adl_serializerENS1_IhNS9_IhEEEEvEENS9_ISF_EEEEZNSF_6createISH_JRKSH_EEEPT_DpOT0_EUlSI_E_E5firstB8ue170006Ev, symObjAddr: 0x8570, symBinAddr: 0x1000092E0, symSize: 0x20 }
  - { offsetInCU: 0x1D714, offset: 0x1D714, size: 0x8, addend: 0x0, symName: __ZNSt3__122__compressed_pair_elemIPNS_6vectorIN8nlohmann16json_abi_v3_11_310basic_jsonINS_3mapES1_NS_12basic_stringIcNS_11char_traitsIcEENS_9allocatorIcEEEEbxydS9_NS3_14adl_serializerENS1_IhNS9_IhEEEEvEENS9_ISF_EEEELi0ELb0EE5__getB8ue170006Ev, symObjAddr: 0x8590, symBinAddr: 0x100009300, symSize: 0x10 }
  - { offsetInCU: 0x1D73A, offset: 0x1D73A, size: 0x8, addend: 0x0, symName: __ZNSt3__110unique_ptrINS_6vectorIN8nlohmann16json_abi_v3_11_310basic_jsonINS_3mapES1_NS_12basic_stringIcNS_11char_traitsIcEENS_9allocatorIcEEEEbxydS9_NS3_14adl_serializerENS1_IhNS9_IhEEEEvEENS9_ISF_EEEEZNSF_6createISH_JRKSH_EEEPT_DpOT0_EUlPSH_E_ED2B8ue170006Ev, symObjAddr: 0x85A0, symBinAddr: 0x100009310, symSize: 0x20 }
  - { offsetInCU: 0x1D764, offset: 0x1D764, size: 0x8, addend: 0x0, symName: __ZNSt3__110unique_ptrINS_6vectorIN8nlohmann16json_abi_v3_11_310basic_jsonINS_3mapES1_NS_12basic_stringIcNS_11char_traitsIcEENS_9allocatorIcEEEEbxydS9_NS3_14adl_serializerENS1_IhNS9_IhEEEEvEENS9_ISF_EEEEZNSF_6createISH_JRKSH_EEEPT_DpOT0_EUlPSH_E_E5resetB8ue170006ESQ_, symObjAddr: 0x85C0, symBinAddr: 0x100009330, symSize: 0x80 }
  - { offsetInCU: 0x1D7A8, offset: 0x1D7A8, size: 0x8, addend: 0x0, symName: __ZNSt3__117__compressed_pairIPNS_6vectorIN8nlohmann16json_abi_v3_11_310basic_jsonINS_3mapES1_NS_12basic_stringIcNS_11char_traitsIcEENS_9allocatorIcEEEEbxydS9_NS3_14adl_serializerENS1_IhNS9_IhEEEEvEENS9_ISF_EEEEZNSF_6createISH_JRKSH_EEEPT_DpOT0_EUlSI_E_E6secondB8ue170006Ev, symObjAddr: 0x8640, symBinAddr: 0x1000093B0, symSize: 0x20 }
  - { offsetInCU: 0x1D7D4, offset: 0x1D7D4, size: 0x8, addend: 0x0, symName: __ZZN8nlohmann16json_abi_v3_11_310basic_jsonINSt3__13mapENS2_6vectorENS2_12basic_stringIcNS2_11char_traitsIcEENS2_9allocatorIcEEEEbxydS8_NS0_14adl_serializerENS4_IhNS8_IhEEEEvE6createINS4_ISE_NS8_ISE_EEEEJRKSH_EEEPT_DpOT0_ENKUlPSH_E_clESP_, symObjAddr: 0x8660, symBinAddr: 0x1000093D0, symSize: 0x30 }
  - { offsetInCU: 0x1D80D, offset: 0x1D80D, size: 0x8, addend: 0x0, symName: __ZNSt3__122__compressed_pair_elemIZN8nlohmann16json_abi_v3_11_310basic_jsonINS_3mapENS_6vectorENS_12basic_stringIcNS_11char_traitsIcEENS_9allocatorIcEEEEbxydS9_NS2_14adl_serializerENS5_IhNS9_IhEEEEvE6createINS5_ISF_NS9_ISF_EEEEJRKSI_EEEPT_DpOT0_EUlPSI_E_Li1ELb0EE5__getB8ue170006Ev, symObjAddr: 0x8690, symBinAddr: 0x100009400, symSize: 0x10 }
  - { offsetInCU: 0x1D833, offset: 0x1D833, size: 0x8, addend: 0x0, symName: __ZN8nlohmann16json_abi_v3_11_310basic_jsonINSt3__13mapENS2_6vectorENS2_12basic_stringIcNS2_11char_traitsIcEENS2_9allocatorIcEEEEbxydS8_NS0_14adl_serializerENS4_IhNS8_IhEEEEvE10json_valueC2ERKSA_, symObjAddr: 0x86A0, symBinAddr: 0x100009410, symSize: 0x40 }
  - { offsetInCU: 0x1D86C, offset: 0x1D86C, size: 0x8, addend: 0x0, symName: __ZN8nlohmann16json_abi_v3_11_310basic_jsonINSt3__13mapENS2_6vectorENS2_12basic_stringIcNS2_11char_traitsIcEENS2_9allocatorIcEEEEbxydS8_NS0_14adl_serializerENS4_IhNS8_IhEEEEvE6createISA_JRKSA_EEEPT_DpOT0_, symObjAddr: 0x86E0, symBinAddr: 0x100009450, symSize: 0xF0 }
  - { offsetInCU: 0x1D8FA, offset: 0x1D8FA, size: 0x8, addend: 0x0, symName: __ZNSt3__116allocator_traitsINS_9allocatorINS_12basic_stringIcNS_11char_traitsIcEENS1_IcEEEEEEE8allocateB8ue170006ERS7_m, symObjAddr: 0x87D0, symBinAddr: 0x100009540, symSize: 0x30 }
  - { offsetInCU: 0x1D9A0, offset: 0x1D9A0, size: 0x8, addend: 0x0, symName: __ZNSt3__110unique_ptrINS_12basic_stringIcNS_11char_traitsIcEENS_9allocatorIcEEEEZN8nlohmann16json_abi_v3_11_310basic_jsonINS_3mapENS_6vectorES6_bxydS4_NS8_14adl_serializerENSB_IhNS4_IhEEEEvE6createIS6_JRKS6_EEEPT_DpOT0_EUlPS6_E_EC1B8ue170006ILb1EvEESO_NS_16__dependent_typeINS_27__unique_ptr_deleter_sfinaeISP_EEXT_EE15__lval_ref_typeE, symObjAddr: 0x8800, symBinAddr: 0x100009570, symSize: 0x30 }
  - { offsetInCU: 0x1D9F1, offset: 0x1D9F1, size: 0x8, addend: 0x0, symName: __ZNSt3__116allocator_traitsINS_9allocatorINS_12basic_stringIcNS_11char_traitsIcEENS1_IcEEEEEEE9constructB8ue170006IS6_JRKS6_EvEEvRS7_PT_DpOT0_, symObjAddr: 0x8830, symBinAddr: 0x1000095A0, symSize: 0x30 }
  - { offsetInCU: 0x1DA48, offset: 0x1DA48, size: 0x8, addend: 0x0, symName: __ZNKSt3__110unique_ptrINS_12basic_stringIcNS_11char_traitsIcEENS_9allocatorIcEEEEZN8nlohmann16json_abi_v3_11_310basic_jsonINS_3mapENS_6vectorES6_bxydS4_NS8_14adl_serializerENSB_IhNS4_IhEEEEvE6createIS6_JRKS6_EEEPT_DpOT0_EUlPS6_E_E3getB8ue170006Ev, symObjAddr: 0x8860, symBinAddr: 0x1000095D0, symSize: 0x20 }
  - { offsetInCU: 0x1DA6E, offset: 0x1DA6E, size: 0x8, addend: 0x0, symName: __ZNSt3__110unique_ptrINS_12basic_stringIcNS_11char_traitsIcEENS_9allocatorIcEEEEZN8nlohmann16json_abi_v3_11_310basic_jsonINS_3mapENS_6vectorES6_bxydS4_NS8_14adl_serializerENSB_IhNS4_IhEEEEvE6createIS6_JRKS6_EEEPT_DpOT0_EUlPS6_E_E7releaseB8ue170006Ev, symObjAddr: 0x88B0, symBinAddr: 0x100009620, symSize: 0x40 }
  - { offsetInCU: 0x1DAA3, offset: 0x1DAA3, size: 0x8, addend: 0x0, symName: __ZNSt3__110unique_ptrINS_12basic_stringIcNS_11char_traitsIcEENS_9allocatorIcEEEEZN8nlohmann16json_abi_v3_11_310basic_jsonINS_3mapENS_6vectorES6_bxydS4_NS8_14adl_serializerENSB_IhNS4_IhEEEEvE6createIS6_JRKS6_EEEPT_DpOT0_EUlPS6_E_ED1B8ue170006Ev, symObjAddr: 0x88F0, symBinAddr: 0x100009660, symSize: 0x20 }
  - { offsetInCU: 0x1DACD, offset: 0x1DACD, size: 0x8, addend: 0x0, symName: __ZNSt3__19allocatorINS_12basic_stringIcNS_11char_traitsIcEENS0_IcEEEEE8allocateB8ue170006Em, symObjAddr: 0x8910, symBinAddr: 0x100009680, symSize: 0x50 }
  - { offsetInCU: 0x1DB0C, offset: 0x1DB0C, size: 0x8, addend: 0x0, symName: __ZNSt3__116allocator_traitsINS_9allocatorINS_12basic_stringIcNS_11char_traitsIcEENS1_IcEEEEEEE8max_sizeB8ue170006IS7_vEEmRKS7_, symObjAddr: 0x8960, symBinAddr: 0x1000096D0, symSize: 0x20 }
  - { offsetInCU: 0x1DB3A, offset: 0x1DB3A, size: 0x8, addend: 0x0, symName: __ZNKSt3__19allocatorINS_12basic_stringIcNS_11char_traitsIcEENS0_IcEEEEE8max_sizeB8ue170006Ev, symObjAddr: 0x8980, symBinAddr: 0x1000096F0, symSize: 0x20 }
  - { offsetInCU: 0x1DB60, offset: 0x1DB60, size: 0x8, addend: 0x0, symName: __ZNSt3__110unique_ptrINS_12basic_stringIcNS_11char_traitsIcEENS_9allocatorIcEEEEZN8nlohmann16json_abi_v3_11_310basic_jsonINS_3mapENS_6vectorES6_bxydS4_NS8_14adl_serializerENSB_IhNS4_IhEEEEvE6createIS6_JRKS6_EEEPT_DpOT0_EUlPS6_E_EC2B8ue170006ILb1EvEESO_NS_16__dependent_typeINS_27__unique_ptr_deleter_sfinaeISP_EEXT_EE15__lval_ref_typeE, symObjAddr: 0x89A0, symBinAddr: 0x100009710, symSize: 0x40 }
  - { offsetInCU: 0x1DBB7, offset: 0x1DBB7, size: 0x8, addend: 0x0, symName: __ZNSt3__117__compressed_pairIPNS_12basic_stringIcNS_11char_traitsIcEENS_9allocatorIcEEEEZN8nlohmann16json_abi_v3_11_310basic_jsonINS_3mapENS_6vectorES6_bxydS4_NS9_14adl_serializerENSC_IhNS4_IhEEEEvE6createIS6_JRKS6_EEEPT_DpOT0_EUlS7_E_EC1B8ue170006IRS7_RKSP_EEOSK_OT0_, symObjAddr: 0x89E0, symBinAddr: 0x100009750, symSize: 0x30 }
  - { offsetInCU: 0x1DC0F, offset: 0x1DC0F, size: 0x8, addend: 0x0, symName: __ZNSt3__117__compressed_pairIPNS_12basic_stringIcNS_11char_traitsIcEENS_9allocatorIcEEEEZN8nlohmann16json_abi_v3_11_310basic_jsonINS_3mapENS_6vectorES6_bxydS4_NS9_14adl_serializerENSC_IhNS4_IhEEEEvE6createIS6_JRKS6_EEEPT_DpOT0_EUlS7_E_EC2B8ue170006IRS7_RKSP_EEOSK_OT0_, symObjAddr: 0x8A10, symBinAddr: 0x100009780, symSize: 0x40 }
  - { offsetInCU: 0x1DC67, offset: 0x1DC67, size: 0x8, addend: 0x0, symName: __ZNSt3__122__compressed_pair_elemIPNS_12basic_stringIcNS_11char_traitsIcEENS_9allocatorIcEEEELi0ELb0EEC2B8ue170006IRS7_vEEOT_, symObjAddr: 0x8A50, symBinAddr: 0x1000097C0, symSize: 0x20 }
  - { offsetInCU: 0x1DCA9, offset: 0x1DCA9, size: 0x8, addend: 0x0, symName: __ZNSt3__122__compressed_pair_elemIZN8nlohmann16json_abi_v3_11_310basic_jsonINS_3mapENS_6vectorENS_12basic_stringIcNS_11char_traitsIcEENS_9allocatorIcEEEEbxydS9_NS2_14adl_serializerENS5_IhNS9_IhEEEEvE6createISB_JRKSB_EEEPT_DpOT0_EUlPSB_E_Li1ELb0EEC2B8ue170006IRKSP_vEEOSJ_, symObjAddr: 0x8A70, symBinAddr: 0x1000097E0, symSize: 0x20 }
  - { offsetInCU: 0x1DCEB, offset: 0x1DCEB, size: 0x8, addend: 0x0, symName: __ZNSt3__19allocatorINS_12basic_stringIcNS_11char_traitsIcEENS0_IcEEEEE9constructB8ue170006IS5_JRKS5_EEEvPT_DpOT0_, symObjAddr: 0x8A90, symBinAddr: 0x100009800, symSize: 0x30 }
  - { offsetInCU: 0x1DD41, offset: 0x1DD41, size: 0x8, addend: 0x0, symName: __ZNKSt3__117__compressed_pairIPNS_12basic_stringIcNS_11char_traitsIcEENS_9allocatorIcEEEEZN8nlohmann16json_abi_v3_11_310basic_jsonINS_3mapENS_6vectorES6_bxydS4_NS9_14adl_serializerENSC_IhNS4_IhEEEEvE6createIS6_JRKS6_EEEPT_DpOT0_EUlS7_E_E5firstB8ue170006Ev, symObjAddr: 0x8AC0, symBinAddr: 0x100009830, symSize: 0x20 }
  - { offsetInCU: 0x1DD67, offset: 0x1DD67, size: 0x8, addend: 0x0, symName: __ZNKSt3__122__compressed_pair_elemIPNS_12basic_stringIcNS_11char_traitsIcEENS_9allocatorIcEEEELi0ELb0EE5__getB8ue170006Ev, symObjAddr: 0x8AE0, symBinAddr: 0x100009850, symSize: 0x10 }
  - { offsetInCU: 0x1DD8D, offset: 0x1DD8D, size: 0x8, addend: 0x0, symName: __ZNKSt3__110unique_ptrINS_12basic_stringIcNS_11char_traitsIcEENS_9allocatorIcEEEEZN8nlohmann16json_abi_v3_11_310basic_jsonINS_3mapENS_6vectorES6_bxydS4_NS8_14adl_serializerENSB_IhNS4_IhEEEEvE6createIS6_JRKS6_EEEPT_DpOT0_EUlPS6_E_EcvbB8ue170006Ev, symObjAddr: 0x8AF0, symBinAddr: 0x100009860, symSize: 0x30 }
  - { offsetInCU: 0x1DDB3, offset: 0x1DDB3, size: 0x8, addend: 0x0, symName: __ZNSt3__117__compressed_pairIPNS_12basic_stringIcNS_11char_traitsIcEENS_9allocatorIcEEEEZN8nlohmann16json_abi_v3_11_310basic_jsonINS_3mapENS_6vectorES6_bxydS4_NS9_14adl_serializerENSC_IhNS4_IhEEEEvE6createIS6_JRKS6_EEEPT_DpOT0_EUlS7_E_E5firstB8ue170006Ev, symObjAddr: 0x8B20, symBinAddr: 0x100009890, symSize: 0x20 }
  - { offsetInCU: 0x1DDD9, offset: 0x1DDD9, size: 0x8, addend: 0x0, symName: __ZNSt3__122__compressed_pair_elemIPNS_12basic_stringIcNS_11char_traitsIcEENS_9allocatorIcEEEELi0ELb0EE5__getB8ue170006Ev, symObjAddr: 0x8B40, symBinAddr: 0x1000098B0, symSize: 0x10 }
  - { offsetInCU: 0x1DDFF, offset: 0x1DDFF, size: 0x8, addend: 0x0, symName: __ZNSt3__110unique_ptrINS_12basic_stringIcNS_11char_traitsIcEENS_9allocatorIcEEEEZN8nlohmann16json_abi_v3_11_310basic_jsonINS_3mapENS_6vectorES6_bxydS4_NS8_14adl_serializerENSB_IhNS4_IhEEEEvE6createIS6_JRKS6_EEEPT_DpOT0_EUlPS6_E_ED2B8ue170006Ev, symObjAddr: 0x8B50, symBinAddr: 0x1000098C0, symSize: 0x20 }
  - { offsetInCU: 0x1DE29, offset: 0x1DE29, size: 0x8, addend: 0x0, symName: __ZNSt3__110unique_ptrINS_12basic_stringIcNS_11char_traitsIcEENS_9allocatorIcEEEEZN8nlohmann16json_abi_v3_11_310basic_jsonINS_3mapENS_6vectorES6_bxydS4_NS8_14adl_serializerENSB_IhNS4_IhEEEEvE6createIS6_JRKS6_EEEPT_DpOT0_EUlPS6_E_E5resetB8ue170006ESO_, symObjAddr: 0x8B70, symBinAddr: 0x1000098E0, symSize: 0x80 }
  - { offsetInCU: 0x1DE6D, offset: 0x1DE6D, size: 0x8, addend: 0x0, symName: __ZNSt3__117__compressed_pairIPNS_12basic_stringIcNS_11char_traitsIcEENS_9allocatorIcEEEEZN8nlohmann16json_abi_v3_11_310basic_jsonINS_3mapENS_6vectorES6_bxydS4_NS9_14adl_serializerENSC_IhNS4_IhEEEEvE6createIS6_JRKS6_EEEPT_DpOT0_EUlS7_E_E6secondB8ue170006Ev, symObjAddr: 0x8BF0, symBinAddr: 0x100009960, symSize: 0x20 }
  - { offsetInCU: 0x1DE99, offset: 0x1DE99, size: 0x8, addend: 0x0, symName: __ZZN8nlohmann16json_abi_v3_11_310basic_jsonINSt3__13mapENS2_6vectorENS2_12basic_stringIcNS2_11char_traitsIcEENS2_9allocatorIcEEEEbxydS8_NS0_14adl_serializerENS4_IhNS8_IhEEEEvE6createISA_JRKSA_EEEPT_DpOT0_ENKUlPSA_E_clESN_, symObjAddr: 0x8C10, symBinAddr: 0x100009980, symSize: 0x30 }
  - { offsetInCU: 0x1DED2, offset: 0x1DED2, size: 0x8, addend: 0x0, symName: __ZNSt3__122__compressed_pair_elemIZN8nlohmann16json_abi_v3_11_310basic_jsonINS_3mapENS_6vectorENS_12basic_stringIcNS_11char_traitsIcEENS_9allocatorIcEEEEbxydS9_NS2_14adl_serializerENS5_IhNS9_IhEEEEvE6createISB_JRKSB_EEEPT_DpOT0_EUlPSB_E_Li1ELb0EE5__getB8ue170006Ev, symObjAddr: 0x8C40, symBinAddr: 0x1000099B0, symSize: 0x10 }
  - { offsetInCU: 0x1DEF8, offset: 0x1DEF8, size: 0x8, addend: 0x0, symName: __ZN8nlohmann16json_abi_v3_11_310basic_jsonINSt3__13mapENS2_6vectorENS2_12basic_stringIcNS2_11char_traitsIcEENS2_9allocatorIcEEEEbxydS8_NS0_14adl_serializerENS4_IhNS8_IhEEEEvE10json_valueC2Eb, symObjAddr: 0x8C50, symBinAddr: 0x1000099C0, symSize: 0x20 }
  - { offsetInCU: 0x1DF31, offset: 0x1DF31, size: 0x8, addend: 0x0, symName: __ZN8nlohmann16json_abi_v3_11_310basic_jsonINSt3__13mapENS2_6vectorENS2_12basic_stringIcNS2_11char_traitsIcEENS2_9allocatorIcEEEEbxydS8_NS0_14adl_serializerENS4_IhNS8_IhEEEEvE10json_valueC2Ex, symObjAddr: 0x8C70, symBinAddr: 0x1000099E0, symSize: 0x20 }
  - { offsetInCU: 0x1DF6A, offset: 0x1DF6A, size: 0x8, addend: 0x0, symName: __ZN8nlohmann16json_abi_v3_11_310basic_jsonINSt3__13mapENS2_6vectorENS2_12basic_stringIcNS2_11char_traitsIcEENS2_9allocatorIcEEEEbxydS8_NS0_14adl_serializerENS4_IhNS8_IhEEEEvE10json_valueC2Ey, symObjAddr: 0x8C90, symBinAddr: 0x100009A00, symSize: 0x20 }
  - { offsetInCU: 0x1DFA3, offset: 0x1DFA3, size: 0x8, addend: 0x0, symName: __ZN8nlohmann16json_abi_v3_11_310basic_jsonINSt3__13mapENS2_6vectorENS2_12basic_stringIcNS2_11char_traitsIcEENS2_9allocatorIcEEEEbxydS8_NS0_14adl_serializerENS4_IhNS8_IhEEEEvE10json_valueC2Ed, symObjAddr: 0x8CB0, symBinAddr: 0x100009A20, symSize: 0x20 }
  - { offsetInCU: 0x1DFDC, offset: 0x1DFDC, size: 0x8, addend: 0x0, symName: __ZN8nlohmann16json_abi_v3_11_310basic_jsonINSt3__13mapENS2_6vectorENS2_12basic_stringIcNS2_11char_traitsIcEENS2_9allocatorIcEEEEbxydS8_NS0_14adl_serializerENS4_IhNS8_IhEEEEvE10json_valueC2ERKNS0_27byte_container_with_subtypeISD_EE, symObjAddr: 0x8CD0, symBinAddr: 0x100009A40, symSize: 0x40 }
  - { offsetInCU: 0x1E015, offset: 0x1E015, size: 0x8, addend: 0x0, symName: __ZN8nlohmann16json_abi_v3_11_310basic_jsonINSt3__13mapENS2_6vectorENS2_12basic_stringIcNS2_11char_traitsIcEENS2_9allocatorIcEEEEbxydS8_NS0_14adl_serializerENS4_IhNS8_IhEEEEvE6createINS0_27byte_container_with_subtypeISD_EEJRKSH_EEEPT_DpOT0_, symObjAddr: 0x8D10, symBinAddr: 0x100009A80, symSize: 0xF0 }
  - { offsetInCU: 0x1E0A3, offset: 0x1E0A3, size: 0x8, addend: 0x0, symName: __ZNSt3__116allocator_traitsINS_9allocatorIN8nlohmann16json_abi_v3_11_327byte_container_with_subtypeINS_6vectorIhNS1_IhEEEEEEEEE8allocateB8ue170006ERS9_m, symObjAddr: 0x8E00, symBinAddr: 0x100009B70, symSize: 0x30 }
  - { offsetInCU: 0x1E177, offset: 0x1E177, size: 0x8, addend: 0x0, symName: __ZNSt3__110unique_ptrIN8nlohmann16json_abi_v3_11_327byte_container_with_subtypeINS_6vectorIhNS_9allocatorIhEEEEEEZNS2_10basic_jsonINS_3mapES4_NS_12basic_stringIcNS_11char_traitsIcEENS5_IcEEEEbxydS5_NS2_14adl_serializerES7_vE6createIS8_JRKS8_EEEPT_DpOT0_EUlPS8_E_EC1B8ue170006ILb1EvEESQ_NS_16__dependent_typeINS_27__unique_ptr_deleter_sfinaeISR_EEXT_EE15__lval_ref_typeE, symObjAddr: 0x8E30, symBinAddr: 0x100009BA0, symSize: 0x30 }
  - { offsetInCU: 0x1E1C8, offset: 0x1E1C8, size: 0x8, addend: 0x0, symName: __ZNSt3__116allocator_traitsINS_9allocatorIN8nlohmann16json_abi_v3_11_327byte_container_with_subtypeINS_6vectorIhNS1_IhEEEEEEEEE9constructB8ue170006IS8_JRKS8_EvEEvRS9_PT_DpOT0_, symObjAddr: 0x8E60, symBinAddr: 0x100009BD0, symSize: 0x30 }
  - { offsetInCU: 0x1E21F, offset: 0x1E21F, size: 0x8, addend: 0x0, symName: __ZNKSt3__110unique_ptrIN8nlohmann16json_abi_v3_11_327byte_container_with_subtypeINS_6vectorIhNS_9allocatorIhEEEEEEZNS2_10basic_jsonINS_3mapES4_NS_12basic_stringIcNS_11char_traitsIcEENS5_IcEEEEbxydS5_NS2_14adl_serializerES7_vE6createIS8_JRKS8_EEEPT_DpOT0_EUlPS8_E_E3getB8ue170006Ev, symObjAddr: 0x8E90, symBinAddr: 0x100009C00, symSize: 0x20 }
  - { offsetInCU: 0x1E245, offset: 0x1E245, size: 0x8, addend: 0x0, symName: __ZNSt3__110unique_ptrIN8nlohmann16json_abi_v3_11_327byte_container_with_subtypeINS_6vectorIhNS_9allocatorIhEEEEEEZNS2_10basic_jsonINS_3mapES4_NS_12basic_stringIcNS_11char_traitsIcEENS5_IcEEEEbxydS5_NS2_14adl_serializerES7_vE6createIS8_JRKS8_EEEPT_DpOT0_EUlPS8_E_E7releaseB8ue170006Ev, symObjAddr: 0x8EE0, symBinAddr: 0x100009C50, symSize: 0x40 }
  - { offsetInCU: 0x1E27A, offset: 0x1E27A, size: 0x8, addend: 0x0, symName: __ZNSt3__110unique_ptrIN8nlohmann16json_abi_v3_11_327byte_container_with_subtypeINS_6vectorIhNS_9allocatorIhEEEEEEZNS2_10basic_jsonINS_3mapES4_NS_12basic_stringIcNS_11char_traitsIcEENS5_IcEEEEbxydS5_NS2_14adl_serializerES7_vE6createIS8_JRKS8_EEEPT_DpOT0_EUlPS8_E_ED1B8ue170006Ev, symObjAddr: 0x8F20, symBinAddr: 0x100009C90, symSize: 0x20 }
  - { offsetInCU: 0x1E2A4, offset: 0x1E2A4, size: 0x8, addend: 0x0, symName: __ZNSt3__19allocatorIN8nlohmann16json_abi_v3_11_327byte_container_with_subtypeINS_6vectorIhNS0_IhEEEEEEE8allocateB8ue170006Em, symObjAddr: 0x8F40, symBinAddr: 0x100009CB0, symSize: 0x50 }
  - { offsetInCU: 0x1E2E3, offset: 0x1E2E3, size: 0x8, addend: 0x0, symName: __ZNSt3__116allocator_traitsINS_9allocatorIN8nlohmann16json_abi_v3_11_327byte_container_with_subtypeINS_6vectorIhNS1_IhEEEEEEEEE8max_sizeB8ue170006IS9_vEEmRKS9_, symObjAddr: 0x8F90, symBinAddr: 0x100009D00, symSize: 0x20 }
  - { offsetInCU: 0x1E311, offset: 0x1E311, size: 0x8, addend: 0x0, symName: __ZNKSt3__19allocatorIN8nlohmann16json_abi_v3_11_327byte_container_with_subtypeINS_6vectorIhNS0_IhEEEEEEE8max_sizeB8ue170006Ev, symObjAddr: 0x8FB0, symBinAddr: 0x100009D20, symSize: 0x20 }
  - { offsetInCU: 0x1E337, offset: 0x1E337, size: 0x8, addend: 0x0, symName: __ZNSt3__110unique_ptrIN8nlohmann16json_abi_v3_11_327byte_container_with_subtypeINS_6vectorIhNS_9allocatorIhEEEEEEZNS2_10basic_jsonINS_3mapES4_NS_12basic_stringIcNS_11char_traitsIcEENS5_IcEEEEbxydS5_NS2_14adl_serializerES7_vE6createIS8_JRKS8_EEEPT_DpOT0_EUlPS8_E_EC2B8ue170006ILb1EvEESQ_NS_16__dependent_typeINS_27__unique_ptr_deleter_sfinaeISR_EEXT_EE15__lval_ref_typeE, symObjAddr: 0x8FD0, symBinAddr: 0x100009D40, symSize: 0x40 }
  - { offsetInCU: 0x1E388, offset: 0x1E388, size: 0x8, addend: 0x0, symName: __ZNSt3__117__compressed_pairIPN8nlohmann16json_abi_v3_11_327byte_container_with_subtypeINS_6vectorIhNS_9allocatorIhEEEEEEZNS2_10basic_jsonINS_3mapES4_NS_12basic_stringIcNS_11char_traitsIcEENS5_IcEEEEbxydS5_NS2_14adl_serializerES7_vE6createIS8_JRKS8_EEEPT_DpOT0_EUlS9_E_EC1B8ue170006IRS9_RKSR_EEOSM_OT0_, symObjAddr: 0x9010, symBinAddr: 0x100009D80, symSize: 0x30 }
  - { offsetInCU: 0x1E3E0, offset: 0x1E3E0, size: 0x8, addend: 0x0, symName: __ZNSt3__117__compressed_pairIPN8nlohmann16json_abi_v3_11_327byte_container_with_subtypeINS_6vectorIhNS_9allocatorIhEEEEEEZNS2_10basic_jsonINS_3mapES4_NS_12basic_stringIcNS_11char_traitsIcEENS5_IcEEEEbxydS5_NS2_14adl_serializerES7_vE6createIS8_JRKS8_EEEPT_DpOT0_EUlS9_E_EC2B8ue170006IRS9_RKSR_EEOSM_OT0_, symObjAddr: 0x9040, symBinAddr: 0x100009DB0, symSize: 0x40 }
  - { offsetInCU: 0x1E438, offset: 0x1E438, size: 0x8, addend: 0x0, symName: __ZNSt3__122__compressed_pair_elemIPN8nlohmann16json_abi_v3_11_327byte_container_with_subtypeINS_6vectorIhNS_9allocatorIhEEEEEELi0ELb0EEC2B8ue170006IRS9_vEEOT_, symObjAddr: 0x9080, symBinAddr: 0x100009DF0, symSize: 0x20 }
  - { offsetInCU: 0x1E47A, offset: 0x1E47A, size: 0x8, addend: 0x0, symName: __ZNSt3__122__compressed_pair_elemIZN8nlohmann16json_abi_v3_11_310basic_jsonINS_3mapENS_6vectorENS_12basic_stringIcNS_11char_traitsIcEENS_9allocatorIcEEEEbxydS9_NS2_14adl_serializerENS5_IhNS9_IhEEEEvE6createINS2_27byte_container_with_subtypeISE_EEJRKSI_EEEPT_DpOT0_EUlPSI_E_Li1ELb0EEC2B8ue170006IRKSR_vEEOSL_, symObjAddr: 0x90A0, symBinAddr: 0x100009E10, symSize: 0x20 }
  - { offsetInCU: 0x1E4BC, offset: 0x1E4BC, size: 0x8, addend: 0x0, symName: __ZNSt3__19allocatorIN8nlohmann16json_abi_v3_11_327byte_container_with_subtypeINS_6vectorIhNS0_IhEEEEEEE9constructB8ue170006IS7_JRKS7_EEEvPT_DpOT0_, symObjAddr: 0x90C0, symBinAddr: 0x100009E30, symSize: 0x30 }
  - { offsetInCU: 0x1E512, offset: 0x1E512, size: 0x8, addend: 0x0, symName: __ZN8nlohmann16json_abi_v3_11_327byte_container_with_subtypeINSt3__16vectorIhNS2_9allocatorIhEEEEEC1ERKS7_, symObjAddr: 0x90F0, symBinAddr: 0x100009E60, symSize: 0x30 }
  - { offsetInCU: 0x1E548, offset: 0x1E548, size: 0x8, addend: 0x0, symName: __ZN8nlohmann16json_abi_v3_11_327byte_container_with_subtypeINSt3__16vectorIhNS2_9allocatorIhEEEEEC2ERKS7_, symObjAddr: 0x9120, symBinAddr: 0x100009E90, symSize: 0x40 }
  - { offsetInCU: 0x1E57E, offset: 0x1E57E, size: 0x8, addend: 0x0, symName: __ZNSt3__16vectorIhNS_9allocatorIhEEEC2ERKS3_, symObjAddr: 0x9160, symBinAddr: 0x100009ED0, symSize: 0xA0 }
  - { offsetInCU: 0x1E5C4, offset: 0x1E5C4, size: 0x8, addend: 0x0, symName: __ZNSt3__116allocator_traitsINS_9allocatorIhEEE37select_on_container_copy_constructionB8ue170006IS2_vvEES2_RKS2_, symObjAddr: 0x9200, symBinAddr: 0x100009F70, symSize: 0x10 }
  - { offsetInCU: 0x1E5F3, offset: 0x1E5F3, size: 0x8, addend: 0x0, symName: __ZNKSt3__16vectorIhNS_9allocatorIhEEE7__allocB8ue170006Ev, symObjAddr: 0x9210, symBinAddr: 0x100009F80, symSize: 0x20 }
  - { offsetInCU: 0x1E61F, offset: 0x1E61F, size: 0x8, addend: 0x0, symName: __ZNSt3__117__compressed_pairIPhNS_9allocatorIhEEEC1B8ue170006IDnS3_EEOT_OT0_, symObjAddr: 0x9230, symBinAddr: 0x100009FA0, symSize: 0x30 }
  - { offsetInCU: 0x1E677, offset: 0x1E677, size: 0x8, addend: 0x0, symName: __ZNSt3__16vectorIhNS_9allocatorIhEEE16__init_with_sizeB8ue170006IPhS5_EEvT_T0_m, symObjAddr: 0x9260, symBinAddr: 0x100009FD0, symSize: 0xB0 }
  - { offsetInCU: 0x1E6EB, offset: 0x1E6EB, size: 0x8, addend: 0x0, symName: __ZNKSt3__117__compressed_pairIPhNS_9allocatorIhEEE6secondB8ue170006Ev, symObjAddr: 0x9310, symBinAddr: 0x10000A080, symSize: 0x20 }
  - { offsetInCU: 0x1E711, offset: 0x1E711, size: 0x8, addend: 0x0, symName: __ZNKSt3__122__compressed_pair_elemINS_9allocatorIhEELi1ELb1EE5__getB8ue170006Ev, symObjAddr: 0x9330, symBinAddr: 0x10000A0A0, symSize: 0x10 }
  - { offsetInCU: 0x1E737, offset: 0x1E737, size: 0x8, addend: 0x0, symName: __ZNSt3__117__compressed_pairIPhNS_9allocatorIhEEEC2B8ue170006IDnS3_EEOT_OT0_, symObjAddr: 0x9340, symBinAddr: 0x10000A0B0, symSize: 0x40 }
  - { offsetInCU: 0x1E78F, offset: 0x1E78F, size: 0x8, addend: 0x0, symName: __ZNSt3__122__compressed_pair_elemIPhLi0ELb0EEC2B8ue170006IDnvEEOT_, symObjAddr: 0x9380, symBinAddr: 0x10000A0F0, symSize: 0x20 }
  - { offsetInCU: 0x1E7D1, offset: 0x1E7D1, size: 0x8, addend: 0x0, symName: __ZNSt3__122__compressed_pair_elemINS_9allocatorIhEELi1ELb1EEC2B8ue170006IS2_vEEOT_, symObjAddr: 0x93A0, symBinAddr: 0x10000A110, symSize: 0x10 }
  - { offsetInCU: 0x1E813, offset: 0x1E813, size: 0x8, addend: 0x0, symName: __ZNSt3__16vectorIhNS_9allocatorIhEEE11__vallocateB8ue170006Em, symObjAddr: 0x93F0, symBinAddr: 0x10000A160, symSize: 0xA0 }
  - { offsetInCU: 0x1E857, offset: 0x1E857, size: 0x8, addend: 0x0, symName: __ZNSt3__16vectorIhNS_9allocatorIhEEE18__construct_at_endIPhS5_EEvT_T0_m, symObjAddr: 0x9490, symBinAddr: 0x10000A200, symSize: 0x90 }
  - { offsetInCU: 0x1E8CD, offset: 0x1E8CD, size: 0x8, addend: 0x0, symName: __ZNSt3__128__exception_guard_exceptionsINS_6vectorIhNS_9allocatorIhEEE16__destroy_vectorEE10__completeB8ue170006Ev, symObjAddr: 0x9520, symBinAddr: 0x10000A290, symSize: 0x20 }
  - { offsetInCU: 0x1E8F3, offset: 0x1E8F3, size: 0x8, addend: 0x0, symName: __ZNSt3__128__exception_guard_exceptionsINS_6vectorIhNS_9allocatorIhEEE16__destroy_vectorEED1B8ue170006Ev, symObjAddr: 0x9540, symBinAddr: 0x10000A2B0, symSize: 0x20 }
  - { offsetInCU: 0x1E91D, offset: 0x1E91D, size: 0x8, addend: 0x0, symName: __ZNSt3__128__exception_guard_exceptionsINS_6vectorIhNS_9allocatorIhEEE16__destroy_vectorEEC1B8ue170006ES5_, symObjAddr: 0x9560, symBinAddr: 0x10000A2D0, symSize: 0x30 }
  - { offsetInCU: 0x1E955, offset: 0x1E955, size: 0x8, addend: 0x0, symName: __ZNSt3__128__exception_guard_exceptionsINS_6vectorIhNS_9allocatorIhEEE16__destroy_vectorEEC2B8ue170006ES5_, symObjAddr: 0x9590, symBinAddr: 0x10000A300, symSize: 0x20 }
  - { offsetInCU: 0x1E98D, offset: 0x1E98D, size: 0x8, addend: 0x0, symName: __ZNKSt3__16vectorIhNS_9allocatorIhEEE8max_sizeEv, symObjAddr: 0x95B0, symBinAddr: 0x10000A320, symSize: 0x60 }
  - { offsetInCU: 0x1E9B5, offset: 0x1E9B5, size: 0x8, addend: 0x0, symName: __ZNKSt3__16vectorIhNS_9allocatorIhEEE20__throw_length_errorB8ue170006Ev, symObjAddr: 0x9610, symBinAddr: 0x10000A380, symSize: 0x20 }
  - { offsetInCU: 0x1E9DB, offset: 0x1E9DB, size: 0x8, addend: 0x0, symName: __ZNSt3__16vectorIhNS_9allocatorIhEEE9__end_capB8ue170006Ev, symObjAddr: 0x9670, symBinAddr: 0x10000A3E0, symSize: 0x20 }
  - { offsetInCU: 0x1EA01, offset: 0x1EA01, size: 0x8, addend: 0x0, symName: __ZNKSt3__16vectorIhNS_9allocatorIhEEE14__annotate_newB8ue170006Em, symObjAddr: 0x9690, symBinAddr: 0x10000A400, symSize: 0xA0 }
  - { offsetInCU: 0x1EA36, offset: 0x1EA36, size: 0x8, addend: 0x0, symName: __ZNSt3__116allocator_traitsINS_9allocatorIhEEE8max_sizeB8ue170006IS2_vEEmRKS2_, symObjAddr: 0x9730, symBinAddr: 0x10000A4A0, symSize: 0x20 }
  - { offsetInCU: 0x1EA64, offset: 0x1EA64, size: 0x8, addend: 0x0, symName: __ZNKSt3__19allocatorIhE8max_sizeB8ue170006Ev, symObjAddr: 0x9750, symBinAddr: 0x10000A4C0, symSize: 0x20 }
  - { offsetInCU: 0x1EA8A, offset: 0x1EA8A, size: 0x8, addend: 0x0, symName: __ZNSt3__19allocatorIhE8allocateB8ue170006Em, symObjAddr: 0x9770, symBinAddr: 0x10000A4E0, symSize: 0x50 }
  - { offsetInCU: 0x1EABE, offset: 0x1EABE, size: 0x8, addend: 0x0, symName: __ZNSt3__117__compressed_pairIPhNS_9allocatorIhEEE5firstB8ue170006Ev, symObjAddr: 0x97C0, symBinAddr: 0x10000A530, symSize: 0x20 }
  - { offsetInCU: 0x1EAE4, offset: 0x1EAE4, size: 0x8, addend: 0x0, symName: __ZNSt3__122__compressed_pair_elemIPhLi0ELb0EE5__getB8ue170006Ev, symObjAddr: 0x97E0, symBinAddr: 0x10000A550, symSize: 0x10 }
  - { offsetInCU: 0x1EB26, offset: 0x1EB26, size: 0x8, addend: 0x0, symName: __ZNSt3__16vectorIhNS_9allocatorIhEEE21_ConstructTransactionC1B8ue170006ERS3_m, symObjAddr: 0x97F0, symBinAddr: 0x10000A560, symSize: 0x30 }
  - { offsetInCU: 0x1EB6E, offset: 0x1EB6E, size: 0x8, addend: 0x0, symName: __ZNSt3__16vectorIhNS_9allocatorIhEEE21_ConstructTransactionD1B8ue170006Ev, symObjAddr: 0x98A0, symBinAddr: 0x10000A610, symSize: 0x20 }
  - { offsetInCU: 0x1EB98, offset: 0x1EB98, size: 0x8, addend: 0x0, symName: __ZNSt3__16vectorIhNS_9allocatorIhEEE21_ConstructTransactionC2B8ue170006ERS3_m, symObjAddr: 0x98C0, symBinAddr: 0x10000A630, symSize: 0x40 }
  - { offsetInCU: 0x1EC03, offset: 0x1EC03, size: 0x8, addend: 0x0, symName: __ZNSt3__14pairIPhS1_EC1B8ue170006IS1_S1_LPv0EEEOT_OT0_, symObjAddr: 0x9A10, symBinAddr: 0x10000A780, symSize: 0x30 }
  - { offsetInCU: 0x1EC61, offset: 0x1EC61, size: 0x8, addend: 0x0, symName: __ZNSt3__14pairIPhS1_EC2B8ue170006IS1_S1_LPv0EEEOT_OT0_, symObjAddr: 0x9A40, symBinAddr: 0x10000A7B0, symSize: 0x30 }
  - { offsetInCU: 0x1ECCA, offset: 0x1ECCA, size: 0x8, addend: 0x0, symName: __ZNKSt3__114__copy_trivialclB8ue170006IhhLi0EEENS_4pairIPT_PT0_EES4_S4_S6_, symObjAddr: 0x9BE0, symBinAddr: 0x10000A950, symSize: 0x40 }
  - { offsetInCU: 0x1ED32, offset: 0x1ED32, size: 0x8, addend: 0x0, symName: __ZNSt3__14pairIPhS1_EC1B8ue170006IRS1_S1_LPv0EEEOT_OT0_, symObjAddr: 0x9D40, symBinAddr: 0x10000AAB0, symSize: 0x30 }
  - { offsetInCU: 0x1ED90, offset: 0x1ED90, size: 0x8, addend: 0x0, symName: __ZNSt3__14pairIPhS1_EC2B8ue170006IRS1_S1_LPv0EEEOT_OT0_, symObjAddr: 0x9D70, symBinAddr: 0x10000AAE0, symSize: 0x30 }
  - { offsetInCU: 0x1EDEE, offset: 0x1EDEE, size: 0x8, addend: 0x0, symName: __ZNSt3__118__unwrap_iter_implIPhLb1EE8__unwrapB8ue170006ES1_, symObjAddr: 0x9DA0, symBinAddr: 0x10000AB10, symSize: 0x20 }
  - { offsetInCU: 0x1EE11, offset: 0x1EE11, size: 0x8, addend: 0x0, symName: __ZNSt3__118__unwrap_iter_implIPhLb1EE8__rewrapB8ue170006ES1_S1_, symObjAddr: 0x9DC0, symBinAddr: 0x10000AB30, symSize: 0x40 }
  - { offsetInCU: 0x1EE42, offset: 0x1EE42, size: 0x8, addend: 0x0, symName: __ZNSt3__16vectorIhNS_9allocatorIhEEE21_ConstructTransactionD2B8ue170006Ev, symObjAddr: 0x9E00, symBinAddr: 0x10000AB70, symSize: 0x20 }
  - { offsetInCU: 0x1EE6C, offset: 0x1EE6C, size: 0x8, addend: 0x0, symName: __ZNSt3__128__exception_guard_exceptionsINS_6vectorIhNS_9allocatorIhEEE16__destroy_vectorEED2B8ue170006Ev, symObjAddr: 0x9E20, symBinAddr: 0x10000AB90, symSize: 0x30 }
  - { offsetInCU: 0x1EE96, offset: 0x1EE96, size: 0x8, addend: 0x0, symName: __ZNKSt3__117__compressed_pairIPN8nlohmann16json_abi_v3_11_327byte_container_with_subtypeINS_6vectorIhNS_9allocatorIhEEEEEEZNS2_10basic_jsonINS_3mapES4_NS_12basic_stringIcNS_11char_traitsIcEENS5_IcEEEEbxydS5_NS2_14adl_serializerES7_vE6createIS8_JRKS8_EEEPT_DpOT0_EUlS9_E_E5firstB8ue170006Ev, symObjAddr: 0x9E50, symBinAddr: 0x10000ABC0, symSize: 0x20 }
  - { offsetInCU: 0x1EEBC, offset: 0x1EEBC, size: 0x8, addend: 0x0, symName: __ZNKSt3__122__compressed_pair_elemIPN8nlohmann16json_abi_v3_11_327byte_container_with_subtypeINS_6vectorIhNS_9allocatorIhEEEEEELi0ELb0EE5__getB8ue170006Ev, symObjAddr: 0x9E70, symBinAddr: 0x10000ABE0, symSize: 0x10 }
  - { offsetInCU: 0x1EEE2, offset: 0x1EEE2, size: 0x8, addend: 0x0, symName: __ZNKSt3__110unique_ptrIN8nlohmann16json_abi_v3_11_327byte_container_with_subtypeINS_6vectorIhNS_9allocatorIhEEEEEEZNS2_10basic_jsonINS_3mapES4_NS_12basic_stringIcNS_11char_traitsIcEENS5_IcEEEEbxydS5_NS2_14adl_serializerES7_vE6createIS8_JRKS8_EEEPT_DpOT0_EUlPS8_E_EcvbB8ue170006Ev, symObjAddr: 0x9E80, symBinAddr: 0x10000ABF0, symSize: 0x30 }
  - { offsetInCU: 0x1EF08, offset: 0x1EF08, size: 0x8, addend: 0x0, symName: __ZNSt3__117__compressed_pairIPN8nlohmann16json_abi_v3_11_327byte_container_with_subtypeINS_6vectorIhNS_9allocatorIhEEEEEEZNS2_10basic_jsonINS_3mapES4_NS_12basic_stringIcNS_11char_traitsIcEENS5_IcEEEEbxydS5_NS2_14adl_serializerES7_vE6createIS8_JRKS8_EEEPT_DpOT0_EUlS9_E_E5firstB8ue170006Ev, symObjAddr: 0x9EB0, symBinAddr: 0x10000AC20, symSize: 0x20 }
  - { offsetInCU: 0x1EF2E, offset: 0x1EF2E, size: 0x8, addend: 0x0, symName: __ZNSt3__122__compressed_pair_elemIPN8nlohmann16json_abi_v3_11_327byte_container_with_subtypeINS_6vectorIhNS_9allocatorIhEEEEEELi0ELb0EE5__getB8ue170006Ev, symObjAddr: 0x9ED0, symBinAddr: 0x10000AC40, symSize: 0x10 }
  - { offsetInCU: 0x1EF54, offset: 0x1EF54, size: 0x8, addend: 0x0, symName: __ZNSt3__110unique_ptrIN8nlohmann16json_abi_v3_11_327byte_container_with_subtypeINS_6vectorIhNS_9allocatorIhEEEEEEZNS2_10basic_jsonINS_3mapES4_NS_12basic_stringIcNS_11char_traitsIcEENS5_IcEEEEbxydS5_NS2_14adl_serializerES7_vE6createIS8_JRKS8_EEEPT_DpOT0_EUlPS8_E_ED2B8ue170006Ev, symObjAddr: 0x9EE0, symBinAddr: 0x10000AC50, symSize: 0x20 }
  - { offsetInCU: 0x1EF7E, offset: 0x1EF7E, size: 0x8, addend: 0x0, symName: __ZNSt3__110unique_ptrIN8nlohmann16json_abi_v3_11_327byte_container_with_subtypeINS_6vectorIhNS_9allocatorIhEEEEEEZNS2_10basic_jsonINS_3mapES4_NS_12basic_stringIcNS_11char_traitsIcEENS5_IcEEEEbxydS5_NS2_14adl_serializerES7_vE6createIS8_JRKS8_EEEPT_DpOT0_EUlPS8_E_E5resetB8ue170006ESQ_, symObjAddr: 0x9F00, symBinAddr: 0x10000AC70, symSize: 0x80 }
  - { offsetInCU: 0x1EFC2, offset: 0x1EFC2, size: 0x8, addend: 0x0, symName: __ZNSt3__117__compressed_pairIPN8nlohmann16json_abi_v3_11_327byte_container_with_subtypeINS_6vectorIhNS_9allocatorIhEEEEEEZNS2_10basic_jsonINS_3mapES4_NS_12basic_stringIcNS_11char_traitsIcEENS5_IcEEEEbxydS5_NS2_14adl_serializerES7_vE6createIS8_JRKS8_EEEPT_DpOT0_EUlS9_E_E6secondB8ue170006Ev, symObjAddr: 0x9F80, symBinAddr: 0x10000ACF0, symSize: 0x20 }
  - { offsetInCU: 0x1EFEE, offset: 0x1EFEE, size: 0x8, addend: 0x0, symName: __ZZN8nlohmann16json_abi_v3_11_310basic_jsonINSt3__13mapENS2_6vectorENS2_12basic_stringIcNS2_11char_traitsIcEENS2_9allocatorIcEEEEbxydS8_NS0_14adl_serializerENS4_IhNS8_IhEEEEvE6createINS0_27byte_container_with_subtypeISD_EEJRKSH_EEEPT_DpOT0_ENKUlPSH_E_clESP_, symObjAddr: 0x9FA0, symBinAddr: 0x10000AD10, symSize: 0x30 }
  - { offsetInCU: 0x1F027, offset: 0x1F027, size: 0x8, addend: 0x0, symName: __ZNSt3__122__compressed_pair_elemIZN8nlohmann16json_abi_v3_11_310basic_jsonINS_3mapENS_6vectorENS_12basic_stringIcNS_11char_traitsIcEENS_9allocatorIcEEEEbxydS9_NS2_14adl_serializerENS5_IhNS9_IhEEEEvE6createINS2_27byte_container_with_subtypeISE_EEJRKSI_EEEPT_DpOT0_EUlPSI_E_Li1ELb0EE5__getB8ue170006Ev, symObjAddr: 0x9FD0, symBinAddr: 0x10000AD40, symSize: 0xE }
  - { offsetInCU: 0x6DC, offset: 0x1FAFB, size: 0x8, addend: 0x0, symName: __ZN8nlohmann16json_abi_v3_11_36detail9dtoa_impl36get_cached_power_for_binary_exponentEi, symObjAddr: 0xC2C0, symBinAddr: 0x1000121E0, symSize: 0x220 }
  - { offsetInCU: 0x707, offset: 0x1FB26, size: 0x8, addend: 0x0, symName: __ZZN8nlohmann16json_abi_v3_11_36detail9dtoa_impl36get_cached_power_for_binary_exponentEiE13kCachedPowers, symObjAddr: 0x19C88, symBinAddr: 0x10003A4C0, symSize: 0x0 }
  - { offsetInCU: 0x7DB, offset: 0x1FBFA, size: 0x8, addend: 0x0, symName: __ZN8nlohmann16json_abi_v3_11_36detail9dtoa_impl6grisu2IdEEvPcRiS5_T_, symObjAddr: 0xB840, symBinAddr: 0x100011760, symSize: 0x130 }
  - { offsetInCU: 0x84B, offset: 0x1FC6A, size: 0x8, addend: 0x0, symName: __ZN8nlohmann16json_abi_v3_11_36detail9dtoa_impl13format_bufferEPciiii, symObjAddr: 0xB970, symBinAddr: 0x100011890, symSize: 0x2B0 }
  - { offsetInCU: 0x8D3, offset: 0x1FCF2, size: 0x8, addend: 0x0, symName: __ZN8nlohmann16json_abi_v3_11_36detail9dtoa_impl18compute_boundariesIdEENS2_10boundariesET_, symObjAddr: 0xBC20, symBinAddr: 0x100011B40, symSize: 0x290 }
  - { offsetInCU: 0x9E2, offset: 0x1FE01, size: 0x8, addend: 0x0, symName: __ZN8nlohmann16json_abi_v3_11_36detail9dtoa_impl6grisu2EPcRiS4_NS2_5diyfpES5_S5_, symObjAddr: 0xBEB0, symBinAddr: 0x100011DD0, symSize: 0x200 }
  - { offsetInCU: 0xAC6, offset: 0x1FEE5, size: 0x8, addend: 0x0, symName: __ZN8nlohmann16json_abi_v3_11_36detail9dtoa_impl16reinterpret_bitsIydEET_T0_, symObjAddr: 0xC0B0, symBinAddr: 0x100011FD0, symSize: 0x20 }
  - { offsetInCU: 0xBC7, offset: 0x1FFE6, size: 0x8, addend: 0x0, symName: __ZN8nlohmann16json_abi_v3_11_36detail9dtoa_impl16grisu2_digit_genEPcRiS4_NS2_5diyfpES5_S5_, symObjAddr: 0xC610, symBinAddr: 0x100012530, symSize: 0x490 }
  - { offsetInCU: 0xD65, offset: 0x20184, size: 0x8, addend: 0x0, symName: __ZN8nlohmann16json_abi_v3_11_36detail9dtoa_impl18find_largest_pow10EjRj, symObjAddr: 0xCBB0, symBinAddr: 0x100012AD0, symSize: 0x160 }
  - { offsetInCU: 0xDA2, offset: 0x201C1, size: 0x8, addend: 0x0, symName: __ZN8nlohmann16json_abi_v3_11_36detail9dtoa_impl12grisu2_roundEPciyyyy, symObjAddr: 0xCD10, symBinAddr: 0x100012C30, symSize: 0x200 }
  - { offsetInCU: 0xE17, offset: 0x20236, size: 0x8, addend: 0x0, symName: __ZN8nlohmann16json_abi_v3_11_36detail9dtoa_impl15append_exponentEPci, symObjAddr: 0xCF30, symBinAddr: 0x100012E50, symSize: 0x1F0 }
  - { offsetInCU: 0x125A, offset: 0x20679, size: 0x8, addend: 0x0, symName: __ZN8nlohmann16json_abi_v3_11_36detail6concatINSt3__112basic_stringIcNS3_11char_traitsIcEENS3_9allocatorIcEEEEJRA29_KcS9_RA5_SA_S9_EEET_DpOT0_, symObjAddr: 0x9CD0, symBinAddr: 0x10000FE80, symSize: 0xD0 }
  - { offsetInCU: 0x16DF, offset: 0x20AFE, size: 0x8, addend: 0x0, symName: __ZN8nlohmann16json_abi_v3_11_36detail6concatINSt3__112basic_stringIcNS3_11char_traitsIcEENS3_9allocatorIcEEEEJRA39_KcS9_EEET_DpOT0_, symObjAddr: 0x9E90, symBinAddr: 0x100010040, symSize: 0xB0 }
  - { offsetInCU: 0x1745, offset: 0x20B64, size: 0x8, addend: 0x0, symName: __ZN8nlohmann16json_abi_v3_11_36detail6concatINSt3__112basic_stringIcNS3_11char_traitsIcEENS3_9allocatorIcEEEEJS9_S9_RKS9_EEET_DpOT0_, symObjAddr: 0x9FB0, symBinAddr: 0x100010160, symSize: 0xC0 }
  - { offsetInCU: 0x17BF, offset: 0x20BDE, size: 0x8, addend: 0x0, symName: __ZN8nlohmann16json_abi_v3_11_36detail13concat_lengthINSt3__112basic_stringIcNS3_11char_traitsIcEENS3_9allocatorIcEEEEJS9_S9_EEEmRKT_DpRKT0_, symObjAddr: 0xA170, symBinAddr: 0x100010320, symSize: 0x40 }
  - { offsetInCU: 0x1824, offset: 0x20C43, size: 0x8, addend: 0x0, symName: __ZN8nlohmann16json_abi_v3_11_36detail11concat_intoINSt3__112basic_stringIcNS3_11char_traitsIcEENS3_9allocatorIcEEEES9_JS9_RKS9_ELi0EEEvRT_OT0_DpOT1_, symObjAddr: 0xA1B0, symBinAddr: 0x100010360, symSize: 0x40 }
  - { offsetInCU: 0x18A3, offset: 0x20CC2, size: 0x8, addend: 0x0, symName: __ZN8nlohmann16json_abi_v3_11_36detail13concat_lengthINSt3__112basic_stringIcNS3_11char_traitsIcEENS3_9allocatorIcEEEEJS9_EEEmRKT_DpRKT0_, symObjAddr: 0xA1F0, symBinAddr: 0x1000103A0, symSize: 0x40 }
  - { offsetInCU: 0x18F4, offset: 0x20D13, size: 0x8, addend: 0x0, symName: __ZN8nlohmann16json_abi_v3_11_36detail13concat_lengthINSt3__112basic_stringIcNS3_11char_traitsIcEENS3_9allocatorIcEEEEJEEEmRKT_DpRKT0_, symObjAddr: 0xA230, symBinAddr: 0x1000103E0, symSize: 0x30 }
  - { offsetInCU: 0x1930, offset: 0x20D4F, size: 0x8, addend: 0x0, symName: __ZN8nlohmann16json_abi_v3_11_36detail13concat_lengthEv, symObjAddr: 0xA260, symBinAddr: 0x100010410, symSize: 0x10 }
  - { offsetInCU: 0x194F, offset: 0x20D6E, size: 0x8, addend: 0x0, symName: __ZN8nlohmann16json_abi_v3_11_36detail11concat_intoINSt3__112basic_stringIcNS3_11char_traitsIcEENS3_9allocatorIcEEEES9_JRKS9_ELi0EEEvRT_OT0_DpOT1_, symObjAddr: 0xA2C0, symBinAddr: 0x100010470, symSize: 0x40 }
  - { offsetInCU: 0x19BA, offset: 0x20DD9, size: 0x8, addend: 0x0, symName: __ZN8nlohmann16json_abi_v3_11_36detail11concat_intoINSt3__112basic_stringIcNS3_11char_traitsIcEENS3_9allocatorIcEEEERKS9_JELi0EEEvRT_OT0_DpOT1_, symObjAddr: 0xA300, symBinAddr: 0x1000104B0, symSize: 0x30 }
  - { offsetInCU: 0x1A10, offset: 0x20E2F, size: 0x8, addend: 0x0, symName: __ZN8nlohmann16json_abi_v3_11_36detail11concat_intoINSt3__112basic_stringIcNS3_11char_traitsIcEENS3_9allocatorIcEEEEEEvRT_, symObjAddr: 0xA330, symBinAddr: 0x1000104E0, symSize: 0x10 }
  - { offsetInCU: 0x1A40, offset: 0x20E5F, size: 0x8, addend: 0x0, symName: __ZN8nlohmann16json_abi_v3_11_36detail6concatINSt3__112basic_stringIcNS3_11char_traitsIcEENS3_9allocatorIcEEEEJRA17_KcRKS9_cS9_RA3_SA_EEET_DpOT0_, symObjAddr: 0xA340, symBinAddr: 0x1000104F0, symSize: 0xE0 }
  - { offsetInCU: 0x1AE2, offset: 0x20F01, size: 0x8, addend: 0x0, symName: __ZN8nlohmann16json_abi_v3_11_36detail13concat_lengthIJNSt3__112basic_stringIcNS3_11char_traitsIcEENS3_9allocatorIcEEEEcS9_A3_cEEEmPKcDpRKT_, symObjAddr: 0xA420, symBinAddr: 0x1000105D0, symSize: 0x50 }
  - { offsetInCU: 0x1B66, offset: 0x20F85, size: 0x8, addend: 0x0, symName: __ZN8nlohmann16json_abi_v3_11_36detail11concat_intoINSt3__112basic_stringIcNS3_11char_traitsIcEENS3_9allocatorIcEEEERA17_KcJRKS9_cS9_RA3_SA_ELi0EEEvRT_OT0_DpOT1_, symObjAddr: 0xA470, symBinAddr: 0x100010620, symSize: 0x50 }
  - { offsetInCU: 0x1C0D, offset: 0x2102C, size: 0x8, addend: 0x0, symName: __ZN8nlohmann16json_abi_v3_11_36detail13concat_lengthINSt3__112basic_stringIcNS3_11char_traitsIcEENS3_9allocatorIcEEEEJcS9_A3_cEEEmRKT_DpRKT0_, symObjAddr: 0xA4C0, symBinAddr: 0x100010670, symSize: 0x50 }
  - { offsetInCU: 0x1C86, offset: 0x210A5, size: 0x8, addend: 0x0, symName: __ZN8nlohmann16json_abi_v3_11_36detail13concat_lengthIJNSt3__112basic_stringIcNS3_11char_traitsIcEENS3_9allocatorIcEEEEA3_cEEEmcDpRKT_, symObjAddr: 0xA510, symBinAddr: 0x1000106C0, symSize: 0x30 }
  - { offsetInCU: 0x1CDF, offset: 0x210FE, size: 0x8, addend: 0x0, symName: __ZN8nlohmann16json_abi_v3_11_36detail13concat_lengthINSt3__112basic_stringIcNS3_11char_traitsIcEENS3_9allocatorIcEEEEJA3_cEEEmRKT_DpRKT0_, symObjAddr: 0xA540, symBinAddr: 0x1000106F0, symSize: 0x40 }
  - { offsetInCU: 0x1D30, offset: 0x2114F, size: 0x8, addend: 0x0, symName: __ZN8nlohmann16json_abi_v3_11_36detail13concat_lengthIJEEEmPKcDpRKT_, symObjAddr: 0xA580, symBinAddr: 0x100010730, symSize: 0x30 }
  - { offsetInCU: 0x1D63, offset: 0x21182, size: 0x8, addend: 0x0, symName: __ZN8nlohmann16json_abi_v3_11_36detail11concat_intoINSt3__112basic_stringIcNS3_11char_traitsIcEENS3_9allocatorIcEEEERKS9_JcS9_RA3_KcELi0EEEvRT_OT0_DpOT1_, symObjAddr: 0xA5B0, symBinAddr: 0x100010760, symSize: 0x50 }
  - { offsetInCU: 0x1DF6, offset: 0x21215, size: 0x8, addend: 0x0, symName: __ZN8nlohmann16json_abi_v3_11_36detail11concat_intoINSt3__112basic_stringIcNS3_11char_traitsIcEENS3_9allocatorIcEEEEcJS9_RA3_KcELi0EEEvRT_OT0_DpOT1_, symObjAddr: 0xA600, symBinAddr: 0x1000107B0, symSize: 0x50 }
  - { offsetInCU: 0x1E75, offset: 0x21294, size: 0x8, addend: 0x0, symName: __ZN8nlohmann16json_abi_v3_11_36detail11concat_intoINSt3__112basic_stringIcNS3_11char_traitsIcEENS3_9allocatorIcEEEES9_JRA3_KcELi0EEEvRT_OT0_DpOT1_, symObjAddr: 0xA680, symBinAddr: 0x100010830, symSize: 0x40 }
  - { offsetInCU: 0x1EE0, offset: 0x212FF, size: 0x8, addend: 0x0, symName: __ZN8nlohmann16json_abi_v3_11_36detail11concat_intoINSt3__112basic_stringIcNS3_11char_traitsIcEENS3_9allocatorIcEEEERA3_KcJELi0EEEvRT_OT0_DpOT1_, symObjAddr: 0xA6C0, symBinAddr: 0x100010870, symSize: 0x30 }
  - { offsetInCU: 0x1F36, offset: 0x21355, size: 0x8, addend: 0x0, symName: __ZN8nlohmann16json_abi_v3_11_36detail13concat_lengthIJNSt3__112basic_stringIcNS3_11char_traitsIcEENS3_9allocatorIcEEEEA5_cS9_EEEmPKcDpRKT_, symObjAddr: 0xA8A0, symBinAddr: 0x100010A50, symSize: 0x50 }
  - { offsetInCU: 0x1FA6, offset: 0x213C5, size: 0x8, addend: 0x0, symName: __ZN8nlohmann16json_abi_v3_11_36detail11concat_intoINSt3__112basic_stringIcNS3_11char_traitsIcEENS3_9allocatorIcEEEERA29_KcJS9_RA5_SA_S9_ELi0EEEvRT_OT0_DpOT1_, symObjAddr: 0xA8F0, symBinAddr: 0x100010AA0, symSize: 0x50 }
  - { offsetInCU: 0x2039, offset: 0x21458, size: 0x8, addend: 0x0, symName: __ZN8nlohmann16json_abi_v3_11_36detail13concat_lengthINSt3__112basic_stringIcNS3_11char_traitsIcEENS3_9allocatorIcEEEEJA5_cS9_EEEmRKT_DpRKT0_, symObjAddr: 0xA940, symBinAddr: 0x100010AF0, symSize: 0x40 }
  - { offsetInCU: 0x209E, offset: 0x214BD, size: 0x8, addend: 0x0, symName: __ZN8nlohmann16json_abi_v3_11_36detail13concat_lengthIJNSt3__112basic_stringIcNS3_11char_traitsIcEENS3_9allocatorIcEEEEEEEmPKcDpRKT_, symObjAddr: 0xA980, symBinAddr: 0x100010B30, symSize: 0x40 }
  - { offsetInCU: 0x20E6, offset: 0x21505, size: 0x8, addend: 0x0, symName: __ZN8nlohmann16json_abi_v3_11_36detail11concat_intoINSt3__112basic_stringIcNS3_11char_traitsIcEENS3_9allocatorIcEEEES9_JRA5_KcS9_ELi0EEEvRT_OT0_DpOT1_, symObjAddr: 0xA9C0, symBinAddr: 0x100010B70, symSize: 0x40 }
  - { offsetInCU: 0x2165, offset: 0x21584, size: 0x8, addend: 0x0, symName: __ZN8nlohmann16json_abi_v3_11_36detail11concat_intoINSt3__112basic_stringIcNS3_11char_traitsIcEENS3_9allocatorIcEEEERA5_KcJS9_ELi0EEEvRT_OT0_DpOT1_, symObjAddr: 0xAA00, symBinAddr: 0x100010BB0, symSize: 0x40 }
  - { offsetInCU: 0x21D0, offset: 0x215EF, size: 0x8, addend: 0x0, symName: __ZN8nlohmann16json_abi_v3_11_36detail11concat_intoINSt3__112basic_stringIcNS3_11char_traitsIcEENS3_9allocatorIcEEEES9_JELi0EEEvRT_OT0_DpOT1_, symObjAddr: 0xAA40, symBinAddr: 0x100010BF0, symSize: 0x30 }
  - { offsetInCU: 0x2226, offset: 0x21645, size: 0x8, addend: 0x0, symName: __ZN8nlohmann16json_abi_v3_11_36detail11concat_intoINSt3__112basic_stringIcNS3_11char_traitsIcEENS3_9allocatorIcEEEERA39_KcJS9_ELi0EEEvRT_OT0_DpOT1_, symObjAddr: 0xAB70, symBinAddr: 0x100010D20, symSize: 0x40 }
  - { offsetInCU: 0x2291, offset: 0x216B0, size: 0x8, addend: 0x0, symName: __ZN8nlohmann16json_abi_v3_11_36detail8to_charsIdEEPcS3_PKcT_, symObjAddr: 0xB570, symBinAddr: 0x100011490, symSize: 0x2A0 }
  - { offsetInCU: 0x2322, offset: 0x21741, size: 0x8, addend: 0x0, symName: __ZN8nlohmann16json_abi_v3_11_36detail6concatINSt3__112basic_stringIcNS3_11char_traitsIcEENS3_9allocatorIcEEEEJRA29_KcPSA_EEET_DpOT0_, symObjAddr: 0x12DD0, symBinAddr: 0x100013EB0, symSize: 0xB0 }
  - { offsetInCU: 0x2388, offset: 0x217A7, size: 0x8, addend: 0x0, symName: __ZN8nlohmann16json_abi_v3_11_36detail13concat_lengthIJPKcEEEmS4_DpRKT_, symObjAddr: 0x13050, symBinAddr: 0x100014130, symSize: 0x40 }
  - { offsetInCU: 0x23D0, offset: 0x217EF, size: 0x8, addend: 0x0, symName: __ZN8nlohmann16json_abi_v3_11_36detail11concat_intoINSt3__112basic_stringIcNS3_11char_traitsIcEENS3_9allocatorIcEEEERA29_KcJPSA_ELi0EEEvRT_OT0_DpOT1_, symObjAddr: 0x13090, symBinAddr: 0x100014170, symSize: 0x40 }
  - { offsetInCU: 0x243B, offset: 0x2185A, size: 0x8, addend: 0x0, symName: __ZN8nlohmann16json_abi_v3_11_36detail11concat_intoINSt3__112basic_stringIcNS3_11char_traitsIcEENS3_9allocatorIcEEEEPKcJELi0EEEvRT_OT0_DpOT1_, symObjAddr: 0x130D0, symBinAddr: 0x1000141B0, symSize: 0x30 }
  - { offsetInCU: 0x2504, offset: 0x21923, size: 0x8, addend: 0x0, symName: __ZN8nlohmann16json_abi_v3_11_36detail6concatINSt3__112basic_stringIcNS3_11char_traitsIcEENS3_9allocatorIcEEEEJRA56_KcPSA_EEET_DpOT0_, symObjAddr: 0x14CC0, symBinAddr: 0x100015DA0, symSize: 0xB0 }
  - { offsetInCU: 0x256A, offset: 0x21989, size: 0x8, addend: 0x0, symName: __ZN8nlohmann16json_abi_v3_11_36detail11concat_intoINSt3__112basic_stringIcNS3_11char_traitsIcEENS3_9allocatorIcEEEERA56_KcJPSA_ELi0EEEvRT_OT0_DpOT1_, symObjAddr: 0x14DC0, symBinAddr: 0x100015EA0, symSize: 0x40 }
  - { offsetInCU: 0x25D5, offset: 0x219F4, size: 0x8, addend: 0x0, symName: __ZN8nlohmann16json_abi_v3_11_36detail6concatINSt3__112basic_stringIcNS3_11char_traitsIcEENS3_9allocatorIcEEEEJRA52_KcPSA_EEET_DpOT0_, symObjAddr: 0x157F0, symBinAddr: 0x1000168D0, symSize: 0xB0 }
  - { offsetInCU: 0x263B, offset: 0x21A5A, size: 0x8, addend: 0x0, symName: __ZN8nlohmann16json_abi_v3_11_36detail11concat_intoINSt3__112basic_stringIcNS3_11char_traitsIcEENS3_9allocatorIcEEEERA52_KcJPSA_ELi0EEEvRT_OT0_DpOT1_, symObjAddr: 0x158A0, symBinAddr: 0x100016980, symSize: 0x40 }
  - { offsetInCU: 0x26A6, offset: 0x21AC5, size: 0x8, addend: 0x0, symName: __ZN8nlohmann16json_abi_v3_11_36detail7to_jsonINS0_10basic_jsonINSt3__13mapENS4_6vectorENS4_12basic_stringIcNS4_11char_traitsIcEENS4_9allocatorIcEEEEbxydSA_NS0_14adl_serializerENS6_IhNSA_IhEEEEvEEA9_cLi0EEEvRT_RKT0_, symObjAddr: 0x16610, symBinAddr: 0x1000176F0, symSize: 0x30 }
  - { offsetInCU: 0x27E4, offset: 0x21C03, size: 0x8, addend: 0x0, symName: __ZN8nlohmann16json_abi_v3_11_36detail7to_jsonINS0_10basic_jsonINSt3__13mapENS4_6vectorENS4_12basic_stringIcNS4_11char_traitsIcEENS4_9allocatorIcEEEEbxydSA_NS0_14adl_serializerENS6_IhNSA_IhEEEEvEESC_Li0EEEvRT_RKT0_, symObjAddr: 0x16C60, symBinAddr: 0x100017D40, symSize: 0x30 }
  - { offsetInCU: 0x2835, offset: 0x21C54, size: 0x8, addend: 0x0, symName: __ZN8nlohmann16json_abi_v3_11_36detail7to_jsonINS0_10basic_jsonINSt3__13mapENS4_6vectorENS4_12basic_stringIcNS4_11char_traitsIcEENS4_9allocatorIcEEEEbxydSA_NS0_14adl_serializerENS6_IhNSA_IhEEEEvEEA10_cLi0EEEvRT_RKT0_, symObjAddr: 0x16EA0, symBinAddr: 0x100017F80, symSize: 0x30 }
  - { offsetInCU: 0x2886, offset: 0x21CA5, size: 0x8, addend: 0x0, symName: __ZN8nlohmann16json_abi_v3_11_36detail7to_jsonINS0_10basic_jsonINSt3__13mapENS4_6vectorENS4_12basic_stringIcNS4_11char_traitsIcEENS4_9allocatorIcEEEEbxydSA_NS0_14adl_serializerENS6_IhNSA_IhEEEEvEEA5_cLi0EEEvRT_RKT0_, symObjAddr: 0x174F0, symBinAddr: 0x1000185D0, symSize: 0x30 }
  - { offsetInCU: 0x28D7, offset: 0x21CF6, size: 0x8, addend: 0x0, symName: __ZN8nlohmann16json_abi_v3_11_36detail7to_jsonINS0_10basic_jsonINSt3__13mapENS4_6vectorENS4_12basic_stringIcNS4_11char_traitsIcEENS4_9allocatorIcEEEEbxydSA_NS0_14adl_serializerENS6_IhNSA_IhEEEEvEEA3_cLi0EEEvRT_RKT0_, symObjAddr: 0x17B40, symBinAddr: 0x100018C20, symSize: 0x30 }
  - { offsetInCU: 0x2928, offset: 0x21D47, size: 0x8, addend: 0x0, symName: __ZN8nlohmann16json_abi_v3_11_36detail7to_jsonINS0_10basic_jsonINSt3__13mapENS4_6vectorENS4_12basic_stringIcNS4_11char_traitsIcEENS4_9allocatorIcEEEEbxydSA_NS0_14adl_serializerENS6_IhNSA_IhEEEEvEEmLi0EEEvRT_T0_, symObjAddr: 0x18170, symBinAddr: 0x100019250, symSize: 0x30 }
  - { offsetInCU: 0xDE75, offset: 0x2D294, size: 0x8, addend: 0x0, symName: __ZNSt3__17advanceB8ue170006INS_20__map_const_iteratorINS_21__tree_const_iteratorINS_12__value_typeINS_12basic_stringIcNS_11char_traitsIcEENS_9allocatorIcEEEEN8nlohmann16json_abi_v3_11_310basic_jsonINS_3mapENS_6vectorES9_bxydS7_NSB_14adl_serializerENSE_IhNS7_IhEEEEvEEEEPNS_11__tree_nodeISJ_PvEElEEEEllvEEvRT_T0_, symObjAddr: 0xAD60, symBinAddr: 0x100010D70, symSize: 0x30 }
  - { offsetInCU: 0xDF05, offset: 0x2D324, size: 0x8, addend: 0x0, symName: __ZNSt3__124__put_character_sequenceB8ue170006IcNS_11char_traitsIcEEEERNS_13basic_ostreamIT_T0_EES7_PKS4_m, symObjAddr: 0xD150, symBinAddr: 0x100013070, symSize: 0x1F0 }
  - { offsetInCU: 0xEF70, offset: 0x2E38F, size: 0x8, addend: 0x0, symName: __ZNSt3__1lsB8ue170006IcNS_11char_traitsIcEENS_9allocatorIcEEEERNS_13basic_ostreamIT_T0_EES9_RKNS_12basic_stringIS6_S7_T1_EE, symObjAddr: 0xDC0, symBinAddr: 0x10000BAE0, symSize: 0x50 }
  - { offsetInCU: 0xF79C, offset: 0x2EBBB, size: 0x8, addend: 0x0, symName: __ZNSt3__111make_sharedB8ue170006IN8nlohmann16json_abi_v3_11_36detail21output_string_adapterIcNS_12basic_stringIcNS_11char_traitsIcEENS_9allocatorIcEEEEEEJRSA_EvEENS_10shared_ptrIT_EEDpOT0_, symObjAddr: 0x6EC0, symBinAddr: 0x10000D400, symSize: 0x40 }
  - { offsetInCU: 0xF9FB, offset: 0x2EE1A, size: 0x8, addend: 0x0, symName: __ZNSt3__115allocate_sharedB8ue170006IN8nlohmann16json_abi_v3_11_36detail21output_string_adapterIcNS_12basic_stringIcNS_11char_traitsIcEENS_9allocatorIcEEEEEENS8_ISB_EEJRSA_EvEENS_10shared_ptrIT_EERKT0_DpOT1_, symObjAddr: 0x6F50, symBinAddr: 0x10000D490, symSize: 0xB0 }
  - { offsetInCU: 0xFDA8, offset: 0x2F1C7, size: 0x8, addend: 0x0, symName: __ZNSt3__134__libcpp_atomic_refcount_decrementB8ue170006IlEET_RS1_, symObjAddr: 0x7A70, symBinAddr: 0x10000DFB0, symSize: 0x30 }
  - { offsetInCU: 0xFDDD, offset: 0x2F1FC, size: 0x8, addend: 0x0, symName: __ZNSt3__134__libcpp_atomic_refcount_incrementB8ue170006IlEET_RS1_, symObjAddr: 0x7B60, symBinAddr: 0x10000E0A0, symSize: 0x30 }
  - { offsetInCU: 0xFE11, offset: 0x2F230, size: 0x8, addend: 0x0, symName: __ZNSt3__1eqB8ue170006ERKNS_20__map_const_iteratorINS_21__tree_const_iteratorINS_12__value_typeINS_12basic_stringIcNS_11char_traitsIcEENS_9allocatorIcEEEEN8nlohmann16json_abi_v3_11_310basic_jsonINS_3mapENS_6vectorES8_bxydS6_NSA_14adl_serializerENSD_IhNS6_IhEEEEvEEEEPNS_11__tree_nodeISI_PvEElEEEESQ_, symObjAddr: 0x8BC0, symBinAddr: 0x10000F020, symSize: 0x30 }
  - { offsetInCU: 0xFE4F, offset: 0x2F26E, size: 0x8, addend: 0x0, symName: __ZNSt3__14nextB8ue170006INS_20__map_const_iteratorINS_21__tree_const_iteratorINS_12__value_typeINS_12basic_stringIcNS_11char_traitsIcEENS_9allocatorIcEEEEN8nlohmann16json_abi_v3_11_310basic_jsonINS_3mapENS_6vectorES9_bxydS7_NSB_14adl_serializerENSE_IhNS7_IhEEEEvEEEEPNS_11__tree_nodeISJ_PvEElEEEEEENS_9enable_ifIXsr29__has_input_iterator_categoryIT_EE5valueESR_E4typeESR_NS_15iterator_traitsISR_E15difference_typeE, symObjAddr: 0x8BF0, symBinAddr: 0x10000F050, symSize: 0x30 }
  - { offsetInCU: 0xFE92, offset: 0x2F2B1, size: 0x8, addend: 0x0, symName: __ZNSt3__1neB8ue170006IPKN8nlohmann16json_abi_v3_11_310basic_jsonINS_3mapENS_6vectorENS_12basic_stringIcNS_11char_traitsIcEENS_9allocatorIcEEEEbxydS9_NS2_14adl_serializerENS5_IhNS9_IhEEEEvEEEEbRKNS_11__wrap_iterIT_EESM_, symObjAddr: 0x8C50, symBinAddr: 0x10000F0B0, symSize: 0x30 }
  - { offsetInCU: 0xFED5, offset: 0x2F2F4, size: 0x8, addend: 0x0, symName: __ZNSt3__1neB8ue170006IPKhEEbRKNS_11__wrap_iterIT_EES7_, symObjAddr: 0x8D70, symBinAddr: 0x10000F1D0, symSize: 0x30 }
  - { offsetInCU: 0xFF7E, offset: 0x2F39D, size: 0x8, addend: 0x0, symName: __ZNSt3__19__advanceB8ue170006INS_20__map_const_iteratorINS_21__tree_const_iteratorINS_12__value_typeINS_12basic_stringIcNS_11char_traitsIcEENS_9allocatorIcEEEEN8nlohmann16json_abi_v3_11_310basic_jsonINS_3mapENS_6vectorES9_bxydS7_NSB_14adl_serializerENSE_IhNS7_IhEEEEvEEEEPNS_11__tree_nodeISJ_PvEElEEEEEEvRT_NS_15iterator_traitsISQ_E15difference_typeENS_26bidirectional_iterator_tagE, symObjAddr: 0xADA0, symBinAddr: 0x100010DA0, symSize: 0x80 }
  - { offsetInCU: 0xFFC8, offset: 0x2F3E7, size: 0x8, addend: 0x0, symName: __ZNSt3__1eqB8ue170006IPKN8nlohmann16json_abi_v3_11_310basic_jsonINS_3mapENS_6vectorENS_12basic_stringIcNS_11char_traitsIcEENS_9allocatorIcEEEEbxydS9_NS2_14adl_serializerENS5_IhNS9_IhEEEEvEEEEbRKNS_11__wrap_iterIT_EESM_, symObjAddr: 0xAFE0, symBinAddr: 0x100010F00, symSize: 0x40 }
  - { offsetInCU: 0x1000B, offset: 0x2F42A, size: 0x8, addend: 0x0, symName: __ZNSt3__1eqB8ue170006IPKhEEbRKNS_11__wrap_iterIT_EES7_, symObjAddr: 0xB180, symBinAddr: 0x1000110A0, symSize: 0x40 }
  - { offsetInCU: 0x1042A, offset: 0x2F849, size: 0x8, addend: 0x0, symName: __ZNSt3__116__pad_and_outputB8ue170006IcNS_11char_traitsIcEEEENS_19ostreambuf_iteratorIT_T0_EES6_PKS4_S8_S8_RNS_8ios_baseES4_, symObjAddr: 0xD360, symBinAddr: 0x100013280, symSize: 0x220 }
  - { offsetInCU: 0x104FC, offset: 0x2F91B, size: 0x8, addend: 0x0, symName: __ZNSt3__112__to_addressB8ue170006IcEEPT_S2_, symObjAddr: 0xD740, symBinAddr: 0x100013660, symSize: 0x10 }
  - { offsetInCU: 0x10531, offset: 0x2F950, size: 0x8, addend: 0x0, symName: __ZNSt3__19use_facetB8ue170006INS_5ctypeIcEEEERKT_RKNS_6localeE, symObjAddr: 0xD890, symBinAddr: 0x1000137B0, symSize: 0x30 }
  - { offsetInCU: 0x10F7A, offset: 0x30399, size: 0x8, addend: 0x0, symName: __ZNSt3__1neB8ue170006INS_3mapINS_12basic_stringIcNS_11char_traitsIcEENS_9allocatorIcEEEEN8nlohmann16json_abi_v3_11_310basic_jsonIS1_NS_6vectorES7_bxydS5_NS9_14adl_serializerENSB_IhNS5_IhEEEEvEENS_4lessIvEENS5_INS_4pairIKS7_SF_EEEEEEZNSF_6createISM_JEEEPT_DpOT0_EUlPSM_E_EEbRKNS_10unique_ptrISO_T0_EEDn, symObjAddr: 0x13880, symBinAddr: 0x100014960, symSize: 0x30 }
  - { offsetInCU: 0x11306, offset: 0x30725, size: 0x8, addend: 0x0, symName: __ZNSt3__1neB8ue170006INS_6vectorIN8nlohmann16json_abi_v3_11_310basic_jsonINS_3mapES1_NS_12basic_stringIcNS_11char_traitsIcEENS_9allocatorIcEEEEbxydS9_NS3_14adl_serializerENS1_IhNS9_IhEEEEvEENS9_ISF_EEEEZNSF_6createISH_JEEEPT_DpOT0_EUlPSH_E_EEbRKNS_10unique_ptrISJ_T0_EEDn, symObjAddr: 0x13DE0, symBinAddr: 0x100014EC0, symSize: 0x30 }
  - { offsetInCU: 0x11692, offset: 0x30AB1, size: 0x8, addend: 0x0, symName: __ZNSt3__1neB8ue170006INS_12basic_stringIcNS_11char_traitsIcEENS_9allocatorIcEEEEZN8nlohmann16json_abi_v3_11_310basic_jsonINS_3mapENS_6vectorES6_bxydS4_NS8_14adl_serializerENSB_IhNS4_IhEEEEvE6createIS6_JRA1_KcEEEPT_DpOT0_EUlPS6_E_EEbRKNS_10unique_ptrISK_T0_EEDn, symObjAddr: 0x14150, symBinAddr: 0x100015230, symSize: 0x30 }
  - { offsetInCU: 0x11A1E, offset: 0x30E3D, size: 0x8, addend: 0x0, symName: __ZNSt3__1neB8ue170006IN8nlohmann16json_abi_v3_11_327byte_container_with_subtypeINS_6vectorIhNS_9allocatorIhEEEEEEZNS2_10basic_jsonINS_3mapES4_NS_12basic_stringIcNS_11char_traitsIcEENS5_IcEEEEbxydS5_NS2_14adl_serializerES7_vE6createIS8_JEEEPT_DpOT0_EUlPS8_E_EEbRKNS_10unique_ptrISJ_T0_EEDn, symObjAddr: 0x144D0, symBinAddr: 0x1000155B0, symSize: 0x30 }
  - { offsetInCU: 0x11A9E, offset: 0x30EBD, size: 0x8, addend: 0x0, symName: __ZNSt3__16all_ofB8ue170006IPKN8nlohmann16json_abi_v3_11_36detail8json_refINS2_10basic_jsonINS_3mapENS_6vectorENS_12basic_stringIcNS_11char_traitsIcEENS_9allocatorIcEEEEbxydSB_NS2_14adl_serializerENS7_IhNSB_IhEEEEvEEEEZNSH_C1ESt16initializer_listISI_EbNS3_7value_tEEUlRSJ_E_EEbT_SQ_T0_, symObjAddr: 0x15240, symBinAddr: 0x100016320, symSize: 0x70 }
  - { offsetInCU: 0x11E5B, offset: 0x3127A, size: 0x8, addend: 0x0, symName: __ZNSt3__1neB8ue170006INS_6vectorIN8nlohmann16json_abi_v3_11_310basic_jsonINS_3mapES1_NS_12basic_stringIcNS_11char_traitsIcEENS_9allocatorIcEEEEbxydS9_NS3_14adl_serializerENS1_IhNS9_IhEEEEvEENS9_ISF_EEEEZNSF_6createISH_JPKNS3_6detail8json_refISF_EESN_EEEPT_DpOT0_EUlPSH_E_EEbRKNS_10unique_ptrISO_T0_EEDn, symObjAddr: 0x15C10, symBinAddr: 0x100016CF0, symSize: 0x30 }
  - { offsetInCU: 0x11EA8, offset: 0x312C7, size: 0x8, addend: 0x0, symName: __ZNSt3__18distanceB8ue170006IPKN8nlohmann16json_abi_v3_11_36detail8json_refINS2_10basic_jsonINS_3mapENS_6vectorENS_12basic_stringIcNS_11char_traitsIcEENS_9allocatorIcEEEEbxydSB_NS2_14adl_serializerENS7_IhNSB_IhEEEEvEEEEEENS_15iterator_traitsIT_E15difference_typeESM_SM_, symObjAddr: 0x15E50, symBinAddr: 0x100016F30, symSize: 0x30 }
  - { offsetInCU: 0x11EEB, offset: 0x3130A, size: 0x8, addend: 0x0, symName: __ZNSt3__110__distanceB8ue170006IPKN8nlohmann16json_abi_v3_11_36detail8json_refINS2_10basic_jsonINS_3mapENS_6vectorENS_12basic_stringIcNS_11char_traitsIcEENS_9allocatorIcEEEEbxydSB_NS2_14adl_serializerENS7_IhNSB_IhEEEEvEEEEEENS_15iterator_traitsIT_E15difference_typeESM_SM_NS_26random_access_iterator_tagE, symObjAddr: 0x15F30, symBinAddr: 0x100017010, symSize: 0x30 }
  - { offsetInCU: 0x11F38, offset: 0x31357, size: 0x8, addend: 0x0, symName: __ZNSt3__130__uninitialized_allocator_copyB8ue170006INS_9allocatorIN8nlohmann16json_abi_v3_11_310basic_jsonINS_3mapENS_6vectorENS_12basic_stringIcNS_11char_traitsIcEENS1_IcEEEEbxydS1_NS3_14adl_serializerENS6_IhNS1_IhEEEEvEEEEPKNS3_6detail8json_refISF_EESL_PSF_EET2_RT_T0_T1_SN_, symObjAddr: 0x15FF0, symBinAddr: 0x1000170D0, symSize: 0x80 }
  - { offsetInCU: 0x11FD6, offset: 0x313F5, size: 0x8, addend: 0x0, symName: __ZNSt3__114__unwrap_rangeB8ue170006IPKN8nlohmann16json_abi_v3_11_36detail8json_refINS2_10basic_jsonINS_3mapENS_6vectorENS_12basic_stringIcNS_11char_traitsIcEENS_9allocatorIcEEEEbxydSB_NS2_14adl_serializerENS7_IhNSB_IhEEEEvEEEESK_EENS_4pairIT0_SM_EET_SO_, symObjAddr: 0x16070, symBinAddr: 0x100017150, symSize: 0x50 }
  - { offsetInCU: 0x12021, offset: 0x31440, size: 0x8, addend: 0x0, symName: __ZNSt3__135__uninitialized_allocator_copy_implB8ue170006INS_9allocatorIN8nlohmann16json_abi_v3_11_310basic_jsonINS_3mapENS_6vectorENS_12basic_stringIcNS_11char_traitsIcEENS1_IcEEEEbxydS1_NS3_14adl_serializerENS6_IhNS1_IhEEEEvEEEEPKNS3_6detail8json_refISF_EESL_PSF_EET2_RT_T0_T1_SN_, symObjAddr: 0x160C0, symBinAddr: 0x1000171A0, symSize: 0x100 }
  - { offsetInCU: 0x120BF, offset: 0x314DE, size: 0x8, addend: 0x0, symName: __ZNSt3__19make_pairB8ue170006IPKN8nlohmann16json_abi_v3_11_36detail8json_refINS2_10basic_jsonINS_3mapENS_6vectorENS_12basic_stringIcNS_11char_traitsIcEENS_9allocatorIcEEEEbxydSB_NS2_14adl_serializerENS7_IhNSB_IhEEEEvEEEESK_EENS_4pairINS_18__unwrap_ref_decayIT_E4typeENSM_IT0_E4typeEEEOSN_OSQ_, symObjAddr: 0x161C0, symBinAddr: 0x1000172A0, symSize: 0x30 }
  - { offsetInCU: 0x1210F, offset: 0x3152E, size: 0x8, addend: 0x0, symName: __ZNSt3__113__unwrap_iterB8ue170006IPKN8nlohmann16json_abi_v3_11_36detail8json_refINS2_10basic_jsonINS_3mapENS_6vectorENS_12basic_stringIcNS_11char_traitsIcEENS_9allocatorIcEEEEbxydSB_NS2_14adl_serializerENS7_IhNSB_IhEEEEvEEEENS_18__unwrap_iter_implISK_Lb1EEELi0EEEDTclsrT0_8__unwrapclsr3stdE7declvalIT_EEEESO_, symObjAddr: 0x161F0, symBinAddr: 0x1000172D0, symSize: 0x20 }
  - { offsetInCU: 0x1227A, offset: 0x31699, size: 0x8, addend: 0x0, symName: __ZNSt3__112__to_addressB8ue170006IKN8nlohmann16json_abi_v3_11_36detail8json_refINS2_10basic_jsonINS_3mapENS_6vectorENS_12basic_stringIcNS_11char_traitsIcEENS_9allocatorIcEEEEbxydSB_NS2_14adl_serializerENS7_IhNSB_IhEEEEvEEEEEEPT_SL_, symObjAddr: 0x16290, symBinAddr: 0x100017370, symSize: 0x10 }
  - { offsetInCU: 0x125EE, offset: 0x31A0D, size: 0x8, addend: 0x0, symName: __ZNSt3__1neB8ue170006INS_12basic_stringIcNS_11char_traitsIcEENS_9allocatorIcEEEEZN8nlohmann16json_abi_v3_11_310basic_jsonINS_3mapENS_6vectorES6_bxydS4_NS8_14adl_serializerENSB_IhNS4_IhEEEEvE6createIS6_JRA9_KcEEEPT_DpOT0_EUlPS6_E_EEbRKNS_10unique_ptrISK_T0_EEDn, symObjAddr: 0x16810, symBinAddr: 0x1000178F0, symSize: 0x30 }
  - { offsetInCU: 0x1297A, offset: 0x31D99, size: 0x8, addend: 0x0, symName: __ZNSt3__1neB8ue170006INS_12basic_stringIcNS_11char_traitsIcEENS_9allocatorIcEEEEZN8nlohmann16json_abi_v3_11_310basic_jsonINS_3mapENS_6vectorES6_bxydS4_NS8_14adl_serializerENSB_IhNS4_IhEEEEvE6createIS6_JRA10_KcEEEPT_DpOT0_EUlPS6_E_EEbRKNS_10unique_ptrISK_T0_EEDn, symObjAddr: 0x170A0, symBinAddr: 0x100018180, symSize: 0x30 }
  - { offsetInCU: 0x12D06, offset: 0x32125, size: 0x8, addend: 0x0, symName: __ZNSt3__1neB8ue170006INS_12basic_stringIcNS_11char_traitsIcEENS_9allocatorIcEEEEZN8nlohmann16json_abi_v3_11_310basic_jsonINS_3mapENS_6vectorES6_bxydS4_NS8_14adl_serializerENSB_IhNS4_IhEEEEvE6createIS6_JRA5_KcEEEPT_DpOT0_EUlPS6_E_EEbRKNS_10unique_ptrISK_T0_EEDn, symObjAddr: 0x176F0, symBinAddr: 0x1000187D0, symSize: 0x30 }
  - { offsetInCU: 0x13092, offset: 0x324B1, size: 0x8, addend: 0x0, symName: __ZNSt3__1neB8ue170006INS_12basic_stringIcNS_11char_traitsIcEENS_9allocatorIcEEEEZN8nlohmann16json_abi_v3_11_310basic_jsonINS_3mapENS_6vectorES6_bxydS4_NS8_14adl_serializerENSB_IhNS4_IhEEEEvE6createIS6_JRA3_KcEEEPT_DpOT0_EUlPS6_E_EEbRKNS_10unique_ptrISK_T0_EEDn, symObjAddr: 0x17D40, symBinAddr: 0x100018E20, symSize: 0x30 }
  - { offsetInCU: 0x13D3A, offset: 0x33159, size: 0x8, addend: 0x0, symName: __ZN8nlohmann16json_abi_v3_11_36detail10serializerINS0_10basic_jsonINSt3__13mapENS4_6vectorENS4_12basic_stringIcNS4_11char_traitsIcEENS4_9allocatorIcEEEEbxydSA_NS0_14adl_serializerENS6_IhNSA_IhEEEEvEEE6decodeERhRjh, symObjAddr: 0x99B0, symBinAddr: 0x10000FB60, symSize: 0x180 }
  - { offsetInCU: 0x13DF4, offset: 0x33213, size: 0x8, addend: 0x0, symName: __ZN8nlohmann16json_abi_v3_11_36detail10serializerINS0_10basic_jsonINSt3__13mapENS4_6vectorENS4_12basic_stringIcNS4_11char_traitsIcEENS4_9allocatorIcEEEEbxydSA_NS0_14adl_serializerENS6_IhNSA_IhEEEEvEEE12dump_integerIhLi0EEEvT_, symObjAddr: 0x8E00, symBinAddr: 0x10000F260, symSize: 0x290 }
  - { offsetInCU: 0x13F3A, offset: 0x33359, size: 0x8, addend: 0x0, symName: __ZN8nlohmann16json_abi_v3_11_36detail10serializerINS0_10basic_jsonINSt3__13mapENS4_6vectorENS4_12basic_stringIcNS4_11char_traitsIcEENS4_9allocatorIcEEEEbxydSA_NS0_14adl_serializerENS6_IhNSA_IhEEEEvEEE12dump_integerIyLi0EEEvT_, symObjAddr: 0x9110, symBinAddr: 0x10000F570, symSize: 0x280 }
  - { offsetInCU: 0x13FFC, offset: 0x3341B, size: 0x8, addend: 0x0, symName: __ZN8nlohmann16json_abi_v3_11_36detail10serializerINS0_10basic_jsonINSt3__13mapENS4_6vectorENS4_12basic_stringIcNS4_11char_traitsIcEENS4_9allocatorIcEEEEbxydSA_NS0_14adl_serializerENS6_IhNSA_IhEEEEvEEE12dump_integerIxLi0EEEvT_, symObjAddr: 0x93E0, symBinAddr: 0x10000F840, symSize: 0x280 }
  - { offsetInCU: 0x140BE, offset: 0x334DD, size: 0x8, addend: 0x0, symName: __ZN8nlohmann16json_abi_v3_11_36detail10serializerINS0_10basic_jsonINSt3__13mapENS4_6vectorENS4_12basic_stringIcNS4_11char_traitsIcEENS4_9allocatorIcEEEEbxydSA_NS0_14adl_serializerENS6_IhNSA_IhEEEEvEEE10dump_floatEd, symObjAddr: 0x9660, symBinAddr: 0x10000FAC0, symSize: 0x70 }
  - { offsetInCU: 0x14152, offset: 0x33571, size: 0x8, addend: 0x0, symName: __ZN8nlohmann16json_abi_v3_11_36detail12static_constINS1_10to_json_fnEE5valueE, symObjAddr: 0x1A1AA, symBinAddr: 0x10003A9E2, symSize: 0x0 }
  - { offsetInCU: 0x1625C, offset: 0x3567B, size: 0x8, addend: 0x0, symName: __ZN4UserC2Ev, symObjAddr: 0x0, symBinAddr: 0x10000AD50, symSize: 0x70 }
  - { offsetInCU: 0x1628E, offset: 0x356AD, size: 0x8, addend: 0x0, symName: __ZN4UserC1Ev, symObjAddr: 0xA0, symBinAddr: 0x10000ADC0, symSize: 0x20 }
  - { offsetInCU: 0x162BA, offset: 0x356D9, size: 0x8, addend: 0x0, symName: __ZN4UserD2Ev, symObjAddr: 0xC0, symBinAddr: 0x10000ADE0, symSize: 0x30 }
  - { offsetInCU: 0x162E6, offset: 0x35705, size: 0x8, addend: 0x0, symName: __ZN4UserD1Ev, symObjAddr: 0xF0, symBinAddr: 0x10000AE10, symSize: 0x20 }
  - { offsetInCU: 0x16312, offset: 0x35731, size: 0x8, addend: 0x0, symName: __ZN4User12getFirstnameEv, symObjAddr: 0x110, symBinAddr: 0x10000AE30, symSize: 0x30 }
  - { offsetInCU: 0x1633A, offset: 0x35759, size: 0x8, addend: 0x0, symName: __ZN4User11getLastnameEv, symObjAddr: 0x140, symBinAddr: 0x10000AE60, symSize: 0x30 }
  - { offsetInCU: 0x16362, offset: 0x35781, size: 0x8, addend: 0x0, symName: __ZN4User12setFistrnameENSt3__112basic_stringIcNS0_11char_traitsIcEENS0_9allocatorIcEEEE, symObjAddr: 0x170, symBinAddr: 0x10000AE90, symSize: 0x30 }
  - { offsetInCU: 0x16399, offset: 0x357B8, size: 0x8, addend: 0x0, symName: __ZN4User11setLastnameENSt3__112basic_stringIcNS0_11char_traitsIcEENS0_9allocatorIcEEEE, symObjAddr: 0x1A0, symBinAddr: 0x10000AEC0, symSize: 0x20 }
  - { offsetInCU: 0x163D0, offset: 0x357EF, size: 0x8, addend: 0x0, symName: __ZN4User11setUserTypeE4type, symObjAddr: 0x1C0, symBinAddr: 0x10000AEE0, symSize: 0x20 }
  - { offsetInCU: 0x16406, offset: 0x35825, size: 0x8, addend: 0x0, symName: __ZN4User11getUserTypeEv, symObjAddr: 0x1E0, symBinAddr: 0x10000AF00, symSize: 0x20 }
  - { offsetInCU: 0x1642E, offset: 0x3584D, size: 0x8, addend: 0x0, symName: __ZN4User10createUserE4body, symObjAddr: 0x200, symBinAddr: 0x10000AF20, symSize: 0xBC0 }
  - { offsetInCU: 0x16484, offset: 0x358A3, size: 0x8, addend: 0x0, symName: __ZNK8nlohmann16json_abi_v3_11_310basic_jsonINSt3__13mapENS2_6vectorENS2_12basic_stringIcNS2_11char_traitsIcEENS2_9allocatorIcEEEEbxydS8_NS0_14adl_serializerENS4_IhNS8_IhEEEEvE4dumpEicbNS0_6detail15error_handler_tE, symObjAddr: 0xE10, symBinAddr: 0x10000BB30, symSize: 0x250 }
  - { offsetInCU: 0x1650C, offset: 0x3592B, size: 0x8, addend: 0x0, symName: __ZN8nlohmann16json_abi_v3_11_310basic_jsonINSt3__13mapENS2_6vectorENS2_12basic_stringIcNS2_11char_traitsIcEENS2_9allocatorIcEEEEbxydS8_NS0_14adl_serializerENS4_IhNS8_IhEEEEvE9push_backESt16initializer_listINS0_6detail8json_refISE_EEE, symObjAddr: 0x1100, symBinAddr: 0x10000BD80, symSize: 0x1F0 }
  - { offsetInCU: 0x16570, offset: 0x3598F, size: 0x8, addend: 0x0, symName: __ZN8nlohmann16json_abi_v3_11_36detail8json_refINS0_10basic_jsonINSt3__13mapENS4_6vectorENS4_12basic_stringIcNS4_11char_traitsIcEENS4_9allocatorIcEEEEbxydSA_NS0_14adl_serializerENS6_IhNSA_IhEEEEvEEEC1IJRA9_KcELi0EEEDpOT_, symObjAddr: 0x12F0, symBinAddr: 0x10000BF70, symSize: 0x30 }
  - { offsetInCU: 0x165BA, offset: 0x359D9, size: 0x8, addend: 0x0, symName: __ZN8nlohmann16json_abi_v3_11_36detail8json_refINS0_10basic_jsonINSt3__13mapENS4_6vectorENS4_12basic_stringIcNS4_11char_traitsIcEENS4_9allocatorIcEEEEbxydSA_NS0_14adl_serializerENS6_IhNSA_IhEEEEvEEEC1IJRSC_ELi0EEEDpOT_, symObjAddr: 0x1320, symBinAddr: 0x10000BFA0, symSize: 0x30 }
  - { offsetInCU: 0x16604, offset: 0x35A23, size: 0x8, addend: 0x0, symName: __ZN8nlohmann16json_abi_v3_11_36detail8json_refINS0_10basic_jsonINSt3__13mapENS4_6vectorENS4_12basic_stringIcNS4_11char_traitsIcEENS4_9allocatorIcEEEEbxydSA_NS0_14adl_serializerENS6_IhNSA_IhEEEEvEEED1Ev, symObjAddr: 0x1350, symBinAddr: 0x10000BFD0, symSize: 0x20 }
  - { offsetInCU: 0x1662E, offset: 0x35A4D, size: 0x8, addend: 0x0, symName: __ZN8nlohmann16json_abi_v3_11_36detail8json_refINS0_10basic_jsonINSt3__13mapENS4_6vectorENS4_12basic_stringIcNS4_11char_traitsIcEENS4_9allocatorIcEEEEbxydSA_NS0_14adl_serializerENS6_IhNSA_IhEEEEvEEEC1ESt16initializer_listISH_E, symObjAddr: 0x1370, symBinAddr: 0x10000BFF0, symSize: 0x30 }
  - { offsetInCU: 0x16680, offset: 0x35A9F, size: 0x8, addend: 0x0, symName: __ZN8nlohmann16json_abi_v3_11_36detail8json_refINS0_10basic_jsonINSt3__13mapENS4_6vectorENS4_12basic_stringIcNS4_11char_traitsIcEENS4_9allocatorIcEEEEbxydSA_NS0_14adl_serializerENS6_IhNSA_IhEEEEvEEEC1IJRA10_KcELi0EEEDpOT_, symObjAddr: 0x13A0, symBinAddr: 0x10000C020, symSize: 0x30 }
  - { offsetInCU: 0x166E3, offset: 0x35B02, size: 0x8, addend: 0x0, symName: __ZN8nlohmann16json_abi_v3_11_36detail8json_refINS0_10basic_jsonINSt3__13mapENS4_6vectorENS4_12basic_stringIcNS4_11char_traitsIcEENS4_9allocatorIcEEEEbxydSA_NS0_14adl_serializerENS6_IhNSA_IhEEEEvEEEC1IJRA5_KcELi0EEEDpOT_, symObjAddr: 0x13D0, symBinAddr: 0x10000C050, symSize: 0x30 }
  - { offsetInCU: 0x16746, offset: 0x35B65, size: 0x8, addend: 0x0, symName: __ZN8nlohmann16json_abi_v3_11_36detail8json_refINS0_10basic_jsonINSt3__13mapENS4_6vectorENS4_12basic_stringIcNS4_11char_traitsIcEENS4_9allocatorIcEEEEbxydSA_NS0_14adl_serializerENS6_IhNSA_IhEEEEvEEEC1IJRA3_KcELi0EEEDpOT_, symObjAddr: 0x1400, symBinAddr: 0x10000C080, symSize: 0x30 }
  - { offsetInCU: 0x16790, offset: 0x35BAF, size: 0x8, addend: 0x0, symName: __ZN8nlohmann16json_abi_v3_11_36detail8json_refINS0_10basic_jsonINSt3__13mapENS4_6vectorENS4_12basic_stringIcNS4_11char_traitsIcEENS4_9allocatorIcEEEEbxydSA_NS0_14adl_serializerENS6_IhNSA_IhEEEEvEEEC1IJRmELi0EEEDpOT_, symObjAddr: 0x1430, symBinAddr: 0x10000C0B0, symSize: 0x30 }
  - { offsetInCU: 0x167DA, offset: 0x35BF9, size: 0x8, addend: 0x0, symName: __ZN8nlohmann16json_abi_v3_11_36detail8json_refINS0_10basic_jsonINSt3__13mapENS4_6vectorENS4_12basic_stringIcNS4_11char_traitsIcEENS4_9allocatorIcEEEEbxydSA_NS0_14adl_serializerENS6_IhNSA_IhEEEEvEEED2Ev, symObjAddr: 0x1460, symBinAddr: 0x10000C0E0, symSize: 0x20 }
  - { offsetInCU: 0x16894, offset: 0x35CB3, size: 0x8, addend: 0x0, symName: __ZN8nlohmann16json_abi_v3_11_36detail14output_adapterIcNSt3__112basic_stringIcNS3_11char_traitsIcEENS3_9allocatorIcEEEEEC1ERS9_, symObjAddr: 0x5BC0, symBinAddr: 0x10000C100, symSize: 0x30 }
  - { offsetInCU: 0x168CD, offset: 0x35CEC, size: 0x8, addend: 0x0, symName: __ZN8nlohmann16json_abi_v3_11_36detail14output_adapterIcNSt3__112basic_stringIcNS3_11char_traitsIcEENS3_9allocatorIcEEEEEcvNS3_10shared_ptrINS1_23output_adapter_protocolIcEEEEEv, symObjAddr: 0x5BF0, symBinAddr: 0x10000C130, symSize: 0x30 }
  - { offsetInCU: 0x168F3, offset: 0x35D12, size: 0x8, addend: 0x0, symName: __ZN8nlohmann16json_abi_v3_11_36detail10serializerINS0_10basic_jsonINSt3__13mapENS4_6vectorENS4_12basic_stringIcNS4_11char_traitsIcEENS4_9allocatorIcEEEEbxydSA_NS0_14adl_serializerENS6_IhNSA_IhEEEEvEEEC1ENS4_10shared_ptrINS1_23output_adapter_protocolIcEEEEcNS1_15error_handler_tE, symObjAddr: 0x5C20, symBinAddr: 0x10000C160, symSize: 0x30 }
  - { offsetInCU: 0x1694B, offset: 0x35D6A, size: 0x8, addend: 0x0, symName: __ZNSt3__110shared_ptrIN8nlohmann16json_abi_v3_11_36detail23output_adapter_protocolIcEEED1B8ue170006Ev, symObjAddr: 0x5C50, symBinAddr: 0x10000C190, symSize: 0x20 }
  - { offsetInCU: 0x16975, offset: 0x35D94, size: 0x8, addend: 0x0, symName: __ZN8nlohmann16json_abi_v3_11_36detail14output_adapterIcNSt3__112basic_stringIcNS3_11char_traitsIcEENS3_9allocatorIcEEEEED1Ev, symObjAddr: 0x5C70, symBinAddr: 0x10000C1B0, symSize: 0x20 }
  - { offsetInCU: 0x169A2, offset: 0x35DC1, size: 0x8, addend: 0x0, symName: __ZN8nlohmann16json_abi_v3_11_36detail10serializerINS0_10basic_jsonINSt3__13mapENS4_6vectorENS4_12basic_stringIcNS4_11char_traitsIcEENS4_9allocatorIcEEEEbxydSA_NS0_14adl_serializerENS6_IhNSA_IhEEEEvEEE4dumpERKSG_bbjj, symObjAddr: 0x5C90, symBinAddr: 0x10000C1D0, symSize: 0x11C0 }
  - { offsetInCU: 0x16B4C, offset: 0x35F6B, size: 0x8, addend: 0x0, symName: __ZN8nlohmann16json_abi_v3_11_36detail10serializerINS0_10basic_jsonINSt3__13mapENS4_6vectorENS4_12basic_stringIcNS4_11char_traitsIcEENS4_9allocatorIcEEEEbxydSA_NS0_14adl_serializerENS6_IhNSA_IhEEEEvEEED1Ev, symObjAddr: 0x6E50, symBinAddr: 0x10000D390, symSize: 0x20 }
  - { offsetInCU: 0x16B76, offset: 0x35F95, size: 0x8, addend: 0x0, symName: __ZN8nlohmann16json_abi_v3_11_36detail14output_adapterIcNSt3__112basic_stringIcNS3_11char_traitsIcEENS3_9allocatorIcEEEEEC2ERS9_, symObjAddr: 0x6E70, symBinAddr: 0x10000D3B0, symSize: 0x50 }
  - { offsetInCU: 0x16BD8, offset: 0x35FF7, size: 0x8, addend: 0x0, symName: __ZNSt3__110shared_ptrIN8nlohmann16json_abi_v3_11_36detail23output_adapter_protocolIcEEEC1B8ue170006INS3_21output_string_adapterIcNS_12basic_stringIcNS_11char_traitsIcEENS_9allocatorIcEEEEEEvEEONS0_IT_EE, symObjAddr: 0x6F00, symBinAddr: 0x10000D440, symSize: 0x30 }
  - { offsetInCU: 0x16C1B, offset: 0x3603A, size: 0x8, addend: 0x0, symName: __ZNSt3__110shared_ptrIN8nlohmann16json_abi_v3_11_36detail21output_string_adapterIcNS_12basic_stringIcNS_11char_traitsIcEENS_9allocatorIcEEEEEEED1B8ue170006Ev, symObjAddr: 0x6F30, symBinAddr: 0x10000D470, symSize: 0x20 }
  - { offsetInCU: 0x16C45, offset: 0x36064, size: 0x8, addend: 0x0, symName: __ZNSt3__19allocatorIN8nlohmann16json_abi_v3_11_36detail21output_string_adapterIcNS_12basic_stringIcNS_11char_traitsIcEENS0_IcEEEEEEEC1B8ue170006Ev, symObjAddr: 0x7000, symBinAddr: 0x10000D540, symSize: 0x20 }
  - { offsetInCU: 0x16CC6, offset: 0x360E5, size: 0x8, addend: 0x0, symName: __ZNSt3__118__allocation_guardINS_9allocatorINS_20__shared_ptr_emplaceIN8nlohmann16json_abi_v3_11_36detail21output_string_adapterIcNS_12basic_stringIcNS_11char_traitsIcEENS1_IcEEEEEENS1_ISC_EEEEEEEC1B8ue170006ISD_EET_m, symObjAddr: 0x7020, symBinAddr: 0x10000D560, symSize: 0x30 }
  - { offsetInCU: 0x16D15, offset: 0x36134, size: 0x8, addend: 0x0, symName: __ZNKSt3__118__allocation_guardINS_9allocatorINS_20__shared_ptr_emplaceIN8nlohmann16json_abi_v3_11_36detail21output_string_adapterIcNS_12basic_stringIcNS_11char_traitsIcEENS1_IcEEEEEENS1_ISC_EEEEEEE5__getB8ue170006Ev, symObjAddr: 0x7050, symBinAddr: 0x10000D590, symSize: 0x20 }
  - { offsetInCU: 0x16D3B, offset: 0x3615A, size: 0x8, addend: 0x0, symName: __ZNSt3__120__shared_ptr_emplaceIN8nlohmann16json_abi_v3_11_36detail21output_string_adapterIcNS_12basic_stringIcNS_11char_traitsIcEENS_9allocatorIcEEEEEENS8_ISB_EEEC1B8ue170006IJRSA_EEESC_DpOT_, symObjAddr: 0x7070, symBinAddr: 0x10000D5B0, symSize: 0x30 }
  - { offsetInCU: 0x16D8E, offset: 0x361AD, size: 0x8, addend: 0x0, symName: __ZNSt3__118__allocation_guardINS_9allocatorINS_20__shared_ptr_emplaceIN8nlohmann16json_abi_v3_11_36detail21output_string_adapterIcNS_12basic_stringIcNS_11char_traitsIcEENS1_IcEEEEEENS1_ISC_EEEEEEE13__release_ptrB8ue170006Ev, symObjAddr: 0x70A0, symBinAddr: 0x10000D5E0, symSize: 0x30 }
  - { offsetInCU: 0x16DC2, offset: 0x361E1, size: 0x8, addend: 0x0, symName: __ZNSt3__110shared_ptrIN8nlohmann16json_abi_v3_11_36detail21output_string_adapterIcNS_12basic_stringIcNS_11char_traitsIcEENS_9allocatorIcEEEEEEE27__create_with_control_blockB8ue170006ISB_NS_20__shared_ptr_emplaceISB_NS8_ISB_EEEEEESC_PT_PT0_, symObjAddr: 0x70D0, symBinAddr: 0x10000D610, symSize: 0x70 }
  - { offsetInCU: 0x16E17, offset: 0x36236, size: 0x8, addend: 0x0, symName: __ZNSt3__120__shared_ptr_emplaceIN8nlohmann16json_abi_v3_11_36detail21output_string_adapterIcNS_12basic_stringIcNS_11char_traitsIcEENS_9allocatorIcEEEEEENS8_ISB_EEE10__get_elemB8ue170006Ev, symObjAddr: 0x7140, symBinAddr: 0x10000D680, symSize: 0x20 }
  - { offsetInCU: 0x16E3D, offset: 0x3625C, size: 0x8, addend: 0x0, symName: __ZNSt3__118__allocation_guardINS_9allocatorINS_20__shared_ptr_emplaceIN8nlohmann16json_abi_v3_11_36detail21output_string_adapterIcNS_12basic_stringIcNS_11char_traitsIcEENS1_IcEEEEEENS1_ISC_EEEEEEED1B8ue170006Ev, symObjAddr: 0x7160, symBinAddr: 0x10000D6A0, symSize: 0x20 }
  - { offsetInCU: 0x16E67, offset: 0x36286, size: 0x8, addend: 0x0, symName: __ZNSt3__118__allocation_guardINS_9allocatorINS_20__shared_ptr_emplaceIN8nlohmann16json_abi_v3_11_36detail21output_string_adapterIcNS_12basic_stringIcNS_11char_traitsIcEENS1_IcEEEEEENS1_ISC_EEEEEEEC2B8ue170006ISD_EET_m, symObjAddr: 0x7180, symBinAddr: 0x10000D6C0, symSize: 0x50 }
  - { offsetInCU: 0x16EB6, offset: 0x362D5, size: 0x8, addend: 0x0, symName: __ZNSt3__19allocatorINS_20__shared_ptr_emplaceIN8nlohmann16json_abi_v3_11_36detail21output_string_adapterIcNS_12basic_stringIcNS_11char_traitsIcEENS0_IcEEEEEENS0_ISB_EEEEEC1B8ue170006ISB_EERKNS0_IT_EE, symObjAddr: 0x71D0, symBinAddr: 0x10000D710, symSize: 0x30 }
  - { offsetInCU: 0x16EF4, offset: 0x36313, size: 0x8, addend: 0x0, symName: __ZNSt3__116allocator_traitsINS_9allocatorINS_20__shared_ptr_emplaceIN8nlohmann16json_abi_v3_11_36detail21output_string_adapterIcNS_12basic_stringIcNS_11char_traitsIcEENS1_IcEEEEEENS1_ISC_EEEEEEE8allocateB8ue170006ERSF_m, symObjAddr: 0x7200, symBinAddr: 0x10000D740, symSize: 0x30 }
  - { offsetInCU: 0x16F27, offset: 0x36346, size: 0x8, addend: 0x0, symName: __ZNSt3__19allocatorINS_20__shared_ptr_emplaceIN8nlohmann16json_abi_v3_11_36detail21output_string_adapterIcNS_12basic_stringIcNS_11char_traitsIcEENS0_IcEEEEEENS0_ISB_EEEEEC2B8ue170006ISB_EERKNS0_IT_EE, symObjAddr: 0x7230, symBinAddr: 0x10000D770, symSize: 0x20 }
  - { offsetInCU: 0x16F65, offset: 0x36384, size: 0x8, addend: 0x0, symName: __ZNSt3__116__non_trivial_ifILb1ENS_9allocatorINS_20__shared_ptr_emplaceIN8nlohmann16json_abi_v3_11_36detail21output_string_adapterIcNS_12basic_stringIcNS_11char_traitsIcEENS1_IcEEEEEENS1_ISC_EEEEEEEC2B8ue170006Ev, symObjAddr: 0x7250, symBinAddr: 0x10000D790, symSize: 0x10 }
  - { offsetInCU: 0x16F8F, offset: 0x363AE, size: 0x8, addend: 0x0, symName: __ZNSt3__19allocatorINS_20__shared_ptr_emplaceIN8nlohmann16json_abi_v3_11_36detail21output_string_adapterIcNS_12basic_stringIcNS_11char_traitsIcEENS0_IcEEEEEENS0_ISB_EEEEE8allocateB8ue170006Em, symObjAddr: 0x7260, symBinAddr: 0x10000D7A0, symSize: 0x50 }
  - { offsetInCU: 0x16FCE, offset: 0x363ED, size: 0x8, addend: 0x0, symName: __ZNSt3__116allocator_traitsINS_9allocatorINS_20__shared_ptr_emplaceIN8nlohmann16json_abi_v3_11_36detail21output_string_adapterIcNS_12basic_stringIcNS_11char_traitsIcEENS1_IcEEEEEENS1_ISC_EEEEEEE8max_sizeB8ue170006ISF_vEEmRKSF_, symObjAddr: 0x72B0, symBinAddr: 0x10000D7F0, symSize: 0x20 }
  - { offsetInCU: 0x16FFC, offset: 0x3641B, size: 0x8, addend: 0x0, symName: __ZNKSt3__19allocatorINS_20__shared_ptr_emplaceIN8nlohmann16json_abi_v3_11_36detail21output_string_adapterIcNS_12basic_stringIcNS_11char_traitsIcEENS0_IcEEEEEENS0_ISB_EEEEE8max_sizeB8ue170006Ev, symObjAddr: 0x72D0, symBinAddr: 0x10000D810, symSize: 0x20 }
  - { offsetInCU: 0x17022, offset: 0x36441, size: 0x8, addend: 0x0, symName: __ZNSt3__120__shared_ptr_emplaceIN8nlohmann16json_abi_v3_11_36detail21output_string_adapterIcNS_12basic_stringIcNS_11char_traitsIcEENS_9allocatorIcEEEEEENS8_ISB_EEEC2B8ue170006IJRSA_EEESC_DpOT_, symObjAddr: 0x72F0, symBinAddr: 0x10000D830, symSize: 0x80 }
  - { offsetInCU: 0x17075, offset: 0x36494, size: 0x8, addend: 0x0, symName: __ZNSt3__119__shared_weak_countC2B8ue170006El, symObjAddr: 0x7370, symBinAddr: 0x10000D8B0, symSize: 0x50 }
  - { offsetInCU: 0x170AD, offset: 0x364CC, size: 0x8, addend: 0x0, symName: __ZNSt3__120__shared_ptr_emplaceIN8nlohmann16json_abi_v3_11_36detail21output_string_adapterIcNS_12basic_stringIcNS_11char_traitsIcEENS_9allocatorIcEEEEEENS8_ISB_EEE8_StorageC1B8ue170006EOSC_, symObjAddr: 0x73C0, symBinAddr: 0x10000D900, symSize: 0x30 }
  - { offsetInCU: 0x170E6, offset: 0x36505, size: 0x8, addend: 0x0, symName: __ZN8nlohmann16json_abi_v3_11_36detail21output_string_adapterIcNSt3__112basic_stringIcNS3_11char_traitsIcEENS3_9allocatorIcEEEEEC1ERS9_, symObjAddr: 0x73F0, symBinAddr: 0x10000D930, symSize: 0x30 }
  - { offsetInCU: 0x1711F, offset: 0x3653E, size: 0x8, addend: 0x0, symName: __ZNSt3__120__shared_ptr_emplaceIN8nlohmann16json_abi_v3_11_36detail21output_string_adapterIcNS_12basic_stringIcNS_11char_traitsIcEENS_9allocatorIcEEEEEENS8_ISB_EEED1Ev, symObjAddr: 0x7420, symBinAddr: 0x10000D960, symSize: 0x20 }
  - { offsetInCU: 0x1714C, offset: 0x3656B, size: 0x8, addend: 0x0, symName: __ZNSt3__120__shared_ptr_emplaceIN8nlohmann16json_abi_v3_11_36detail21output_string_adapterIcNS_12basic_stringIcNS_11char_traitsIcEENS_9allocatorIcEEEEEENS8_ISB_EEED0Ev, symObjAddr: 0x7440, symBinAddr: 0x10000D980, symSize: 0x30 }
  - { offsetInCU: 0x17179, offset: 0x36598, size: 0x8, addend: 0x0, symName: __ZNSt3__120__shared_ptr_emplaceIN8nlohmann16json_abi_v3_11_36detail21output_string_adapterIcNS_12basic_stringIcNS_11char_traitsIcEENS_9allocatorIcEEEEEENS8_ISB_EEE16__on_zero_sharedEv, symObjAddr: 0x7470, symBinAddr: 0x10000D9B0, symSize: 0x30 }
  - { offsetInCU: 0x1719F, offset: 0x365BE, size: 0x8, addend: 0x0, symName: __ZNSt3__120__shared_ptr_emplaceIN8nlohmann16json_abi_v3_11_36detail21output_string_adapterIcNS_12basic_stringIcNS_11char_traitsIcEENS_9allocatorIcEEEEEENS8_ISB_EEE21__on_zero_shared_weakEv, symObjAddr: 0x74A0, symBinAddr: 0x10000D9E0, symSize: 0x60 }
  - { offsetInCU: 0x171E0, offset: 0x365FF, size: 0x8, addend: 0x0, symName: __ZNSt3__114__shared_countC2B8ue170006El, symObjAddr: 0x7500, symBinAddr: 0x10000DA40, symSize: 0x30 }
  - { offsetInCU: 0x17218, offset: 0x36637, size: 0x8, addend: 0x0, symName: __ZNSt3__120__shared_ptr_emplaceIN8nlohmann16json_abi_v3_11_36detail21output_string_adapterIcNS_12basic_stringIcNS_11char_traitsIcEENS_9allocatorIcEEEEEENS8_ISB_EEE8_StorageC2B8ue170006EOSC_, symObjAddr: 0x7530, symBinAddr: 0x10000DA70, symSize: 0x20 }
  - { offsetInCU: 0x17251, offset: 0x36670, size: 0x8, addend: 0x0, symName: __ZNSt3__120__shared_ptr_emplaceIN8nlohmann16json_abi_v3_11_36detail21output_string_adapterIcNS_12basic_stringIcNS_11char_traitsIcEENS_9allocatorIcEEEEEENS8_ISB_EEE8_Storage11__get_allocB8ue170006Ev, symObjAddr: 0x7550, symBinAddr: 0x10000DA90, symSize: 0x40 }
  - { offsetInCU: 0x172A4, offset: 0x366C3, size: 0x8, addend: 0x0, symName: __ZNSt3__117__compressed_pairINS_9allocatorIN8nlohmann16json_abi_v3_11_36detail21output_string_adapterIcNS_12basic_stringIcNS_11char_traitsIcEENS1_IcEEEEEEEESB_E16__get_first_baseB8ue170006EPSD_, symObjAddr: 0x7590, symBinAddr: 0x10000DAD0, symSize: 0x10 }
  - { offsetInCU: 0x172C7, offset: 0x366E6, size: 0x8, addend: 0x0, symName: __ZN8nlohmann16json_abi_v3_11_36detail21output_string_adapterIcNSt3__112basic_stringIcNS3_11char_traitsIcEENS3_9allocatorIcEEEEEC2ERS9_, symObjAddr: 0x75A0, symBinAddr: 0x10000DAE0, symSize: 0x40 }
  - { offsetInCU: 0x17300, offset: 0x3671F, size: 0x8, addend: 0x0, symName: __ZN8nlohmann16json_abi_v3_11_36detail23output_adapter_protocolIcEC2Ev, symObjAddr: 0x75E0, symBinAddr: 0x10000DB20, symSize: 0x20 }
  - { offsetInCU: 0x1732A, offset: 0x36749, size: 0x8, addend: 0x0, symName: __ZN8nlohmann16json_abi_v3_11_36detail21output_string_adapterIcNSt3__112basic_stringIcNS3_11char_traitsIcEENS3_9allocatorIcEEEEE15write_characterEc, symObjAddr: 0x7600, symBinAddr: 0x10000DB40, symSize: 0x30 }
  - { offsetInCU: 0x1735F, offset: 0x3677E, size: 0x8, addend: 0x0, symName: __ZN8nlohmann16json_abi_v3_11_36detail21output_string_adapterIcNSt3__112basic_stringIcNS3_11char_traitsIcEENS3_9allocatorIcEEEEE16write_charactersEPKcm, symObjAddr: 0x7630, symBinAddr: 0x10000DB70, symSize: 0x30 }
  - { offsetInCU: 0x173A3, offset: 0x367C2, size: 0x8, addend: 0x0, symName: __ZN8nlohmann16json_abi_v3_11_36detail21output_string_adapterIcNSt3__112basic_stringIcNS3_11char_traitsIcEENS3_9allocatorIcEEEEED1Ev, symObjAddr: 0x7660, symBinAddr: 0x10000DBA0, symSize: 0x20 }
  - { offsetInCU: 0x173D0, offset: 0x367EF, size: 0x8, addend: 0x0, symName: __ZN8nlohmann16json_abi_v3_11_36detail21output_string_adapterIcNSt3__112basic_stringIcNS3_11char_traitsIcEENS3_9allocatorIcEEEEED0Ev, symObjAddr: 0x7680, symBinAddr: 0x10000DBC0, symSize: 0x30 }
  - { offsetInCU: 0x173FD, offset: 0x3681C, size: 0x8, addend: 0x0, symName: __ZN8nlohmann16json_abi_v3_11_36detail23output_adapter_protocolIcED1Ev, symObjAddr: 0x76B0, symBinAddr: 0x10000DBF0, symSize: 0x10 }
  - { offsetInCU: 0x17427, offset: 0x36846, size: 0x8, addend: 0x0, symName: __ZN8nlohmann16json_abi_v3_11_36detail23output_adapter_protocolIcED0Ev, symObjAddr: 0x76C0, symBinAddr: 0x10000DC00, symSize: 0x10 }
  - { offsetInCU: 0x17451, offset: 0x36870, size: 0x8, addend: 0x0, symName: __ZN8nlohmann16json_abi_v3_11_36detail21output_string_adapterIcNSt3__112basic_stringIcNS3_11char_traitsIcEENS3_9allocatorIcEEEEED2Ev, symObjAddr: 0x76D0, symBinAddr: 0x10000DC10, symSize: 0x20 }
  - { offsetInCU: 0x1747E, offset: 0x3689D, size: 0x8, addend: 0x0, symName: __ZN8nlohmann16json_abi_v3_11_36detail23output_adapter_protocolIcED2Ev, symObjAddr: 0x76F0, symBinAddr: 0x10000DC30, symSize: 0x10 }
  - { offsetInCU: 0x174A8, offset: 0x368C7, size: 0x8, addend: 0x0, symName: __ZNSt3__120__shared_ptr_emplaceIN8nlohmann16json_abi_v3_11_36detail21output_string_adapterIcNS_12basic_stringIcNS_11char_traitsIcEENS_9allocatorIcEEEEEENS8_ISB_EEED2Ev, symObjAddr: 0x7700, symBinAddr: 0x10000DC40, symSize: 0x40 }
  - { offsetInCU: 0x174D5, offset: 0x368F4, size: 0x8, addend: 0x0, symName: __ZNSt3__120__shared_ptr_emplaceIN8nlohmann16json_abi_v3_11_36detail21output_string_adapterIcNS_12basic_stringIcNS_11char_traitsIcEENS_9allocatorIcEEEEEENS8_ISB_EEE8_StorageD1B8ue170006Ev, symObjAddr: 0x7740, symBinAddr: 0x10000DC80, symSize: 0x20 }
  - { offsetInCU: 0x174FF, offset: 0x3691E, size: 0x8, addend: 0x0, symName: __ZNSt3__120__shared_ptr_emplaceIN8nlohmann16json_abi_v3_11_36detail21output_string_adapterIcNS_12basic_stringIcNS_11char_traitsIcEENS_9allocatorIcEEEEEENS8_ISB_EEE8_StorageD2B8ue170006Ev, symObjAddr: 0x7760, symBinAddr: 0x10000DCA0, symSize: 0x20 }
  - { offsetInCU: 0x17529, offset: 0x36948, size: 0x8, addend: 0x0, symName: __ZNSt3__120__shared_ptr_emplaceIN8nlohmann16json_abi_v3_11_36detail21output_string_adapterIcNS_12basic_stringIcNS_11char_traitsIcEENS_9allocatorIcEEEEEENS8_ISB_EEE11__get_allocB8ue170006Ev, symObjAddr: 0x7780, symBinAddr: 0x10000DCC0, symSize: 0x20 }
  - { offsetInCU: 0x1754F, offset: 0x3696E, size: 0x8, addend: 0x0, symName: __ZNSt3__116allocator_traitsINS_9allocatorINS_20__shared_ptr_emplaceIN8nlohmann16json_abi_v3_11_36detail21output_string_adapterIcNS_12basic_stringIcNS_11char_traitsIcEENS1_IcEEEEEENS1_ISC_EEEEEEE10deallocateB8ue170006ERSF_PSE_m, symObjAddr: 0x77A0, symBinAddr: 0x10000DCE0, symSize: 0x30 }
  - { offsetInCU: 0x17591, offset: 0x369B0, size: 0x8, addend: 0x0, symName: __ZNSt3__114pointer_traitsIPNS_20__shared_ptr_emplaceIN8nlohmann16json_abi_v3_11_36detail21output_string_adapterIcNS_12basic_stringIcNS_11char_traitsIcEENS_9allocatorIcEEEEEENS9_ISC_EEEEE10pointer_toB8ue170006ERSE_, symObjAddr: 0x77D0, symBinAddr: 0x10000DD10, symSize: 0x10 }
  - { offsetInCU: 0x175B4, offset: 0x369D3, size: 0x8, addend: 0x0, symName: __ZNSt3__19allocatorINS_20__shared_ptr_emplaceIN8nlohmann16json_abi_v3_11_36detail21output_string_adapterIcNS_12basic_stringIcNS_11char_traitsIcEENS0_IcEEEEEENS0_ISB_EEEEE10deallocateB8ue170006EPSD_m, symObjAddr: 0x77E0, symBinAddr: 0x10000DD20, symSize: 0x50 }
  - { offsetInCU: 0x175F6, offset: 0x36A15, size: 0x8, addend: 0x0, symName: __ZNSt3__110shared_ptrIN8nlohmann16json_abi_v3_11_36detail21output_string_adapterIcNS_12basic_stringIcNS_11char_traitsIcEENS_9allocatorIcEEEEEEEC1B8ue170006Ev, symObjAddr: 0x7830, symBinAddr: 0x10000DD70, symSize: 0x20 }
  - { offsetInCU: 0x17620, offset: 0x36A3F, size: 0x8, addend: 0x0, symName: __ZNSt3__110shared_ptrIN8nlohmann16json_abi_v3_11_36detail21output_string_adapterIcNS_12basic_stringIcNS_11char_traitsIcEENS_9allocatorIcEEEEEEE18__enable_weak_thisB8ue170006Ez, symObjAddr: 0x7850, symBinAddr: 0x10000DD90, symSize: 0x10 }
  - { offsetInCU: 0x17647, offset: 0x36A66, size: 0x8, addend: 0x0, symName: __ZNSt3__110shared_ptrIN8nlohmann16json_abi_v3_11_36detail21output_string_adapterIcNS_12basic_stringIcNS_11char_traitsIcEENS_9allocatorIcEEEEEEEC2B8ue170006Ev, symObjAddr: 0x7860, symBinAddr: 0x10000DDA0, symSize: 0x20 }
  - { offsetInCU: 0x17671, offset: 0x36A90, size: 0x8, addend: 0x0, symName: __ZNSt3__120__shared_ptr_emplaceIN8nlohmann16json_abi_v3_11_36detail21output_string_adapterIcNS_12basic_stringIcNS_11char_traitsIcEENS_9allocatorIcEEEEEENS8_ISB_EEE8_Storage10__get_elemB8ue170006Ev, symObjAddr: 0x7880, symBinAddr: 0x10000DDC0, symSize: 0x40 }
  - { offsetInCU: 0x176C4, offset: 0x36AE3, size: 0x8, addend: 0x0, symName: __ZNSt3__117__compressed_pairINS_9allocatorIN8nlohmann16json_abi_v3_11_36detail21output_string_adapterIcNS_12basic_stringIcNS_11char_traitsIcEENS1_IcEEEEEEEESB_E17__get_second_baseB8ue170006EPSD_, symObjAddr: 0x78C0, symBinAddr: 0x10000DE00, symSize: 0x10 }
  - { offsetInCU: 0x176E7, offset: 0x36B06, size: 0x8, addend: 0x0, symName: __ZNSt3__118__allocation_guardINS_9allocatorINS_20__shared_ptr_emplaceIN8nlohmann16json_abi_v3_11_36detail21output_string_adapterIcNS_12basic_stringIcNS_11char_traitsIcEENS1_IcEEEEEENS1_ISC_EEEEEEED2B8ue170006Ev, symObjAddr: 0x78D0, symBinAddr: 0x10000DE10, symSize: 0x20 }
  - { offsetInCU: 0x17711, offset: 0x36B30, size: 0x8, addend: 0x0, symName: __ZNSt3__118__allocation_guardINS_9allocatorINS_20__shared_ptr_emplaceIN8nlohmann16json_abi_v3_11_36detail21output_string_adapterIcNS_12basic_stringIcNS_11char_traitsIcEENS1_IcEEEEEENS1_ISC_EEEEEEE9__destroyB8ue170006Ev, symObjAddr: 0x78F0, symBinAddr: 0x10000DE30, symSize: 0x40 }
  - { offsetInCU: 0x17737, offset: 0x36B56, size: 0x8, addend: 0x0, symName: __ZNSt3__19allocatorIN8nlohmann16json_abi_v3_11_36detail21output_string_adapterIcNS_12basic_stringIcNS_11char_traitsIcEENS0_IcEEEEEEEC2B8ue170006Ev, symObjAddr: 0x7930, symBinAddr: 0x10000DE70, symSize: 0x20 }
  - { offsetInCU: 0x17761, offset: 0x36B80, size: 0x8, addend: 0x0, symName: __ZNSt3__116__non_trivial_ifILb1ENS_9allocatorIN8nlohmann16json_abi_v3_11_36detail21output_string_adapterIcNS_12basic_stringIcNS_11char_traitsIcEENS1_IcEEEEEEEEEC2B8ue170006Ev, symObjAddr: 0x7950, symBinAddr: 0x10000DE90, symSize: 0x10 }
  - { offsetInCU: 0x1778B, offset: 0x36BAA, size: 0x8, addend: 0x0, symName: __ZNSt3__110shared_ptrIN8nlohmann16json_abi_v3_11_36detail23output_adapter_protocolIcEEEC2B8ue170006INS3_21output_string_adapterIcNS_12basic_stringIcNS_11char_traitsIcEENS_9allocatorIcEEEEEEvEEONS0_IT_EE, symObjAddr: 0x7960, symBinAddr: 0x10000DEA0, symSize: 0x40 }
  - { offsetInCU: 0x177CE, offset: 0x36BED, size: 0x8, addend: 0x0, symName: __ZNSt3__110shared_ptrIN8nlohmann16json_abi_v3_11_36detail21output_string_adapterIcNS_12basic_stringIcNS_11char_traitsIcEENS_9allocatorIcEEEEEEED2B8ue170006Ev, symObjAddr: 0x79A0, symBinAddr: 0x10000DEE0, symSize: 0x40 }
  - { offsetInCU: 0x177F8, offset: 0x36C17, size: 0x8, addend: 0x0, symName: __ZNSt3__119__shared_weak_count16__release_sharedB8ue170006Ev, symObjAddr: 0x79E0, symBinAddr: 0x10000DF20, symSize: 0x40 }
  - { offsetInCU: 0x1781E, offset: 0x36C3D, size: 0x8, addend: 0x0, symName: __ZNSt3__114__shared_count16__release_sharedB8ue170006Ev, symObjAddr: 0x7A20, symBinAddr: 0x10000DF60, symSize: 0x50 }
  - { offsetInCU: 0x17844, offset: 0x36C63, size: 0x8, addend: 0x0, symName: __ZNSt3__110shared_ptrIN8nlohmann16json_abi_v3_11_36detail23output_adapter_protocolIcEEEC1B8ue170006ERKS6_, symObjAddr: 0x7AA0, symBinAddr: 0x10000DFE0, symSize: 0x30 }
  - { offsetInCU: 0x1787D, offset: 0x36C9C, size: 0x8, addend: 0x0, symName: __ZNSt3__110shared_ptrIN8nlohmann16json_abi_v3_11_36detail23output_adapter_protocolIcEEEC2B8ue170006ERKS6_, symObjAddr: 0x7AD0, symBinAddr: 0x10000E010, symSize: 0x50 }
  - { offsetInCU: 0x178B6, offset: 0x36CD5, size: 0x8, addend: 0x0, symName: __ZNSt3__119__shared_weak_count12__add_sharedB8ue170006Ev, symObjAddr: 0x7B20, symBinAddr: 0x10000E060, symSize: 0x20 }
  - { offsetInCU: 0x178DC, offset: 0x36CFB, size: 0x8, addend: 0x0, symName: __ZNSt3__114__shared_count12__add_sharedB8ue170006Ev, symObjAddr: 0x7B40, symBinAddr: 0x10000E080, symSize: 0x20 }
  - { offsetInCU: 0x17902, offset: 0x36D21, size: 0x8, addend: 0x0, symName: __ZN8nlohmann16json_abi_v3_11_36detail10serializerINS0_10basic_jsonINSt3__13mapENS4_6vectorENS4_12basic_stringIcNS4_11char_traitsIcEENS4_9allocatorIcEEEEbxydSA_NS0_14adl_serializerENS6_IhNSA_IhEEEEvEEEC2ENS4_10shared_ptrINS1_23output_adapter_protocolIcEEEEcNS1_15error_handler_tE, symObjAddr: 0x7B90, symBinAddr: 0x10000E0D0, symSize: 0x170 }
  - { offsetInCU: 0x1795A, offset: 0x36D79, size: 0x8, addend: 0x0, symName: __ZNSt3__110shared_ptrIN8nlohmann16json_abi_v3_11_36detail23output_adapter_protocolIcEEEC1B8ue170006EOS6_, symObjAddr: 0x7D00, symBinAddr: 0x10000E240, symSize: 0x30 }
  - { offsetInCU: 0x17993, offset: 0x36DB2, size: 0x8, addend: 0x0, symName: __ZNSt3__111char_traitsIcE12to_char_typeB8ue170006Ei, symObjAddr: 0x7D30, symBinAddr: 0x10000E270, symSize: 0x10 }
  - { offsetInCU: 0x179B6, offset: 0x36DD5, size: 0x8, addend: 0x0, symName: __ZNSt3__112basic_stringIcNS_11char_traitsIcEENS_9allocatorIcEEEC1B8ue170006Emc, symObjAddr: 0x7D40, symBinAddr: 0x10000E280, symSize: 0x30 }
  - { offsetInCU: 0x179FE, offset: 0x36E1D, size: 0x8, addend: 0x0, symName: __ZNSt3__110shared_ptrIN8nlohmann16json_abi_v3_11_36detail23output_adapter_protocolIcEEEC2B8ue170006EOS6_, symObjAddr: 0x7D70, symBinAddr: 0x10000E2B0, symSize: 0x40 }
  - { offsetInCU: 0x17A37, offset: 0x36E56, size: 0x8, addend: 0x0, symName: __ZNSt3__112basic_stringIcNS_11char_traitsIcEENS_9allocatorIcEEEC2B8ue170006Emc, symObjAddr: 0x7DB0, symBinAddr: 0x10000E2F0, symSize: 0x50 }
  - { offsetInCU: 0x17A7F, offset: 0x36E9E, size: 0x8, addend: 0x0, symName: __ZNSt3__110shared_ptrIN8nlohmann16json_abi_v3_11_36detail23output_adapter_protocolIcEEED2B8ue170006Ev, symObjAddr: 0x7E00, symBinAddr: 0x10000E340, symSize: 0x40 }
  - { offsetInCU: 0x17AA9, offset: 0x36EC8, size: 0x8, addend: 0x0, symName: __ZN8nlohmann16json_abi_v3_11_36detail14output_adapterIcNSt3__112basic_stringIcNS3_11char_traitsIcEENS3_9allocatorIcEEEEED2Ev, symObjAddr: 0x7E40, symBinAddr: 0x10000E380, symSize: 0x20 }
  - { offsetInCU: 0x17AD6, offset: 0x36EF5, size: 0x8, addend: 0x0, symName: __ZNKSt3__13mapINS_12basic_stringIcNS_11char_traitsIcEENS_9allocatorIcEEEEN8nlohmann16json_abi_v3_11_310basic_jsonIS0_NS_6vectorES6_bxydS4_NS8_14adl_serializerENSA_IhNS4_IhEEEEvEENS_4lessIvEENS4_INS_4pairIKS6_SE_EEEEE5emptyB8ue170006Ev, symObjAddr: 0x7E60, symBinAddr: 0x10000E3A0, symSize: 0x30 }
  - { offsetInCU: 0x17AFC, offset: 0x36F1B, size: 0x8, addend: 0x0, symName: __ZNKSt3__110shared_ptrIN8nlohmann16json_abi_v3_11_36detail23output_adapter_protocolIcEEEptB8ue170006Ev, symObjAddr: 0x7E90, symBinAddr: 0x10000E3D0, symSize: 0x20 }
  - { offsetInCU: 0x17B22, offset: 0x36F41, size: 0x8, addend: 0x0, symName: __ZNKSt3__13mapINS_12basic_stringIcNS_11char_traitsIcEENS_9allocatorIcEEEEN8nlohmann16json_abi_v3_11_310basic_jsonIS0_NS_6vectorES6_bxydS4_NS8_14adl_serializerENSA_IhNS4_IhEEEEvEENS_4lessIvEENS4_INS_4pairIKS6_SE_EEEEE6cbeginB8ue170006Ev, symObjAddr: 0x7F00, symBinAddr: 0x10000E3F0, symSize: 0x30 }
  - { offsetInCU: 0x17B48, offset: 0x36F67, size: 0x8, addend: 0x0, symName: __ZNKSt3__112basic_stringIcNS_11char_traitsIcEENS_9allocatorIcEEE5c_strB8ue170006Ev, symObjAddr: 0x7F30, symBinAddr: 0x10000E420, symSize: 0x20 }
  - { offsetInCU: 0x17B6E, offset: 0x36F8D, size: 0x8, addend: 0x0, symName: __ZN8nlohmann16json_abi_v3_11_36detail10serializerINS0_10basic_jsonINSt3__13mapENS4_6vectorENS4_12basic_stringIcNS4_11char_traitsIcEENS4_9allocatorIcEEEEbxydSA_NS0_14adl_serializerENS6_IhNSA_IhEEEEvEEE12dump_escapedERKSC_b, symObjAddr: 0x7F50, symBinAddr: 0x10000E440, symSize: 0xBB0 }
  - { offsetInCU: 0x17C2A, offset: 0x37049, size: 0x8, addend: 0x0, symName: __ZNKSt3__120__map_const_iteratorINS_21__tree_const_iteratorINS_12__value_typeINS_12basic_stringIcNS_11char_traitsIcEENS_9allocatorIcEEEEN8nlohmann16json_abi_v3_11_310basic_jsonINS_3mapENS_6vectorES8_bxydS6_NSA_14adl_serializerENSD_IhNS6_IhEEEEvEEEEPNS_11__tree_nodeISI_PvEElEEEptB8ue170006Ev, symObjAddr: 0x8B00, symBinAddr: 0x10000EFF0, symSize: 0x30 }
  - { offsetInCU: 0x17C50, offset: 0x3706F, size: 0x8, addend: 0x0, symName: __ZNKSt3__16vectorIN8nlohmann16json_abi_v3_11_310basic_jsonINS_3mapES0_NS_12basic_stringIcNS_11char_traitsIcEENS_9allocatorIcEEEEbxydS8_NS2_14adl_serializerENS0_IhNS8_IhEEEEvEENS8_ISE_EEE6cbeginB8ue170006Ev, symObjAddr: 0x8C20, symBinAddr: 0x10000F080, symSize: 0x30 }
  - { offsetInCU: 0x17C76, offset: 0x37095, size: 0x8, addend: 0x0, symName: __ZNKSt3__16vectorIN8nlohmann16json_abi_v3_11_310basic_jsonINS_3mapES0_NS_12basic_stringIcNS_11char_traitsIcEENS_9allocatorIcEEEEbxydS8_NS2_14adl_serializerENS0_IhNS8_IhEEEEvEENS8_ISE_EEE4cendB8ue170006Ev, symObjAddr: 0x8C80, symBinAddr: 0x10000F0E0, symSize: 0x30 }
  - { offsetInCU: 0x17C9C, offset: 0x370BB, size: 0x8, addend: 0x0, symName: __ZNKSt3__111__wrap_iterIPKN8nlohmann16json_abi_v3_11_310basic_jsonINS_3mapENS_6vectorENS_12basic_stringIcNS_11char_traitsIcEENS_9allocatorIcEEEEbxydS9_NS2_14adl_serializerENS5_IhNS9_IhEEEEvEEEmiB8ue170006El, symObjAddr: 0x8CB0, symBinAddr: 0x10000F110, symSize: 0x30 }
  - { offsetInCU: 0x17CD0, offset: 0x370EF, size: 0x8, addend: 0x0, symName: __ZNKSt3__111__wrap_iterIPKN8nlohmann16json_abi_v3_11_310basic_jsonINS_3mapENS_6vectorENS_12basic_stringIcNS_11char_traitsIcEENS_9allocatorIcEEEEbxydS9_NS2_14adl_serializerENS5_IhNS9_IhEEEEvEEEdeB8ue170006Ev, symObjAddr: 0x8CE0, symBinAddr: 0x10000F140, symSize: 0x20 }
  - { offsetInCU: 0x17CF6, offset: 0x37115, size: 0x8, addend: 0x0, symName: __ZNSt3__111__wrap_iterIPKN8nlohmann16json_abi_v3_11_310basic_jsonINS_3mapENS_6vectorENS_12basic_stringIcNS_11char_traitsIcEENS_9allocatorIcEEEEbxydS9_NS2_14adl_serializerENS5_IhNS9_IhEEEEvEEEppB8ue170006Ev, symObjAddr: 0x8D00, symBinAddr: 0x10000F160, symSize: 0x20 }
  - { offsetInCU: 0x17D1C, offset: 0x3713B, size: 0x8, addend: 0x0, symName: __ZNKSt3__16vectorIhNS_9allocatorIhEEE5emptyB8ue170006Ev, symObjAddr: 0x8D20, symBinAddr: 0x10000F180, symSize: 0x20 }
  - { offsetInCU: 0x17D42, offset: 0x37161, size: 0x8, addend: 0x0, symName: __ZNKSt3__16vectorIhNS_9allocatorIhEEE6cbeginB8ue170006Ev, symObjAddr: 0x8D40, symBinAddr: 0x10000F1A0, symSize: 0x30 }
  - { offsetInCU: 0x17D68, offset: 0x37187, size: 0x8, addend: 0x0, symName: __ZNKSt3__16vectorIhNS_9allocatorIhEEE4cendB8ue170006Ev, symObjAddr: 0x8DA0, symBinAddr: 0x10000F200, symSize: 0x30 }
  - { offsetInCU: 0x17D8E, offset: 0x371AD, size: 0x8, addend: 0x0, symName: __ZNKSt3__111__wrap_iterIPKhEmiB8ue170006El, symObjAddr: 0x8DD0, symBinAddr: 0x10000F230, symSize: 0x30 }
  - { offsetInCU: 0x17DC2, offset: 0x371E1, size: 0x8, addend: 0x0, symName: __ZNKSt3__111__wrap_iterIPKhEdeB8ue170006Ev, symObjAddr: 0x9090, symBinAddr: 0x10000F4F0, symSize: 0x20 }
  - { offsetInCU: 0x17DE8, offset: 0x37207, size: 0x8, addend: 0x0, symName: __ZNSt3__111__wrap_iterIPKhEppB8ue170006Ev, symObjAddr: 0x90B0, symBinAddr: 0x10000F510, symSize: 0x20 }
  - { offsetInCU: 0x17E0E, offset: 0x3722D, size: 0x8, addend: 0x0, symName: __ZNSt3__16vectorIhNS_9allocatorIhEEE4backB8ue170006Ev, symObjAddr: 0x90D0, symBinAddr: 0x10000F530, symSize: 0x20 }
  - { offsetInCU: 0x17E34, offset: 0x37253, size: 0x8, addend: 0x0, symName: __ZNK8nlohmann16json_abi_v3_11_327byte_container_with_subtypeINSt3__16vectorIhNS2_9allocatorIhEEEEE11has_subtypeEv, symObjAddr: 0x90F0, symBinAddr: 0x10000F550, symSize: 0x20 }
  - { offsetInCU: 0x17E5A, offset: 0x37279, size: 0x8, addend: 0x0, symName: __ZNK8nlohmann16json_abi_v3_11_327byte_container_with_subtypeINSt3__16vectorIhNS2_9allocatorIhEEEEE7subtypeEv, symObjAddr: 0x9390, symBinAddr: 0x10000F7F0, symSize: 0x50 }
  - { offsetInCU: 0x17E80, offset: 0x3729F, size: 0x8, addend: 0x0, symName: __ZNKSt3__112basic_stringIcNS_11char_traitsIcEENS_9allocatorIcEEEixB8ue170006Em, symObjAddr: 0x9980, symBinAddr: 0x10000FB30, symSize: 0x30 }
  - { offsetInCU: 0x17EB5, offset: 0x372D4, size: 0x8, addend: 0x0, symName: __ZNSt3__15arrayIcLm512EEixB8ue170006Em, symObjAddr: 0x9B30, symBinAddr: 0x10000FCE0, symSize: 0x20 }
  - { offsetInCU: 0x17EE9, offset: 0x37308, size: 0x8, addend: 0x0, symName: __ZNSt3__15arrayIcLm512EE4dataB8ue170006Ev, symObjAddr: 0x9B50, symBinAddr: 0x10000FD00, symSize: 0x10 }
  - { offsetInCU: 0x17F0F, offset: 0x3732E, size: 0x8, addend: 0x0, symName: __ZNKSt3__15arrayIcLm512EE4sizeB8ue170006Ev, symObjAddr: 0x9B60, symBinAddr: 0x10000FD10, symSize: 0x10 }
  - { offsetInCU: 0x17F69, offset: 0x37388, size: 0x8, addend: 0x0, symName: __ZN8nlohmann16json_abi_v3_11_36detail10type_error6createIDnLi0EEES2_iRKNSt3__112basic_stringIcNS4_11char_traitsIcEENS4_9allocatorIcEEEET_, symObjAddr: 0x9B70, symBinAddr: 0x10000FD20, symSize: 0x160 }
  - { offsetInCU: 0x17FC9, offset: 0x373E8, size: 0x8, addend: 0x0, symName: __ZN8nlohmann16json_abi_v3_11_36detail10serializerINS0_10basic_jsonINSt3__13mapENS4_6vectorENS4_12basic_stringIcNS4_11char_traitsIcEENS4_9allocatorIcEEEEbxydSA_NS0_14adl_serializerENS6_IhNSA_IhEEEEvEEE9hex_bytesEh, symObjAddr: 0x9DA0, symBinAddr: 0x10000FF50, symSize: 0xC0 }
  - { offsetInCU: 0x1800C, offset: 0x3742B, size: 0x8, addend: 0x0, symName: __ZN8nlohmann16json_abi_v3_11_36detail10type_errorD1Ev, symObjAddr: 0x9E60, symBinAddr: 0x100010010, symSize: 0x20 }
  - { offsetInCU: 0x18074, offset: 0x37493, size: 0x8, addend: 0x0, symName: __ZN8nlohmann16json_abi_v3_11_36detail13binary_writerINS0_10basic_jsonINSt3__13mapENS4_6vectorENS4_12basic_stringIcNS4_11char_traitsIcEENS4_9allocatorIcEEEEbxydSA_NS0_14adl_serializerENS6_IhNSA_IhEEEEvEEcE12to_char_typeIccLPv0EEEcT_, symObjAddr: 0x9E80, symBinAddr: 0x100010030, symSize: 0x10 }
  - { offsetInCU: 0x180B0, offset: 0x374CF, size: 0x8, addend: 0x0, symName: __ZNKSt3__112basic_stringIcNS_11char_traitsIcEENS_9allocatorIcEEE4backB8ue170006Ev, symObjAddr: 0x9F40, symBinAddr: 0x1000100F0, symSize: 0x40 }
  - { offsetInCU: 0x180D6, offset: 0x374F5, size: 0x8, addend: 0x0, symName: __ZNKSt3__15arrayIhLm400EE4sizeB8ue170006Ev, symObjAddr: 0x9F80, symBinAddr: 0x100010130, symSize: 0x10 }
  - { offsetInCU: 0x180FC, offset: 0x3751B, size: 0x8, addend: 0x0, symName: __ZNKSt3__15arrayIhLm400EEixB8ue170006Em, symObjAddr: 0x9F90, symBinAddr: 0x100010140, symSize: 0x20 }
  - { offsetInCU: 0x18130, offset: 0x3754F, size: 0x8, addend: 0x0, symName: __ZN8nlohmann16json_abi_v3_11_36detail9exception4nameERKNSt3__112basic_stringIcNS3_11char_traitsIcEENS3_9allocatorIcEEEEi, symObjAddr: 0xA070, symBinAddr: 0x100010220, symSize: 0xA0 }
  - { offsetInCU: 0x18163, offset: 0x37582, size: 0x8, addend: 0x0, symName: __ZN8nlohmann16json_abi_v3_11_36detail9exception11diagnosticsEDn, symObjAddr: 0xA110, symBinAddr: 0x1000102C0, symSize: 0x30 }
  - { offsetInCU: 0x18184, offset: 0x375A3, size: 0x8, addend: 0x0, symName: __ZN8nlohmann16json_abi_v3_11_36detail10type_errorC1EiPKc, symObjAddr: 0xA140, symBinAddr: 0x1000102F0, symSize: 0x30 }
  - { offsetInCU: 0x181CC, offset: 0x375EB, size: 0x8, addend: 0x0, symName: __ZNSt3__112basic_stringIcNS_11char_traitsIcEENS_9allocatorIcEEE6appendB8ue170006ERKS5_, symObjAddr: 0xA270, symBinAddr: 0x100010420, symSize: 0x50 }
  - { offsetInCU: 0x18201, offset: 0x37620, size: 0x8, addend: 0x0, symName: __ZNSt3__112basic_stringIcNS_11char_traitsIcEENS_9allocatorIcEEEpLB8ue170006Ec, symObjAddr: 0xA650, symBinAddr: 0x100010800, symSize: 0x30 }
  - { offsetInCU: 0x18236, offset: 0x37655, size: 0x8, addend: 0x0, symName: __ZN8nlohmann16json_abi_v3_11_36detail10type_errorC2EiPKc, symObjAddr: 0xA6F0, symBinAddr: 0x1000108A0, symSize: 0x40 }
  - { offsetInCU: 0x1827E, offset: 0x3769D, size: 0x8, addend: 0x0, symName: __ZN8nlohmann16json_abi_v3_11_36detail9exceptionC2EiPKc, symObjAddr: 0xA730, symBinAddr: 0x1000108E0, symSize: 0x70 }
  - { offsetInCU: 0x182C6, offset: 0x376E5, size: 0x8, addend: 0x0, symName: __ZN8nlohmann16json_abi_v3_11_36detail10type_errorD0Ev, symObjAddr: 0xA7A0, symBinAddr: 0x100010950, symSize: 0x30 }
  - { offsetInCU: 0x182F3, offset: 0x37712, size: 0x8, addend: 0x0, symName: __ZNK8nlohmann16json_abi_v3_11_36detail9exception4whatEv, symObjAddr: 0xA7D0, symBinAddr: 0x100010980, symSize: 0x20 }
  - { offsetInCU: 0x18319, offset: 0x37738, size: 0x8, addend: 0x0, symName: __ZNSt9exceptionC2B8ue170006Ev, symObjAddr: 0xA7F0, symBinAddr: 0x1000109A0, symSize: 0x20 }
  - { offsetInCU: 0x18343, offset: 0x37762, size: 0x8, addend: 0x0, symName: __ZN8nlohmann16json_abi_v3_11_36detail9exceptionD1Ev, symObjAddr: 0xA810, symBinAddr: 0x1000109C0, symSize: 0x20 }
  - { offsetInCU: 0x18370, offset: 0x3778F, size: 0x8, addend: 0x0, symName: __ZN8nlohmann16json_abi_v3_11_36detail9exceptionD0Ev, symObjAddr: 0xA830, symBinAddr: 0x1000109E0, symSize: 0x30 }
  - { offsetInCU: 0x1839D, offset: 0x377BC, size: 0x8, addend: 0x0, symName: __ZN8nlohmann16json_abi_v3_11_36detail9exceptionD2Ev, symObjAddr: 0xA860, symBinAddr: 0x100010A10, symSize: 0x40 }
  - { offsetInCU: 0x183CA, offset: 0x377E9, size: 0x8, addend: 0x0, symName: __ZNSt3__112basic_stringIcNS_11char_traitsIcEENS_9allocatorIcEEEixB8ue170006Em, symObjAddr: 0xAA70, symBinAddr: 0x100010C20, symSize: 0x30 }
  - { offsetInCU: 0x183FF, offset: 0x3781E, size: 0x8, addend: 0x0, symName: __ZNSt3__112basic_stringIcNS_11char_traitsIcEENS_9allocatorIcEEE13__get_pointerB8ue170006Ev, symObjAddr: 0xAAA0, symBinAddr: 0x100010C50, symSize: 0x50 }
  - { offsetInCU: 0x18425, offset: 0x37844, size: 0x8, addend: 0x0, symName: __ZNSt3__112basic_stringIcNS_11char_traitsIcEENS_9allocatorIcEEE18__get_long_pointerB8ue170006Ev, symObjAddr: 0xAAF0, symBinAddr: 0x100010CA0, symSize: 0x20 }
  - { offsetInCU: 0x1844B, offset: 0x3786A, size: 0x8, addend: 0x0, symName: __ZNSt3__112basic_stringIcNS_11char_traitsIcEENS_9allocatorIcEEE19__get_short_pointerB8ue170006Ev, symObjAddr: 0xAB10, symBinAddr: 0x100010CC0, symSize: 0x30 }
  - { offsetInCU: 0x18471, offset: 0x37890, size: 0x8, addend: 0x0, symName: __ZNSt3__114pointer_traitsIPcE10pointer_toB8ue170006ERc, symObjAddr: 0xAB40, symBinAddr: 0x100010CF0, symSize: 0x10 }
  - { offsetInCU: 0x18494, offset: 0x378B3, size: 0x8, addend: 0x0, symName: __ZN8nlohmann16json_abi_v3_11_36detail10type_errorD2Ev, symObjAddr: 0xAB50, symBinAddr: 0x100010D00, symSize: 0x20 }
  - { offsetInCU: 0x184C1, offset: 0x378E0, size: 0x8, addend: 0x0, symName: __ZNSt3__114pointer_traitsIPKNS_4pairIKNS_12basic_stringIcNS_11char_traitsIcEENS_9allocatorIcEEEEN8nlohmann16json_abi_v3_11_310basic_jsonINS_3mapENS_6vectorES7_bxydS5_NSA_14adl_serializerENSD_IhNS5_IhEEEEvEEEEE10pointer_toB8ue170006ERSJ_, symObjAddr: 0xABB0, symBinAddr: 0x100010D60, symSize: 0x10 }
  - { offsetInCU: 0x184E4, offset: 0x37903, size: 0x8, addend: 0x0, symName: __ZNSt3__120__map_const_iteratorINS_21__tree_const_iteratorINS_12__value_typeINS_12basic_stringIcNS_11char_traitsIcEENS_9allocatorIcEEEEN8nlohmann16json_abi_v3_11_310basic_jsonINS_3mapENS_6vectorES8_bxydS6_NSA_14adl_serializerENSD_IhNS6_IhEEEEvEEEEPNS_11__tree_nodeISI_PvEElEEEmmB8ue170006Ev, symObjAddr: 0xAE20, symBinAddr: 0x100010E20, symSize: 0x30 }
  - { offsetInCU: 0x1850A, offset: 0x37929, size: 0x8, addend: 0x0, symName: __ZNKSt3__16vectorIN8nlohmann16json_abi_v3_11_310basic_jsonINS_3mapES0_NS_12basic_stringIcNS_11char_traitsIcEENS_9allocatorIcEEEEbxydS8_NS2_14adl_serializerENS0_IhNS8_IhEEEEvEENS8_ISE_EEE5beginB8ue170006Ev, symObjAddr: 0xAF30, symBinAddr: 0x100010E50, symSize: 0x30 }
  - { offsetInCU: 0x18532, offset: 0x37951, size: 0x8, addend: 0x0, symName: __ZNKSt3__16vectorIN8nlohmann16json_abi_v3_11_310basic_jsonINS_3mapES0_NS_12basic_stringIcNS_11char_traitsIcEENS_9allocatorIcEEEEbxydS8_NS2_14adl_serializerENS0_IhNS8_IhEEEEvEENS8_ISE_EEE11__make_iterB8ue170006EPKSE_, symObjAddr: 0xAF60, symBinAddr: 0x100010E80, symSize: 0x30 }
  - { offsetInCU: 0x18567, offset: 0x37986, size: 0x8, addend: 0x0, symName: __ZNSt3__111__wrap_iterIPKN8nlohmann16json_abi_v3_11_310basic_jsonINS_3mapENS_6vectorENS_12basic_stringIcNS_11char_traitsIcEENS_9allocatorIcEEEEbxydS9_NS2_14adl_serializerENS5_IhNS9_IhEEEEvEEEC1B8ue170006ESH_, symObjAddr: 0xAF90, symBinAddr: 0x100010EB0, symSize: 0x30 }
  - { offsetInCU: 0x1859F, offset: 0x379BE, size: 0x8, addend: 0x0, symName: __ZNSt3__111__wrap_iterIPKN8nlohmann16json_abi_v3_11_310basic_jsonINS_3mapENS_6vectorENS_12basic_stringIcNS_11char_traitsIcEENS_9allocatorIcEEEEbxydS9_NS2_14adl_serializerENS5_IhNS9_IhEEEEvEEEC2B8ue170006ESH_, symObjAddr: 0xAFC0, symBinAddr: 0x100010EE0, symSize: 0x20 }
  - { offsetInCU: 0x185D7, offset: 0x379F6, size: 0x8, addend: 0x0, symName: __ZNKSt3__111__wrap_iterIPKN8nlohmann16json_abi_v3_11_310basic_jsonINS_3mapENS_6vectorENS_12basic_stringIcNS_11char_traitsIcEENS_9allocatorIcEEEEbxydS9_NS2_14adl_serializerENS5_IhNS9_IhEEEEvEEE4baseB8ue170006Ev, symObjAddr: 0xB020, symBinAddr: 0x100010F40, symSize: 0x20 }
  - { offsetInCU: 0x185FD, offset: 0x37A1C, size: 0x8, addend: 0x0, symName: __ZNKSt3__16vectorIN8nlohmann16json_abi_v3_11_310basic_jsonINS_3mapES0_NS_12basic_stringIcNS_11char_traitsIcEENS_9allocatorIcEEEEbxydS8_NS2_14adl_serializerENS0_IhNS8_IhEEEEvEENS8_ISE_EEE3endB8ue170006Ev, symObjAddr: 0xB040, symBinAddr: 0x100010F60, symSize: 0x30 }
  - { offsetInCU: 0x18625, offset: 0x37A44, size: 0x8, addend: 0x0, symName: __ZNKSt3__111__wrap_iterIPKN8nlohmann16json_abi_v3_11_310basic_jsonINS_3mapENS_6vectorENS_12basic_stringIcNS_11char_traitsIcEENS_9allocatorIcEEEEbxydS9_NS2_14adl_serializerENS5_IhNS9_IhEEEEvEEEplB8ue170006El, symObjAddr: 0xB070, symBinAddr: 0x100010F90, symSize: 0x40 }
  - { offsetInCU: 0x18667, offset: 0x37A86, size: 0x8, addend: 0x0, symName: __ZNSt3__111__wrap_iterIPKN8nlohmann16json_abi_v3_11_310basic_jsonINS_3mapENS_6vectorENS_12basic_stringIcNS_11char_traitsIcEENS_9allocatorIcEEEEbxydS9_NS2_14adl_serializerENS5_IhNS9_IhEEEEvEEEpLB8ue170006El, symObjAddr: 0xB0B0, symBinAddr: 0x100010FD0, symSize: 0x20 }
  - { offsetInCU: 0x1869B, offset: 0x37ABA, size: 0x8, addend: 0x0, symName: __ZNKSt3__16vectorIhNS_9allocatorIhEEE5beginB8ue170006Ev, symObjAddr: 0xB0D0, symBinAddr: 0x100010FF0, symSize: 0x30 }
  - { offsetInCU: 0x186C3, offset: 0x37AE2, size: 0x8, addend: 0x0, symName: __ZNKSt3__16vectorIhNS_9allocatorIhEEE11__make_iterB8ue170006EPKh, symObjAddr: 0xB100, symBinAddr: 0x100011020, symSize: 0x30 }
  - { offsetInCU: 0x186F8, offset: 0x37B17, size: 0x8, addend: 0x0, symName: __ZNSt3__111__wrap_iterIPKhEC1B8ue170006ES2_, symObjAddr: 0xB130, symBinAddr: 0x100011050, symSize: 0x30 }
  - { offsetInCU: 0x18730, offset: 0x37B4F, size: 0x8, addend: 0x0, symName: __ZNSt3__111__wrap_iterIPKhEC2B8ue170006ES2_, symObjAddr: 0xB160, symBinAddr: 0x100011080, symSize: 0x20 }
  - { offsetInCU: 0x18768, offset: 0x37B87, size: 0x8, addend: 0x0, symName: __ZNKSt3__111__wrap_iterIPKhE4baseB8ue170006Ev, symObjAddr: 0xB1C0, symBinAddr: 0x1000110E0, symSize: 0x20 }
  - { offsetInCU: 0x1878E, offset: 0x37BAD, size: 0x8, addend: 0x0, symName: __ZNKSt3__16vectorIhNS_9allocatorIhEEE3endB8ue170006Ev, symObjAddr: 0xB1E0, symBinAddr: 0x100011100, symSize: 0x30 }
  - { offsetInCU: 0x187B6, offset: 0x37BD5, size: 0x8, addend: 0x0, symName: __ZNKSt3__111__wrap_iterIPKhEplB8ue170006El, symObjAddr: 0xB210, symBinAddr: 0x100011130, symSize: 0x40 }
  - { offsetInCU: 0x187F8, offset: 0x37C17, size: 0x8, addend: 0x0, symName: __ZNSt3__111__wrap_iterIPKhEpLB8ue170006El, symObjAddr: 0xB250, symBinAddr: 0x100011170, symSize: 0x20 }
  - { offsetInCU: 0x1882C, offset: 0x37C4B, size: 0x8, addend: 0x0, symName: __ZNSt3__15arrayIcLm64EE5beginB8ue170006Ev, symObjAddr: 0xB270, symBinAddr: 0x100011190, symSize: 0x20 }
  - { offsetInCU: 0x18852, offset: 0x37C71, size: 0x8, addend: 0x0, symName: __ZN8nlohmann16json_abi_v3_11_36detail10serializerINS0_10basic_jsonINSt3__13mapENS4_6vectorENS4_12basic_stringIcNS4_11char_traitsIcEENS4_9allocatorIcEEEEbxydSA_NS0_14adl_serializerENS6_IhNSA_IhEEEEvEEE18is_negative_numberIhLi0EEEbT_, symObjAddr: 0xB290, symBinAddr: 0x1000111B0, symSize: 0x20 }
  - { offsetInCU: 0x18893, offset: 0x37CB2, size: 0x8, addend: 0x0, symName: __ZN8nlohmann16json_abi_v3_11_36detail10serializerINS0_10basic_jsonINSt3__13mapENS4_6vectorENS4_12basic_stringIcNS4_11char_traitsIcEENS4_9allocatorIcEEEEbxydSA_NS0_14adl_serializerENS6_IhNSA_IhEEEEvEEE11remove_signEx, symObjAddr: 0xB2B0, symBinAddr: 0x1000111D0, symSize: 0xA0 }
  - { offsetInCU: 0x188C8, offset: 0x37CE7, size: 0x8, addend: 0x0, symName: __ZN8nlohmann16json_abi_v3_11_36detail10serializerINS0_10basic_jsonINSt3__13mapENS4_6vectorENS4_12basic_stringIcNS4_11char_traitsIcEENS4_9allocatorIcEEEEbxydSA_NS0_14adl_serializerENS6_IhNSA_IhEEEEvEEE12count_digitsEy, symObjAddr: 0xB350, symBinAddr: 0x100011270, symSize: 0xA0 }
  - { offsetInCU: 0x1890C, offset: 0x37D2B, size: 0x8, addend: 0x0, symName: __ZNKSt3__15arrayIcLm64EE4sizeB8ue170006Ev, symObjAddr: 0xB3F0, symBinAddr: 0x100011310, symSize: 0x10 }
  - { offsetInCU: 0x18932, offset: 0x37D51, size: 0x8, addend: 0x0, symName: __ZNKSt3__15arrayINS0_IcLm2EEELm100EEixB8ue170006Em, symObjAddr: 0xB400, symBinAddr: 0x100011320, symSize: 0x20 }
  - { offsetInCU: 0x18966, offset: 0x37D85, size: 0x8, addend: 0x0, symName: __ZNKSt3__15arrayIcLm2EEixB8ue170006Em, symObjAddr: 0xB420, symBinAddr: 0x100011340, symSize: 0x20 }
  - { offsetInCU: 0x1899A, offset: 0x37DB9, size: 0x8, addend: 0x0, symName: __ZNSt3__15arrayIcLm64EE4dataB8ue170006Ev, symObjAddr: 0xB440, symBinAddr: 0x100011360, symSize: 0x10 }
  - { offsetInCU: 0x189C0, offset: 0x37DDF, size: 0x8, addend: 0x0, symName: __ZNSt3__114numeric_limitsIxE3maxB8ue170006Ev, symObjAddr: 0xB450, symBinAddr: 0x100011370, symSize: 0x10 }
  - { offsetInCU: 0x189D4, offset: 0x37DF3, size: 0x8, addend: 0x0, symName: __ZNSt3__123__libcpp_numeric_limitsIxLb1EE3maxB8ue170006Ev, symObjAddr: 0xB460, symBinAddr: 0x100011380, symSize: 0x10 }
  - { offsetInCU: 0x189E8, offset: 0x37E07, size: 0x8, addend: 0x0, symName: __ZN8nlohmann16json_abi_v3_11_36detail10serializerINS0_10basic_jsonINSt3__13mapENS4_6vectorENS4_12basic_stringIcNS4_11char_traitsIcEENS4_9allocatorIcEEEEbxydSA_NS0_14adl_serializerENS6_IhNSA_IhEEEEvEEE18is_negative_numberIyLi0EEEbT_, symObjAddr: 0xB470, symBinAddr: 0x100011390, symSize: 0x20 }
  - { offsetInCU: 0x18A29, offset: 0x37E48, size: 0x8, addend: 0x0, symName: __ZN8nlohmann16json_abi_v3_11_36detail10serializerINS0_10basic_jsonINSt3__13mapENS4_6vectorENS4_12basic_stringIcNS4_11char_traitsIcEENS4_9allocatorIcEEEEbxydSA_NS0_14adl_serializerENS6_IhNSA_IhEEEEvEEE18is_negative_numberIxLi0EEEbT_, symObjAddr: 0xB490, symBinAddr: 0x1000113B0, symSize: 0x20 }
  - { offsetInCU: 0x18A6C, offset: 0x37E8B, size: 0x8, addend: 0x0, symName: __Z8isfiniteB8ue170006IdLi0EEbT_, symObjAddr: 0xB4B0, symBinAddr: 0x1000113D0, symSize: 0x30 }
  - { offsetInCU: 0x18AAA, offset: 0x37EC9, size: 0x8, addend: 0x0, symName: __ZN8nlohmann16json_abi_v3_11_36detail10serializerINS0_10basic_jsonINSt3__13mapENS4_6vectorENS4_12basic_stringIcNS4_11char_traitsIcEENS4_9allocatorIcEEEEbxydSA_NS0_14adl_serializerENS6_IhNSA_IhEEEEvEEE10dump_floatEdNS4_17integral_constantIbLb1EEE, symObjAddr: 0xB4E0, symBinAddr: 0x100011400, symSize: 0x90 }
  - { offsetInCU: 0x18B08, offset: 0x37F27, size: 0x8, addend: 0x0, symName: __Z7signbitB8ue170006IdLi0EEbT_, symObjAddr: 0xB810, symBinAddr: 0x100011730, symSize: 0x30 }
  - { offsetInCU: 0x18B57, offset: 0x37F76, size: 0x8, addend: 0x0, symName: __ZN8nlohmann16json_abi_v3_11_36detail9dtoa_impl5diyfpC1Eyi, symObjAddr: 0xC0D0, symBinAddr: 0x100011FF0, symSize: 0x30 }
  - { offsetInCU: 0x18B9F, offset: 0x37FBE, size: 0x8, addend: 0x0, symName: __ZN8nlohmann16json_abi_v3_11_36detail9dtoa_impl5diyfp9normalizeES3_, symObjAddr: 0xC100, symBinAddr: 0x100012020, symSize: 0xA0 }
  - { offsetInCU: 0x18BC3, offset: 0x37FE2, size: 0x8, addend: 0x0, symName: __ZN8nlohmann16json_abi_v3_11_36detail9dtoa_impl5diyfp12normalize_toERKS3_i, symObjAddr: 0xC1A0, symBinAddr: 0x1000120C0, symSize: 0xF0 }
  - { offsetInCU: 0x18C05, offset: 0x38024, size: 0x8, addend: 0x0, symName: __ZN8nlohmann16json_abi_v3_11_36detail9dtoa_impl5diyfpC2Eyi, symObjAddr: 0xC290, symBinAddr: 0x1000121B0, symSize: 0x30 }
  - { offsetInCU: 0x18C4D, offset: 0x3806C, size: 0x8, addend: 0x0, symName: __ZN8nlohmann16json_abi_v3_11_36detail9dtoa_impl5diyfp3mulERKS3_S5_, symObjAddr: 0xC4E0, symBinAddr: 0x100012400, symSize: 0x130 }
  - { offsetInCU: 0x18D6C, offset: 0x3818B, size: 0x8, addend: 0x0, symName: __ZNKSt3__15arrayIN8nlohmann16json_abi_v3_11_36detail9dtoa_impl12cached_powerELm79EE4sizeB8ue170006Ev, symObjAddr: 0xCAA0, symBinAddr: 0x1000129C0, symSize: 0x10 }
  - { offsetInCU: 0x18D92, offset: 0x381B1, size: 0x8, addend: 0x0, symName: __ZNKSt3__15arrayIN8nlohmann16json_abi_v3_11_36detail9dtoa_impl12cached_powerELm79EEixB8ue170006Em, symObjAddr: 0xCAB0, symBinAddr: 0x1000129D0, symSize: 0x20 }
  - { offsetInCU: 0x18DC6, offset: 0x381E5, size: 0x8, addend: 0x0, symName: __ZN8nlohmann16json_abi_v3_11_36detail9dtoa_impl5diyfp3subERKS3_S5_, symObjAddr: 0xCAD0, symBinAddr: 0x1000129F0, symSize: 0xE0 }
  - { offsetInCU: 0x18DF9, offset: 0x38218, size: 0x8, addend: 0x0, symName: __ZNSt3__114numeric_limitsIyE3maxB8ue170006Ev, symObjAddr: 0xCF10, symBinAddr: 0x100012E30, symSize: 0x10 }
  - { offsetInCU: 0x18E0D, offset: 0x3822C, size: 0x8, addend: 0x0, symName: __ZNSt3__123__libcpp_numeric_limitsIyLb1EE3maxB8ue170006Ev, symObjAddr: 0xCF20, symBinAddr: 0x100012E40, symSize: 0x10 }
  - { offsetInCU: 0x18E21, offset: 0x38240, size: 0x8, addend: 0x0, symName: __ZN8nlohmann16json_abi_v3_11_36detail10serializerINS0_10basic_jsonINSt3__13mapENS4_6vectorENS4_12basic_stringIcNS4_11char_traitsIcEENS4_9allocatorIcEEEEbxydSA_NS0_14adl_serializerENS6_IhNSA_IhEEEEvEEED2Ev, symObjAddr: 0xD120, symBinAddr: 0x100013040, symSize: 0x30 }
  - { offsetInCU: 0x18E68, offset: 0x38287, size: 0x8, addend: 0x0, symName: __ZNKSt3__113basic_ostreamIcNS_11char_traitsIcEEE6sentrycvbB8ue170006Ev, symObjAddr: 0xD340, symBinAddr: 0x100013260, symSize: 0x20 }
  - { offsetInCU: 0x18E8E, offset: 0x382AD, size: 0x8, addend: 0x0, symName: __ZNSt3__119ostreambuf_iteratorIcNS_11char_traitsIcEEEC1B8ue170006ERNS_13basic_ostreamIcS2_EE, symObjAddr: 0xD580, symBinAddr: 0x1000134A0, symSize: 0x30 }
  - { offsetInCU: 0x18EC6, offset: 0x382E5, size: 0x8, addend: 0x0, symName: __ZNKSt3__18ios_base5flagsB8ue170006Ev, symObjAddr: 0xD5B0, symBinAddr: 0x1000134D0, symSize: 0x20 }
  - { offsetInCU: 0x18EEE, offset: 0x3830D, size: 0x8, addend: 0x0, symName: __ZNKSt3__19basic_iosIcNS_11char_traitsIcEEE4fillB8ue170006Ev, symObjAddr: 0xD5D0, symBinAddr: 0x1000134F0, symSize: 0x70 }
  - { offsetInCU: 0x18F16, offset: 0x38335, size: 0x8, addend: 0x0, symName: __ZNKSt3__119ostreambuf_iteratorIcNS_11char_traitsIcEEE6failedB8ue170006Ev, symObjAddr: 0xD640, symBinAddr: 0x100013560, symSize: 0x20 }
  - { offsetInCU: 0x18F3C, offset: 0x3835B, size: 0x8, addend: 0x0, symName: __ZNSt3__19basic_iosIcNS_11char_traitsIcEEE8setstateB8ue170006Ej, symObjAddr: 0xD660, symBinAddr: 0x100013580, symSize: 0x30 }
  - { offsetInCU: 0x18F71, offset: 0x38390, size: 0x8, addend: 0x0, symName: __ZNKSt3__18ios_base5widthB8ue170006Ev, symObjAddr: 0xD690, symBinAddr: 0x1000135B0, symSize: 0x20 }
  - { offsetInCU: 0x18F99, offset: 0x383B8, size: 0x8, addend: 0x0, symName: __ZNSt3__115basic_streambufIcNS_11char_traitsIcEEE5sputnB8ue170006EPKcl, symObjAddr: 0xD6B0, symBinAddr: 0x1000135D0, symSize: 0x30 }
  - { offsetInCU: 0x18FDB, offset: 0x383FA, size: 0x8, addend: 0x0, symName: __ZNSt3__112basic_stringIcNS_11char_traitsIcEENS_9allocatorIcEEE4dataB8ue170006Ev, symObjAddr: 0xD6E0, symBinAddr: 0x100013600, symSize: 0x30 }
  - { offsetInCU: 0x19001, offset: 0x38420, size: 0x8, addend: 0x0, symName: __ZNSt3__18ios_base5widthB8ue170006El, symObjAddr: 0xD710, symBinAddr: 0x100013630, symSize: 0x30 }
  - { offsetInCU: 0x19047, offset: 0x38466, size: 0x8, addend: 0x0, symName: __ZNSt3__119ostreambuf_iteratorIcNS_11char_traitsIcEEEC2B8ue170006ERNS_13basic_ostreamIcS2_EE, symObjAddr: 0xD750, symBinAddr: 0x100013670, symSize: 0x50 }
  - { offsetInCU: 0x1907F, offset: 0x3849E, size: 0x8, addend: 0x0, symName: __ZNKSt3__19basic_iosIcNS_11char_traitsIcEEE5rdbufB8ue170006Ev, symObjAddr: 0xD7A0, symBinAddr: 0x1000136C0, symSize: 0x20 }
  - { offsetInCU: 0x190A7, offset: 0x384C6, size: 0x8, addend: 0x0, symName: __ZNKSt3__18ios_base5rdbufB8ue170006Ev, symObjAddr: 0xD7C0, symBinAddr: 0x1000136E0, symSize: 0x20 }
  - { offsetInCU: 0x190CD, offset: 0x384EC, size: 0x8, addend: 0x0, symName: __ZNSt3__111char_traitsIcE11eq_int_typeB8ue170006Eii, symObjAddr: 0xD7E0, symBinAddr: 0x100013700, symSize: 0x20 }
  - { offsetInCU: 0x19100, offset: 0x3851F, size: 0x8, addend: 0x0, symName: __ZNSt3__111char_traitsIcE3eofB8ue170006Ev, symObjAddr: 0xD800, symBinAddr: 0x100013720, symSize: 0x10 }
  - { offsetInCU: 0x19114, offset: 0x38533, size: 0x8, addend: 0x0, symName: __ZNKSt3__19basic_iosIcNS_11char_traitsIcEEE5widenB8ue170006Ec, symObjAddr: 0xD810, symBinAddr: 0x100013730, symSize: 0x80 }
  - { offsetInCU: 0x19184, offset: 0x385A3, size: 0x8, addend: 0x0, symName: __ZNKSt3__15ctypeIcE5widenB8ue170006Ec, symObjAddr: 0xD8C0, symBinAddr: 0x1000137E0, symSize: 0x30 }
  - { offsetInCU: 0x191B9, offset: 0x385D8, size: 0x8, addend: 0x0, symName: __ZNSt3__18ios_base8setstateB8ue170006Ej, symObjAddr: 0xD8F0, symBinAddr: 0x100013810, symSize: 0x30 }
  - { offsetInCU: 0x192DF, offset: 0x386FE, size: 0x8, addend: 0x0, symName: __ZNKSt16initializer_listIN8nlohmann16json_abi_v3_11_36detail8json_refINS1_10basic_jsonINSt3__13mapENS5_6vectorENS5_12basic_stringIcNS5_11char_traitsIcEENS5_9allocatorIcEEEEbxydSB_NS1_14adl_serializerENS7_IhNSB_IhEEEEvEEEEE4sizeB8ue170006Ev, symObjAddr: 0x12760, symBinAddr: 0x100013840, symSize: 0x20 }
  - { offsetInCU: 0x19305, offset: 0x38724, size: 0x8, addend: 0x0, symName: __ZNKSt16initializer_listIN8nlohmann16json_abi_v3_11_36detail8json_refINS1_10basic_jsonINSt3__13mapENS5_6vectorENS5_12basic_stringIcNS5_11char_traitsIcEENS5_9allocatorIcEEEEbxydSB_NS1_14adl_serializerENS7_IhNSB_IhEEEEvEEEEE5beginB8ue170006Ev, symObjAddr: 0x12780, symBinAddr: 0x100013860, symSize: 0x20 }
  - { offsetInCU: 0x1932B, offset: 0x3874A, size: 0x8, addend: 0x0, symName: __ZNK8nlohmann16json_abi_v3_11_36detail8json_refINS0_10basic_jsonINSt3__13mapENS4_6vectorENS4_12basic_stringIcNS4_11char_traitsIcEENS4_9allocatorIcEEEEbxydSA_NS0_14adl_serializerENS6_IhNSA_IhEEEEvEEEptEv, symObjAddr: 0x127A0, symBinAddr: 0x100013880, symSize: 0x20 }
  - { offsetInCU: 0x19351, offset: 0x38770, size: 0x8, addend: 0x0, symName: __ZNK8nlohmann16json_abi_v3_11_310basic_jsonINSt3__13mapENS2_6vectorENS2_12basic_stringIcNS2_11char_traitsIcEENS2_9allocatorIcEEEEbxydS8_NS0_14adl_serializerENS4_IhNS8_IhEEEEvE9is_stringEv, symObjAddr: 0x127C0, symBinAddr: 0x1000138A0, symSize: 0x20 }
  - { offsetInCU: 0x19377, offset: 0x38796, size: 0x8, addend: 0x0, symName: __ZNK8nlohmann16json_abi_v3_11_36detail8json_refINS0_10basic_jsonINSt3__13mapENS4_6vectorENS4_12basic_stringIcNS4_11char_traitsIcEENS4_9allocatorIcEEEEbxydSA_NS0_14adl_serializerENS6_IhNSA_IhEEEEvEEE15moved_or_copiedEv, symObjAddr: 0x127E0, symBinAddr: 0x1000138C0, symSize: 0x60 }
  - { offsetInCU: 0x1939D, offset: 0x387BC, size: 0x8, addend: 0x0, symName: __ZN8nlohmann16json_abi_v3_11_310basic_jsonINSt3__13mapENS2_6vectorENS2_12basic_stringIcNS2_11char_traitsIcEENS2_9allocatorIcEEEEbxydS8_NS0_14adl_serializerENS4_IhNS8_IhEEEEvE9push_backERKNS2_4pairIKSA_SE_EE, symObjAddr: 0x12840, symBinAddr: 0x100013920, symSize: 0x190 }
  - { offsetInCU: 0x193E2, offset: 0x38801, size: 0x8, addend: 0x0, symName: __ZN8nlohmann16json_abi_v3_11_310basic_jsonINSt3__13mapENS2_6vectorENS2_12basic_stringIcNS2_11char_traitsIcEENS2_9allocatorIcEEEEbxydS8_NS0_14adl_serializerENS4_IhNS8_IhEEEEvE7get_refIRSA_Li0EEET_v, symObjAddr: 0x129D0, symBinAddr: 0x100013AB0, symSize: 0x20 }
  - { offsetInCU: 0x1941D, offset: 0x3883C, size: 0x8, addend: 0x0, symName: __ZNSt3__14pairIKNS_12basic_stringIcNS_11char_traitsIcEENS_9allocatorIcEEEEN8nlohmann16json_abi_v3_11_310basic_jsonINS_3mapENS_6vectorES6_bxydS4_NS9_14adl_serializerENSC_IhNS4_IhEEEEvEEEC1B8ue170006IS6_SG_LPv0EEEOT_OT0_, symObjAddr: 0x129F0, symBinAddr: 0x100013AD0, symSize: 0x30 }
  - { offsetInCU: 0x1947B, offset: 0x3889A, size: 0x8, addend: 0x0, symName: __ZN8nlohmann16json_abi_v3_11_310basic_jsonINSt3__13mapENS2_6vectorENS2_12basic_stringIcNS2_11char_traitsIcEENS2_9allocatorIcEEEEbxydS8_NS0_14adl_serializerENS4_IhNS8_IhEEEEvE9push_backEOSE_, symObjAddr: 0x12A20, symBinAddr: 0x100013B00, symSize: 0x1A0 }
  - { offsetInCU: 0x194C0, offset: 0x388DF, size: 0x8, addend: 0x0, symName: __ZN8nlohmann16json_abi_v3_11_310basic_jsonINSt3__13mapENS2_6vectorENS2_12basic_stringIcNS2_11char_traitsIcEENS2_9allocatorIcEEEEbxydS8_NS0_14adl_serializerENS4_IhNS8_IhEEEEvEC1ESt16initializer_listINS0_6detail8json_refISE_EEEbNSG_7value_tE, symObjAddr: 0x12BC0, symBinAddr: 0x100013CA0, symSize: 0x50 }
  - { offsetInCU: 0x19517, offset: 0x38936, size: 0x8, addend: 0x0, symName: __ZNK8nlohmann16json_abi_v3_11_36detail8json_refINS0_10basic_jsonINSt3__13mapENS4_6vectorENS4_12basic_stringIcNS4_11char_traitsIcEENS4_9allocatorIcEEEEbxydSA_NS0_14adl_serializerENS6_IhNSA_IhEEEEvEEEdeEv, symObjAddr: 0x12C10, symBinAddr: 0x100013CF0, symSize: 0x40 }
  - { offsetInCU: 0x1953D, offset: 0x3895C, size: 0x8, addend: 0x0, symName: __ZNK8nlohmann16json_abi_v3_11_310basic_jsonINSt3__13mapENS2_6vectorENS2_12basic_stringIcNS2_11char_traitsIcEENS2_9allocatorIcEEEEbxydS8_NS0_14adl_serializerENS4_IhNS8_IhEEEEvE7is_nullEv, symObjAddr: 0x12C50, symBinAddr: 0x100013D30, symSize: 0x20 }
  - { offsetInCU: 0x19563, offset: 0x38982, size: 0x8, addend: 0x0, symName: __ZN8nlohmann16json_abi_v3_11_36detail10type_error6createIPNS0_10basic_jsonINSt3__13mapENS5_6vectorENS5_12basic_stringIcNS5_11char_traitsIcEENS5_9allocatorIcEEEEbxydSB_NS0_14adl_serializerENS7_IhNSB_IhEEEEvEELi0EEES2_iRKSD_T_, symObjAddr: 0x12C70, symBinAddr: 0x100013D50, symSize: 0x160 }
  - { offsetInCU: 0x195C3, offset: 0x389E2, size: 0x8, addend: 0x0, symName: __ZNK8nlohmann16json_abi_v3_11_310basic_jsonINSt3__13mapENS2_6vectorENS2_12basic_stringIcNS2_11char_traitsIcEENS2_9allocatorIcEEEEbxydS8_NS0_14adl_serializerENS4_IhNS8_IhEEEEvE9type_nameEv, symObjAddr: 0x12E80, symBinAddr: 0x100013F60, symSize: 0xE0 }
  - { offsetInCU: 0x195E9, offset: 0x38A08, size: 0x8, addend: 0x0, symName: __ZN8nlohmann16json_abi_v3_11_310basic_jsonINSt3__13mapENS2_6vectorENS2_12basic_stringIcNS2_11char_traitsIcEENS2_9allocatorIcEEEEbxydS8_NS0_14adl_serializerENS4_IhNS8_IhEEEEvE10json_valueC1ENS0_6detail7value_tE, symObjAddr: 0x12F60, symBinAddr: 0x100014040, symSize: 0x30 }
  - { offsetInCU: 0x19622, offset: 0x38A41, size: 0x8, addend: 0x0, symName: __ZNSt3__13mapINS_12basic_stringIcNS_11char_traitsIcEENS_9allocatorIcEEEEN8nlohmann16json_abi_v3_11_310basic_jsonIS0_NS_6vectorES6_bxydS4_NS8_14adl_serializerENSA_IhNS4_IhEEEEvEENS_4lessIvEENS4_INS_4pairIKS6_SE_EEEEE6insertB8ue170006ERKSJ_, symObjAddr: 0x12F90, symBinAddr: 0x100014070, symSize: 0x40 }
  - { offsetInCU: 0x19657, offset: 0x38A76, size: 0x8, addend: 0x0, symName: __ZN8nlohmann16json_abi_v3_11_310basic_jsonINSt3__13mapENS2_6vectorENS2_12basic_stringIcNS2_11char_traitsIcEENS2_9allocatorIcEEEEbxydS8_NS0_14adl_serializerENS4_IhNS8_IhEEEEvE10set_parentERSE_m, symObjAddr: 0x12FD0, symBinAddr: 0x1000140B0, symSize: 0x20 }
  - { offsetInCU: 0x1969B, offset: 0x38ABA, size: 0x8, addend: 0x0, symName: __ZNKSt3__114__map_iteratorINS_15__tree_iteratorINS_12__value_typeINS_12basic_stringIcNS_11char_traitsIcEENS_9allocatorIcEEEEN8nlohmann16json_abi_v3_11_310basic_jsonINS_3mapENS_6vectorES8_bxydS6_NSA_14adl_serializerENSD_IhNS6_IhEEEEvEEEEPNS_11__tree_nodeISI_PvEElEEEptB8ue170006Ev, symObjAddr: 0x12FF0, symBinAddr: 0x1000140D0, symSize: 0x30 }
  - { offsetInCU: 0x196C1, offset: 0x38AE0, size: 0x8, addend: 0x0, symName: __ZN8nlohmann16json_abi_v3_11_36detail9exception11diagnosticsINS0_10basic_jsonINSt3__13mapENS5_6vectorENS5_12basic_stringIcNS5_11char_traitsIcEENS5_9allocatorIcEEEEbxydSB_NS0_14adl_serializerENS7_IhNSB_IhEEEEvEEEESD_PKT_, symObjAddr: 0x13020, symBinAddr: 0x100014100, symSize: 0x30 }
  - { offsetInCU: 0x196EE, offset: 0x38B0D, size: 0x8, addend: 0x0, symName: __ZN8nlohmann16json_abi_v3_11_310basic_jsonINSt3__13mapENS2_6vectorENS2_12basic_stringIcNS2_11char_traitsIcEENS2_9allocatorIcEEEEbxydS8_NS0_14adl_serializerENS4_IhNS8_IhEEEEvE10json_valueC2ENS0_6detail7value_tE, symObjAddr: 0x13100, symBinAddr: 0x1000141E0, symSize: 0x1F0 }
  - { offsetInCU: 0x19727, offset: 0x38B46, size: 0x8, addend: 0x0, symName: __ZN8nlohmann16json_abi_v3_11_310basic_jsonINSt3__13mapENS2_6vectorENS2_12basic_stringIcNS2_11char_traitsIcEENS2_9allocatorIcEEEEbxydS8_NS0_14adl_serializerENS4_IhNS8_IhEEEEvE6createINS3_ISA_SE_NS2_4lessIvEENS8_INS2_4pairIKSA_SE_EEEEEEJEEEPT_DpOT0_, symObjAddr: 0x132F0, symBinAddr: 0x1000143D0, symSize: 0xE0 }
  - { offsetInCU: 0x197A0, offset: 0x38BBF, size: 0x8, addend: 0x0, symName: __ZN8nlohmann16json_abi_v3_11_310basic_jsonINSt3__13mapENS2_6vectorENS2_12basic_stringIcNS2_11char_traitsIcEENS2_9allocatorIcEEEEbxydS8_NS0_14adl_serializerENS4_IhNS8_IhEEEEvE6createINS4_ISE_NS8_ISE_EEEEJEEEPT_DpOT0_, symObjAddr: 0x133D0, symBinAddr: 0x1000144B0, symSize: 0xE0 }
  - { offsetInCU: 0x19832, offset: 0x38C51, size: 0x8, addend: 0x0, symName: __ZN8nlohmann16json_abi_v3_11_310basic_jsonINSt3__13mapENS2_6vectorENS2_12basic_stringIcNS2_11char_traitsIcEENS2_9allocatorIcEEEEbxydS8_NS0_14adl_serializerENS4_IhNS8_IhEEEEvE6createISA_JRA1_KcEEEPT_DpOT0_, symObjAddr: 0x134B0, symBinAddr: 0x100014590, symSize: 0xF0 }
  - { offsetInCU: 0x198C0, offset: 0x38CDF, size: 0x8, addend: 0x0, symName: __ZN8nlohmann16json_abi_v3_11_310basic_jsonINSt3__13mapENS2_6vectorENS2_12basic_stringIcNS2_11char_traitsIcEENS2_9allocatorIcEEEEbxydS8_NS0_14adl_serializerENS4_IhNS8_IhEEEEvE6createINS0_27byte_container_with_subtypeISD_EEJEEEPT_DpOT0_, symObjAddr: 0x135A0, symBinAddr: 0x100014680, symSize: 0xE0 }
  - { offsetInCU: 0x1993F, offset: 0x38D5E, size: 0x8, addend: 0x0, symName: __ZN8nlohmann16json_abi_v3_11_36detail11other_error6createIDnLi0EEES2_iRKNSt3__112basic_stringIcNS4_11char_traitsIcEENS4_9allocatorIcEEEET_, symObjAddr: 0x13680, symBinAddr: 0x100014760, symSize: 0x160 }
  - { offsetInCU: 0x1999F, offset: 0x38DBE, size: 0x8, addend: 0x0, symName: __ZN8nlohmann16json_abi_v3_11_36detail11other_errorD1Ev, symObjAddr: 0x137E0, symBinAddr: 0x1000148C0, symSize: 0x20 }
  - { offsetInCU: 0x19A3F, offset: 0x38E5E, size: 0x8, addend: 0x0, symName: __ZNSt3__110unique_ptrINS_3mapINS_12basic_stringIcNS_11char_traitsIcEENS_9allocatorIcEEEEN8nlohmann16json_abi_v3_11_310basic_jsonIS1_NS_6vectorES7_bxydS5_NS9_14adl_serializerENSB_IhNS5_IhEEEEvEENS_4lessIvEENS5_INS_4pairIKS7_SF_EEEEEEZNSF_6createISM_JEEEPT_DpOT0_EUlPSM_E_EC1B8ue170006ILb1EvEEST_NS_16__dependent_typeINS_27__unique_ptr_deleter_sfinaeISU_EEXT_EE15__lval_ref_typeE, symObjAddr: 0x13800, symBinAddr: 0x1000148E0, symSize: 0x30 }
  - { offsetInCU: 0x19A90, offset: 0x38EAF, size: 0x8, addend: 0x0, symName: __ZNSt3__116allocator_traitsINS_9allocatorINS_3mapINS_12basic_stringIcNS_11char_traitsIcEENS1_IcEEEEN8nlohmann16json_abi_v3_11_310basic_jsonIS2_NS_6vectorES7_bxydS1_NS9_14adl_serializerENSB_IhNS1_IhEEEEvEENS_4lessIvEENS1_INS_4pairIKS7_SF_EEEEEEEEE9constructB8ue170006ISM_JEvEEvRSN_PT_DpOT0_, symObjAddr: 0x13830, symBinAddr: 0x100014910, symSize: 0x30 }
  - { offsetInCU: 0x19AD2, offset: 0x38EF1, size: 0x8, addend: 0x0, symName: __ZNKSt3__110unique_ptrINS_3mapINS_12basic_stringIcNS_11char_traitsIcEENS_9allocatorIcEEEEN8nlohmann16json_abi_v3_11_310basic_jsonIS1_NS_6vectorES7_bxydS5_NS9_14adl_serializerENSB_IhNS5_IhEEEEvEENS_4lessIvEENS5_INS_4pairIKS7_SF_EEEEEEZNSF_6createISM_JEEEPT_DpOT0_EUlPSM_E_E3getB8ue170006Ev, symObjAddr: 0x13860, symBinAddr: 0x100014940, symSize: 0x20 }
  - { offsetInCU: 0x19AF8, offset: 0x38F17, size: 0x8, addend: 0x0, symName: __ZNSt3__110unique_ptrINS_3mapINS_12basic_stringIcNS_11char_traitsIcEENS_9allocatorIcEEEEN8nlohmann16json_abi_v3_11_310basic_jsonIS1_NS_6vectorES7_bxydS5_NS9_14adl_serializerENSB_IhNS5_IhEEEEvEENS_4lessIvEENS5_INS_4pairIKS7_SF_EEEEEEZNSF_6createISM_JEEEPT_DpOT0_EUlPSM_E_E7releaseB8ue170006Ev, symObjAddr: 0x138B0, symBinAddr: 0x100014990, symSize: 0x40 }
  - { offsetInCU: 0x19B2D, offset: 0x38F4C, size: 0x8, addend: 0x0, symName: __ZNSt3__110unique_ptrINS_3mapINS_12basic_stringIcNS_11char_traitsIcEENS_9allocatorIcEEEEN8nlohmann16json_abi_v3_11_310basic_jsonIS1_NS_6vectorES7_bxydS5_NS9_14adl_serializerENSB_IhNS5_IhEEEEvEENS_4lessIvEENS5_INS_4pairIKS7_SF_EEEEEEZNSF_6createISM_JEEEPT_DpOT0_EUlPSM_E_ED1B8ue170006Ev, symObjAddr: 0x138F0, symBinAddr: 0x1000149D0, symSize: 0x20 }
  - { offsetInCU: 0x19B57, offset: 0x38F76, size: 0x8, addend: 0x0, symName: __ZNSt3__110unique_ptrINS_3mapINS_12basic_stringIcNS_11char_traitsIcEENS_9allocatorIcEEEEN8nlohmann16json_abi_v3_11_310basic_jsonIS1_NS_6vectorES7_bxydS5_NS9_14adl_serializerENSB_IhNS5_IhEEEEvEENS_4lessIvEENS5_INS_4pairIKS7_SF_EEEEEEZNSF_6createISM_JEEEPT_DpOT0_EUlPSM_E_EC2B8ue170006ILb1EvEEST_NS_16__dependent_typeINS_27__unique_ptr_deleter_sfinaeISU_EEXT_EE15__lval_ref_typeE, symObjAddr: 0x13910, symBinAddr: 0x1000149F0, symSize: 0x40 }
  - { offsetInCU: 0x19BA8, offset: 0x38FC7, size: 0x8, addend: 0x0, symName: __ZNSt3__117__compressed_pairIPNS_3mapINS_12basic_stringIcNS_11char_traitsIcEENS_9allocatorIcEEEEN8nlohmann16json_abi_v3_11_310basic_jsonIS1_NS_6vectorES7_bxydS5_NS9_14adl_serializerENSB_IhNS5_IhEEEEvEENS_4lessIvEENS5_INS_4pairIKS7_SF_EEEEEEZNSF_6createISM_JEEEPT_DpOT0_EUlSN_E_EC1B8ue170006IRSN_RKSU_EEOSP_OT0_, symObjAddr: 0x13950, symBinAddr: 0x100014A30, symSize: 0x30 }
  - { offsetInCU: 0x19C00, offset: 0x3901F, size: 0x8, addend: 0x0, symName: __ZNSt3__117__compressed_pairIPNS_3mapINS_12basic_stringIcNS_11char_traitsIcEENS_9allocatorIcEEEEN8nlohmann16json_abi_v3_11_310basic_jsonIS1_NS_6vectorES7_bxydS5_NS9_14adl_serializerENSB_IhNS5_IhEEEEvEENS_4lessIvEENS5_INS_4pairIKS7_SF_EEEEEEZNSF_6createISM_JEEEPT_DpOT0_EUlSN_E_EC2B8ue170006IRSN_RKSU_EEOSP_OT0_, symObjAddr: 0x13980, symBinAddr: 0x100014A60, symSize: 0x40 }
  - { offsetInCU: 0x19C58, offset: 0x39077, size: 0x8, addend: 0x0, symName: __ZNSt3__122__compressed_pair_elemIZN8nlohmann16json_abi_v3_11_310basic_jsonINS_3mapENS_6vectorENS_12basic_stringIcNS_11char_traitsIcEENS_9allocatorIcEEEEbxydS9_NS2_14adl_serializerENS5_IhNS9_IhEEEEvE6createINS4_ISB_SF_NS_4lessIvEENS9_INS_4pairIKSB_SF_EEEEEEJEEEPT_DpOT0_EUlPSN_E_Li1ELb0EEC2B8ue170006IRKSU_vEEOSO_, symObjAddr: 0x139C0, symBinAddr: 0x100014AA0, symSize: 0x20 }
  - { offsetInCU: 0x19C9A, offset: 0x390B9, size: 0x8, addend: 0x0, symName: __ZNSt3__19allocatorINS_3mapINS_12basic_stringIcNS_11char_traitsIcEENS0_IcEEEEN8nlohmann16json_abi_v3_11_310basic_jsonIS1_NS_6vectorES6_bxydS0_NS8_14adl_serializerENSA_IhNS0_IhEEEEvEENS_4lessIvEENS0_INS_4pairIKS6_SE_EEEEEEE9constructB8ue170006ISL_JEEEvPT_DpOT0_, symObjAddr: 0x139E0, symBinAddr: 0x100014AC0, symSize: 0x20 }
  - { offsetInCU: 0x19CDC, offset: 0x390FB, size: 0x8, addend: 0x0, symName: __ZNSt3__13mapINS_12basic_stringIcNS_11char_traitsIcEENS_9allocatorIcEEEEN8nlohmann16json_abi_v3_11_310basic_jsonIS0_NS_6vectorES6_bxydS4_NS8_14adl_serializerENSA_IhNS4_IhEEEEvEENS_4lessIvEENS4_INS_4pairIKS6_SE_EEEEEC1B8ue170006Ev, symObjAddr: 0x13A00, symBinAddr: 0x100014AE0, symSize: 0x20 }
  - { offsetInCU: 0x19D06, offset: 0x39125, size: 0x8, addend: 0x0, symName: __ZNSt3__13mapINS_12basic_stringIcNS_11char_traitsIcEENS_9allocatorIcEEEEN8nlohmann16json_abi_v3_11_310basic_jsonIS0_NS_6vectorES6_bxydS4_NS8_14adl_serializerENSA_IhNS4_IhEEEEvEENS_4lessIvEENS4_INS_4pairIKS6_SE_EEEEEC2B8ue170006Ev, symObjAddr: 0x13A20, symBinAddr: 0x100014B00, symSize: 0x30 }
  - { offsetInCU: 0x19D30, offset: 0x3914F, size: 0x8, addend: 0x0, symName: __ZNSt3__119__map_value_compareINS_12basic_stringIcNS_11char_traitsIcEENS_9allocatorIcEEEENS_12__value_typeIS6_N8nlohmann16json_abi_v3_11_310basic_jsonINS_3mapENS_6vectorES6_bxydS4_NS9_14adl_serializerENSC_IhNS4_IhEEEEvEEEENS_4lessIvEELb1EEC1B8ue170006ESJ_, symObjAddr: 0x13A50, symBinAddr: 0x100014B30, symSize: 0x20 }
  - { offsetInCU: 0x19D69, offset: 0x39188, size: 0x8, addend: 0x0, symName: __ZNSt3__16__treeINS_12__value_typeINS_12basic_stringIcNS_11char_traitsIcEENS_9allocatorIcEEEEN8nlohmann16json_abi_v3_11_310basic_jsonINS_3mapENS_6vectorES7_bxydS5_NS9_14adl_serializerENSC_IhNS5_IhEEEEvEEEENS_19__map_value_compareIS7_SH_NS_4lessIvEELb1EEENS5_ISH_EEEC1ERKSL_, symObjAddr: 0x13A70, symBinAddr: 0x100014B50, symSize: 0x30 }
  - { offsetInCU: 0x19DA4, offset: 0x391C3, size: 0x8, addend: 0x0, symName: __ZNSt3__119__map_value_compareINS_12basic_stringIcNS_11char_traitsIcEENS_9allocatorIcEEEENS_12__value_typeIS6_N8nlohmann16json_abi_v3_11_310basic_jsonINS_3mapENS_6vectorES6_bxydS4_NS9_14adl_serializerENSC_IhNS4_IhEEEEvEEEENS_4lessIvEELb1EEC2B8ue170006ESJ_, symObjAddr: 0x13AA0, symBinAddr: 0x100014B80, symSize: 0x10 }
  - { offsetInCU: 0x19DDD, offset: 0x391FC, size: 0x8, addend: 0x0, symName: __ZNSt3__16__treeINS_12__value_typeINS_12basic_stringIcNS_11char_traitsIcEENS_9allocatorIcEEEEN8nlohmann16json_abi_v3_11_310basic_jsonINS_3mapENS_6vectorES7_bxydS5_NS9_14adl_serializerENSC_IhNS5_IhEEEEvEEEENS_19__map_value_compareIS7_SH_NS_4lessIvEELb1EEENS5_ISH_EEEC2ERKSL_, symObjAddr: 0x13AB0, symBinAddr: 0x100014B90, symSize: 0x80 }
  - { offsetInCU: 0x19E18, offset: 0x39237, size: 0x8, addend: 0x0, symName: __ZNSt3__117__compressed_pairINS_15__tree_end_nodeIPNS_16__tree_node_baseIPvEEEENS_9allocatorINS_11__tree_nodeINS_12__value_typeINS_12basic_stringIcNS_11char_traitsIcEENS7_IcEEEEN8nlohmann16json_abi_v3_11_310basic_jsonINS_3mapENS_6vectorESE_bxydS7_NSG_14adl_serializerENSJ_IhNS7_IhEEEEvEEEES3_EEEEEC1B8ue170006ILb1EvEEv, symObjAddr: 0x13B30, symBinAddr: 0x100014C10, symSize: 0x20 }
  - { offsetInCU: 0x19E4D, offset: 0x3926C, size: 0x8, addend: 0x0, symName: __ZNSt3__117__compressed_pairINS_15__tree_end_nodeIPNS_16__tree_node_baseIPvEEEENS_9allocatorINS_11__tree_nodeINS_12__value_typeINS_12basic_stringIcNS_11char_traitsIcEENS7_IcEEEEN8nlohmann16json_abi_v3_11_310basic_jsonINS_3mapENS_6vectorESE_bxydS7_NSG_14adl_serializerENSJ_IhNS7_IhEEEEvEEEES3_EEEEEC2B8ue170006ILb1EvEEv, symObjAddr: 0x13B50, symBinAddr: 0x100014C30, symSize: 0x30 }
  - { offsetInCU: 0x19E82, offset: 0x392A1, size: 0x8, addend: 0x0, symName: __ZNSt3__122__compressed_pair_elemINS_15__tree_end_nodeIPNS_16__tree_node_baseIPvEEEELi0ELb0EEC2B8ue170006ENS_16__value_init_tagE, symObjAddr: 0x13B80, symBinAddr: 0x100014C60, symSize: 0x20 }
  - { offsetInCU: 0x19EB7, offset: 0x392D6, size: 0x8, addend: 0x0, symName: __ZNSt3__122__compressed_pair_elemINS_9allocatorINS_11__tree_nodeINS_12__value_typeINS_12basic_stringIcNS_11char_traitsIcEENS1_IcEEEEN8nlohmann16json_abi_v3_11_310basic_jsonINS_3mapENS_6vectorES8_bxydS1_NSA_14adl_serializerENSD_IhNS1_IhEEEEvEEEEPvEEEELi1ELb1EEC2B8ue170006ENS_16__value_init_tagE, symObjAddr: 0x13BA0, symBinAddr: 0x100014C80, symSize: 0x20 }
  - { offsetInCU: 0x19EEC, offset: 0x3930B, size: 0x8, addend: 0x0, symName: __ZNSt3__19allocatorINS_11__tree_nodeINS_12__value_typeINS_12basic_stringIcNS_11char_traitsIcEENS0_IcEEEEN8nlohmann16json_abi_v3_11_310basic_jsonINS_3mapENS_6vectorES7_bxydS0_NS9_14adl_serializerENSC_IhNS0_IhEEEEvEEEEPvEEEC2B8ue170006Ev, symObjAddr: 0x13BC0, symBinAddr: 0x100014CA0, symSize: 0x20 }
  - { offsetInCU: 0x19F16, offset: 0x39335, size: 0x8, addend: 0x0, symName: __ZNSt3__116__non_trivial_ifILb1ENS_9allocatorINS_11__tree_nodeINS_12__value_typeINS_12basic_stringIcNS_11char_traitsIcEENS1_IcEEEEN8nlohmann16json_abi_v3_11_310basic_jsonINS_3mapENS_6vectorES8_bxydS1_NSA_14adl_serializerENSD_IhNS1_IhEEEEvEEEEPvEEEEEC2B8ue170006Ev, symObjAddr: 0x13BE0, symBinAddr: 0x100014CC0, symSize: 0x10 }
  - { offsetInCU: 0x19F40, offset: 0x3935F, size: 0x8, addend: 0x0, symName: __ZNKSt3__117__compressed_pairIPNS_3mapINS_12basic_stringIcNS_11char_traitsIcEENS_9allocatorIcEEEEN8nlohmann16json_abi_v3_11_310basic_jsonIS1_NS_6vectorES7_bxydS5_NS9_14adl_serializerENSB_IhNS5_IhEEEEvEENS_4lessIvEENS5_INS_4pairIKS7_SF_EEEEEEZNSF_6createISM_JEEEPT_DpOT0_EUlSN_E_E5firstB8ue170006Ev, symObjAddr: 0x13BF0, symBinAddr: 0x100014CD0, symSize: 0x20 }
  - { offsetInCU: 0x19F66, offset: 0x39385, size: 0x8, addend: 0x0, symName: __ZNKSt3__110unique_ptrINS_3mapINS_12basic_stringIcNS_11char_traitsIcEENS_9allocatorIcEEEEN8nlohmann16json_abi_v3_11_310basic_jsonIS1_NS_6vectorES7_bxydS5_NS9_14adl_serializerENSB_IhNS5_IhEEEEvEENS_4lessIvEENS5_INS_4pairIKS7_SF_EEEEEEZNSF_6createISM_JEEEPT_DpOT0_EUlPSM_E_EcvbB8ue170006Ev, symObjAddr: 0x13C10, symBinAddr: 0x100014CF0, symSize: 0x30 }
  - { offsetInCU: 0x19F8C, offset: 0x393AB, size: 0x8, addend: 0x0, symName: __ZNSt3__117__compressed_pairIPNS_3mapINS_12basic_stringIcNS_11char_traitsIcEENS_9allocatorIcEEEEN8nlohmann16json_abi_v3_11_310basic_jsonIS1_NS_6vectorES7_bxydS5_NS9_14adl_serializerENSB_IhNS5_IhEEEEvEENS_4lessIvEENS5_INS_4pairIKS7_SF_EEEEEEZNSF_6createISM_JEEEPT_DpOT0_EUlSN_E_E5firstB8ue170006Ev, symObjAddr: 0x13C40, symBinAddr: 0x100014D20, symSize: 0x20 }
  - { offsetInCU: 0x19FB2, offset: 0x393D1, size: 0x8, addend: 0x0, symName: __ZNSt3__110unique_ptrINS_3mapINS_12basic_stringIcNS_11char_traitsIcEENS_9allocatorIcEEEEN8nlohmann16json_abi_v3_11_310basic_jsonIS1_NS_6vectorES7_bxydS5_NS9_14adl_serializerENSB_IhNS5_IhEEEEvEENS_4lessIvEENS5_INS_4pairIKS7_SF_EEEEEEZNSF_6createISM_JEEEPT_DpOT0_EUlPSM_E_ED2B8ue170006Ev, symObjAddr: 0x13C60, symBinAddr: 0x100014D40, symSize: 0x20 }
  - { offsetInCU: 0x19FDC, offset: 0x393FB, size: 0x8, addend: 0x0, symName: __ZNSt3__110unique_ptrINS_3mapINS_12basic_stringIcNS_11char_traitsIcEENS_9allocatorIcEEEEN8nlohmann16json_abi_v3_11_310basic_jsonIS1_NS_6vectorES7_bxydS5_NS9_14adl_serializerENSB_IhNS5_IhEEEEvEENS_4lessIvEENS5_INS_4pairIKS7_SF_EEEEEEZNSF_6createISM_JEEEPT_DpOT0_EUlPSM_E_E5resetB8ue170006EST_, symObjAddr: 0x13C80, symBinAddr: 0x100014D60, symSize: 0x80 }
  - { offsetInCU: 0x1A020, offset: 0x3943F, size: 0x8, addend: 0x0, symName: __ZNSt3__117__compressed_pairIPNS_3mapINS_12basic_stringIcNS_11char_traitsIcEENS_9allocatorIcEEEEN8nlohmann16json_abi_v3_11_310basic_jsonIS1_NS_6vectorES7_bxydS5_NS9_14adl_serializerENSB_IhNS5_IhEEEEvEENS_4lessIvEENS5_INS_4pairIKS7_SF_EEEEEEZNSF_6createISM_JEEEPT_DpOT0_EUlSN_E_E6secondB8ue170006Ev, symObjAddr: 0x13D00, symBinAddr: 0x100014DE0, symSize: 0x20 }
  - { offsetInCU: 0x1A04C, offset: 0x3946B, size: 0x8, addend: 0x0, symName: __ZZN8nlohmann16json_abi_v3_11_310basic_jsonINSt3__13mapENS2_6vectorENS2_12basic_stringIcNS2_11char_traitsIcEENS2_9allocatorIcEEEEbxydS8_NS0_14adl_serializerENS4_IhNS8_IhEEEEvE6createINS3_ISA_SE_NS2_4lessIvEENS8_INS2_4pairIKSA_SE_EEEEEEJEEEPT_DpOT0_ENKUlPSM_E_clESS_, symObjAddr: 0x13D20, symBinAddr: 0x100014E00, symSize: 0x30 }
  - { offsetInCU: 0x1A085, offset: 0x394A4, size: 0x8, addend: 0x0, symName: __ZNSt3__122__compressed_pair_elemIZN8nlohmann16json_abi_v3_11_310basic_jsonINS_3mapENS_6vectorENS_12basic_stringIcNS_11char_traitsIcEENS_9allocatorIcEEEEbxydS9_NS2_14adl_serializerENS5_IhNS9_IhEEEEvE6createINS4_ISB_SF_NS_4lessIvEENS9_INS_4pairIKSB_SF_EEEEEEJEEEPT_DpOT0_EUlPSN_E_Li1ELb0EE5__getB8ue170006Ev, symObjAddr: 0x13D50, symBinAddr: 0x100014E30, symSize: 0x10 }
  - { offsetInCU: 0x1A11E, offset: 0x3953D, size: 0x8, addend: 0x0, symName: __ZNSt3__110unique_ptrINS_6vectorIN8nlohmann16json_abi_v3_11_310basic_jsonINS_3mapES1_NS_12basic_stringIcNS_11char_traitsIcEENS_9allocatorIcEEEEbxydS9_NS3_14adl_serializerENS1_IhNS9_IhEEEEvEENS9_ISF_EEEEZNSF_6createISH_JEEEPT_DpOT0_EUlPSH_E_EC1B8ue170006ILb1EvEESO_NS_16__dependent_typeINS_27__unique_ptr_deleter_sfinaeISP_EEXT_EE15__lval_ref_typeE, symObjAddr: 0x13D60, symBinAddr: 0x100014E40, symSize: 0x30 }
  - { offsetInCU: 0x1A16F, offset: 0x3958E, size: 0x8, addend: 0x0, symName: __ZNSt3__116allocator_traitsINS_9allocatorINS_6vectorIN8nlohmann16json_abi_v3_11_310basic_jsonINS_3mapES2_NS_12basic_stringIcNS_11char_traitsIcEENS1_IcEEEEbxydS1_NS4_14adl_serializerENS2_IhNS1_IhEEEEvEENS1_ISF_EEEEEEE9constructB8ue170006ISH_JEvEEvRSI_PT_DpOT0_, symObjAddr: 0x13D90, symBinAddr: 0x100014E70, symSize: 0x30 }
  - { offsetInCU: 0x1A1B1, offset: 0x395D0, size: 0x8, addend: 0x0, symName: __ZNKSt3__110unique_ptrINS_6vectorIN8nlohmann16json_abi_v3_11_310basic_jsonINS_3mapES1_NS_12basic_stringIcNS_11char_traitsIcEENS_9allocatorIcEEEEbxydS9_NS3_14adl_serializerENS1_IhNS9_IhEEEEvEENS9_ISF_EEEEZNSF_6createISH_JEEEPT_DpOT0_EUlPSH_E_E3getB8ue170006Ev, symObjAddr: 0x13DC0, symBinAddr: 0x100014EA0, symSize: 0x20 }
  - { offsetInCU: 0x1A1D7, offset: 0x395F6, size: 0x8, addend: 0x0, symName: __ZNSt3__110unique_ptrINS_6vectorIN8nlohmann16json_abi_v3_11_310basic_jsonINS_3mapES1_NS_12basic_stringIcNS_11char_traitsIcEENS_9allocatorIcEEEEbxydS9_NS3_14adl_serializerENS1_IhNS9_IhEEEEvEENS9_ISF_EEEEZNSF_6createISH_JEEEPT_DpOT0_EUlPSH_E_E7releaseB8ue170006Ev, symObjAddr: 0x13E10, symBinAddr: 0x100014EF0, symSize: 0x40 }
  - { offsetInCU: 0x1A20C, offset: 0x3962B, size: 0x8, addend: 0x0, symName: __ZNSt3__110unique_ptrINS_6vectorIN8nlohmann16json_abi_v3_11_310basic_jsonINS_3mapES1_NS_12basic_stringIcNS_11char_traitsIcEENS_9allocatorIcEEEEbxydS9_NS3_14adl_serializerENS1_IhNS9_IhEEEEvEENS9_ISF_EEEEZNSF_6createISH_JEEEPT_DpOT0_EUlPSH_E_ED1B8ue170006Ev, symObjAddr: 0x13E50, symBinAddr: 0x100014F30, symSize: 0x20 }
  - { offsetInCU: 0x1A236, offset: 0x39655, size: 0x8, addend: 0x0, symName: __ZNSt3__110unique_ptrINS_6vectorIN8nlohmann16json_abi_v3_11_310basic_jsonINS_3mapES1_NS_12basic_stringIcNS_11char_traitsIcEENS_9allocatorIcEEEEbxydS9_NS3_14adl_serializerENS1_IhNS9_IhEEEEvEENS9_ISF_EEEEZNSF_6createISH_JEEEPT_DpOT0_EUlPSH_E_EC2B8ue170006ILb1EvEESO_NS_16__dependent_typeINS_27__unique_ptr_deleter_sfinaeISP_EEXT_EE15__lval_ref_typeE, symObjAddr: 0x13E70, symBinAddr: 0x100014F50, symSize: 0x40 }
  - { offsetInCU: 0x1A287, offset: 0x396A6, size: 0x8, addend: 0x0, symName: __ZNSt3__117__compressed_pairIPNS_6vectorIN8nlohmann16json_abi_v3_11_310basic_jsonINS_3mapES1_NS_12basic_stringIcNS_11char_traitsIcEENS_9allocatorIcEEEEbxydS9_NS3_14adl_serializerENS1_IhNS9_IhEEEEvEENS9_ISF_EEEEZNSF_6createISH_JEEEPT_DpOT0_EUlSI_E_EC1B8ue170006IRSI_RKSP_EEOSK_OT0_, symObjAddr: 0x13EB0, symBinAddr: 0x100014F90, symSize: 0x30 }
  - { offsetInCU: 0x1A2DF, offset: 0x396FE, size: 0x8, addend: 0x0, symName: __ZNSt3__117__compressed_pairIPNS_6vectorIN8nlohmann16json_abi_v3_11_310basic_jsonINS_3mapES1_NS_12basic_stringIcNS_11char_traitsIcEENS_9allocatorIcEEEEbxydS9_NS3_14adl_serializerENS1_IhNS9_IhEEEEvEENS9_ISF_EEEEZNSF_6createISH_JEEEPT_DpOT0_EUlSI_E_EC2B8ue170006IRSI_RKSP_EEOSK_OT0_, symObjAddr: 0x13EE0, symBinAddr: 0x100014FC0, symSize: 0x40 }
  - { offsetInCU: 0x1A337, offset: 0x39756, size: 0x8, addend: 0x0, symName: __ZNSt3__122__compressed_pair_elemIZN8nlohmann16json_abi_v3_11_310basic_jsonINS_3mapENS_6vectorENS_12basic_stringIcNS_11char_traitsIcEENS_9allocatorIcEEEEbxydS9_NS2_14adl_serializerENS5_IhNS9_IhEEEEvE6createINS5_ISF_NS9_ISF_EEEEJEEEPT_DpOT0_EUlPSI_E_Li1ELb0EEC2B8ue170006IRKSP_vEEOSJ_, symObjAddr: 0x13F20, symBinAddr: 0x100015000, symSize: 0x20 }
  - { offsetInCU: 0x1A379, offset: 0x39798, size: 0x8, addend: 0x0, symName: __ZNSt3__19allocatorINS_6vectorIN8nlohmann16json_abi_v3_11_310basic_jsonINS_3mapES1_NS_12basic_stringIcNS_11char_traitsIcEENS0_IcEEEEbxydS0_NS3_14adl_serializerENS1_IhNS0_IhEEEEvEENS0_ISE_EEEEE9constructB8ue170006ISG_JEEEvPT_DpOT0_, symObjAddr: 0x13F40, symBinAddr: 0x100015020, symSize: 0x20 }
  - { offsetInCU: 0x1A3BB, offset: 0x397DA, size: 0x8, addend: 0x0, symName: __ZNKSt3__117__compressed_pairIPNS_6vectorIN8nlohmann16json_abi_v3_11_310basic_jsonINS_3mapES1_NS_12basic_stringIcNS_11char_traitsIcEENS_9allocatorIcEEEEbxydS9_NS3_14adl_serializerENS1_IhNS9_IhEEEEvEENS9_ISF_EEEEZNSF_6createISH_JEEEPT_DpOT0_EUlSI_E_E5firstB8ue170006Ev, symObjAddr: 0x13F60, symBinAddr: 0x100015040, symSize: 0x20 }
  - { offsetInCU: 0x1A3E1, offset: 0x39800, size: 0x8, addend: 0x0, symName: __ZNKSt3__110unique_ptrINS_6vectorIN8nlohmann16json_abi_v3_11_310basic_jsonINS_3mapES1_NS_12basic_stringIcNS_11char_traitsIcEENS_9allocatorIcEEEEbxydS9_NS3_14adl_serializerENS1_IhNS9_IhEEEEvEENS9_ISF_EEEEZNSF_6createISH_JEEEPT_DpOT0_EUlPSH_E_EcvbB8ue170006Ev, symObjAddr: 0x13F80, symBinAddr: 0x100015060, symSize: 0x30 }
  - { offsetInCU: 0x1A407, offset: 0x39826, size: 0x8, addend: 0x0, symName: __ZNSt3__117__compressed_pairIPNS_6vectorIN8nlohmann16json_abi_v3_11_310basic_jsonINS_3mapES1_NS_12basic_stringIcNS_11char_traitsIcEENS_9allocatorIcEEEEbxydS9_NS3_14adl_serializerENS1_IhNS9_IhEEEEvEENS9_ISF_EEEEZNSF_6createISH_JEEEPT_DpOT0_EUlSI_E_E5firstB8ue170006Ev, symObjAddr: 0x13FB0, symBinAddr: 0x100015090, symSize: 0x20 }
  - { offsetInCU: 0x1A42D, offset: 0x3984C, size: 0x8, addend: 0x0, symName: __ZNSt3__110unique_ptrINS_6vectorIN8nlohmann16json_abi_v3_11_310basic_jsonINS_3mapES1_NS_12basic_stringIcNS_11char_traitsIcEENS_9allocatorIcEEEEbxydS9_NS3_14adl_serializerENS1_IhNS9_IhEEEEvEENS9_ISF_EEEEZNSF_6createISH_JEEEPT_DpOT0_EUlPSH_E_ED2B8ue170006Ev, symObjAddr: 0x13FD0, symBinAddr: 0x1000150B0, symSize: 0x20 }
  - { offsetInCU: 0x1A457, offset: 0x39876, size: 0x8, addend: 0x0, symName: __ZNSt3__110unique_ptrINS_6vectorIN8nlohmann16json_abi_v3_11_310basic_jsonINS_3mapES1_NS_12basic_stringIcNS_11char_traitsIcEENS_9allocatorIcEEEEbxydS9_NS3_14adl_serializerENS1_IhNS9_IhEEEEvEENS9_ISF_EEEEZNSF_6createISH_JEEEPT_DpOT0_EUlPSH_E_E5resetB8ue170006ESO_, symObjAddr: 0x13FF0, symBinAddr: 0x1000150D0, symSize: 0x80 }
  - { offsetInCU: 0x1A49B, offset: 0x398BA, size: 0x8, addend: 0x0, symName: __ZNSt3__117__compressed_pairIPNS_6vectorIN8nlohmann16json_abi_v3_11_310basic_jsonINS_3mapES1_NS_12basic_stringIcNS_11char_traitsIcEENS_9allocatorIcEEEEbxydS9_NS3_14adl_serializerENS1_IhNS9_IhEEEEvEENS9_ISF_EEEEZNSF_6createISH_JEEEPT_DpOT0_EUlSI_E_E6secondB8ue170006Ev, symObjAddr: 0x14070, symBinAddr: 0x100015150, symSize: 0x20 }
  - { offsetInCU: 0x1A4C7, offset: 0x398E6, size: 0x8, addend: 0x0, symName: __ZZN8nlohmann16json_abi_v3_11_310basic_jsonINSt3__13mapENS2_6vectorENS2_12basic_stringIcNS2_11char_traitsIcEENS2_9allocatorIcEEEEbxydS8_NS0_14adl_serializerENS4_IhNS8_IhEEEEvE6createINS4_ISE_NS8_ISE_EEEEJEEEPT_DpOT0_ENKUlPSH_E_clESN_, symObjAddr: 0x14090, symBinAddr: 0x100015170, symSize: 0x30 }
  - { offsetInCU: 0x1A500, offset: 0x3991F, size: 0x8, addend: 0x0, symName: __ZNSt3__122__compressed_pair_elemIZN8nlohmann16json_abi_v3_11_310basic_jsonINS_3mapENS_6vectorENS_12basic_stringIcNS_11char_traitsIcEENS_9allocatorIcEEEEbxydS9_NS2_14adl_serializerENS5_IhNS9_IhEEEEvE6createINS5_ISF_NS9_ISF_EEEEJEEEPT_DpOT0_EUlPSI_E_Li1ELb0EE5__getB8ue170006Ev, symObjAddr: 0x140C0, symBinAddr: 0x1000151A0, symSize: 0x10 }
  - { offsetInCU: 0x1A599, offset: 0x399B8, size: 0x8, addend: 0x0, symName: __ZNSt3__110unique_ptrINS_12basic_stringIcNS_11char_traitsIcEENS_9allocatorIcEEEEZN8nlohmann16json_abi_v3_11_310basic_jsonINS_3mapENS_6vectorES6_bxydS4_NS8_14adl_serializerENSB_IhNS4_IhEEEEvE6createIS6_JRA1_KcEEEPT_DpOT0_EUlPS6_E_EC1B8ue170006ILb1EvEESP_NS_16__dependent_typeINS_27__unique_ptr_deleter_sfinaeISQ_EEXT_EE15__lval_ref_typeE, symObjAddr: 0x140D0, symBinAddr: 0x1000151B0, symSize: 0x30 }
  - { offsetInCU: 0x1A5EA, offset: 0x39A09, size: 0x8, addend: 0x0, symName: __ZNSt3__116allocator_traitsINS_9allocatorINS_12basic_stringIcNS_11char_traitsIcEENS1_IcEEEEEEE9constructB8ue170006IS6_JRA1_KcEvEEvRS7_PT_DpOT0_, symObjAddr: 0x14100, symBinAddr: 0x1000151E0, symSize: 0x30 }
  - { offsetInCU: 0x1A641, offset: 0x39A60, size: 0x8, addend: 0x0, symName: __ZNKSt3__110unique_ptrINS_12basic_stringIcNS_11char_traitsIcEENS_9allocatorIcEEEEZN8nlohmann16json_abi_v3_11_310basic_jsonINS_3mapENS_6vectorES6_bxydS4_NS8_14adl_serializerENSB_IhNS4_IhEEEEvE6createIS6_JRA1_KcEEEPT_DpOT0_EUlPS6_E_E3getB8ue170006Ev, symObjAddr: 0x14130, symBinAddr: 0x100015210, symSize: 0x20 }
  - { offsetInCU: 0x1A667, offset: 0x39A86, size: 0x8, addend: 0x0, symName: __ZNSt3__110unique_ptrINS_12basic_stringIcNS_11char_traitsIcEENS_9allocatorIcEEEEZN8nlohmann16json_abi_v3_11_310basic_jsonINS_3mapENS_6vectorES6_bxydS4_NS8_14adl_serializerENSB_IhNS4_IhEEEEvE6createIS6_JRA1_KcEEEPT_DpOT0_EUlPS6_E_E7releaseB8ue170006Ev, symObjAddr: 0x14180, symBinAddr: 0x100015260, symSize: 0x40 }
  - { offsetInCU: 0x1A69C, offset: 0x39ABB, size: 0x8, addend: 0x0, symName: __ZNSt3__110unique_ptrINS_12basic_stringIcNS_11char_traitsIcEENS_9allocatorIcEEEEZN8nlohmann16json_abi_v3_11_310basic_jsonINS_3mapENS_6vectorES6_bxydS4_NS8_14adl_serializerENSB_IhNS4_IhEEEEvE6createIS6_JRA1_KcEEEPT_DpOT0_EUlPS6_E_ED1B8ue170006Ev, symObjAddr: 0x141C0, symBinAddr: 0x1000152A0, symSize: 0x20 }
  - { offsetInCU: 0x1A6C6, offset: 0x39AE5, size: 0x8, addend: 0x0, symName: __ZNSt3__110unique_ptrINS_12basic_stringIcNS_11char_traitsIcEENS_9allocatorIcEEEEZN8nlohmann16json_abi_v3_11_310basic_jsonINS_3mapENS_6vectorES6_bxydS4_NS8_14adl_serializerENSB_IhNS4_IhEEEEvE6createIS6_JRA1_KcEEEPT_DpOT0_EUlPS6_E_EC2B8ue170006ILb1EvEESP_NS_16__dependent_typeINS_27__unique_ptr_deleter_sfinaeISQ_EEXT_EE15__lval_ref_typeE, symObjAddr: 0x141E0, symBinAddr: 0x1000152C0, symSize: 0x40 }
  - { offsetInCU: 0x1A717, offset: 0x39B36, size: 0x8, addend: 0x0, symName: __ZNSt3__117__compressed_pairIPNS_12basic_stringIcNS_11char_traitsIcEENS_9allocatorIcEEEEZN8nlohmann16json_abi_v3_11_310basic_jsonINS_3mapENS_6vectorES6_bxydS4_NS9_14adl_serializerENSC_IhNS4_IhEEEEvE6createIS6_JRA1_KcEEEPT_DpOT0_EUlS7_E_EC1B8ue170006IRS7_RKSQ_EEOSL_OT0_, symObjAddr: 0x14220, symBinAddr: 0x100015300, symSize: 0x30 }
  - { offsetInCU: 0x1A76F, offset: 0x39B8E, size: 0x8, addend: 0x0, symName: __ZNSt3__117__compressed_pairIPNS_12basic_stringIcNS_11char_traitsIcEENS_9allocatorIcEEEEZN8nlohmann16json_abi_v3_11_310basic_jsonINS_3mapENS_6vectorES6_bxydS4_NS9_14adl_serializerENSC_IhNS4_IhEEEEvE6createIS6_JRA1_KcEEEPT_DpOT0_EUlS7_E_EC2B8ue170006IRS7_RKSQ_EEOSL_OT0_, symObjAddr: 0x14250, symBinAddr: 0x100015330, symSize: 0x40 }
  - { offsetInCU: 0x1A7C7, offset: 0x39BE6, size: 0x8, addend: 0x0, symName: __ZNSt3__122__compressed_pair_elemIZN8nlohmann16json_abi_v3_11_310basic_jsonINS_3mapENS_6vectorENS_12basic_stringIcNS_11char_traitsIcEENS_9allocatorIcEEEEbxydS9_NS2_14adl_serializerENS5_IhNS9_IhEEEEvE6createISB_JRA1_KcEEEPT_DpOT0_EUlPSB_E_Li1ELb0EEC2B8ue170006IRKSQ_vEEOSK_, symObjAddr: 0x14290, symBinAddr: 0x100015370, symSize: 0x20 }
  - { offsetInCU: 0x1A809, offset: 0x39C28, size: 0x8, addend: 0x0, symName: __ZNSt3__19allocatorINS_12basic_stringIcNS_11char_traitsIcEENS0_IcEEEEE9constructB8ue170006IS5_JRA1_KcEEEvPT_DpOT0_, symObjAddr: 0x142B0, symBinAddr: 0x100015390, symSize: 0x30 }
  - { offsetInCU: 0x1A85F, offset: 0x39C7E, size: 0x8, addend: 0x0, symName: __ZNKSt3__117__compressed_pairIPNS_12basic_stringIcNS_11char_traitsIcEENS_9allocatorIcEEEEZN8nlohmann16json_abi_v3_11_310basic_jsonINS_3mapENS_6vectorES6_bxydS4_NS9_14adl_serializerENSC_IhNS4_IhEEEEvE6createIS6_JRA1_KcEEEPT_DpOT0_EUlS7_E_E5firstB8ue170006Ev, symObjAddr: 0x142E0, symBinAddr: 0x1000153C0, symSize: 0x20 }
  - { offsetInCU: 0x1A885, offset: 0x39CA4, size: 0x8, addend: 0x0, symName: __ZNKSt3__110unique_ptrINS_12basic_stringIcNS_11char_traitsIcEENS_9allocatorIcEEEEZN8nlohmann16json_abi_v3_11_310basic_jsonINS_3mapENS_6vectorES6_bxydS4_NS8_14adl_serializerENSB_IhNS4_IhEEEEvE6createIS6_JRA1_KcEEEPT_DpOT0_EUlPS6_E_EcvbB8ue170006Ev, symObjAddr: 0x14300, symBinAddr: 0x1000153E0, symSize: 0x30 }
  - { offsetInCU: 0x1A8AB, offset: 0x39CCA, size: 0x8, addend: 0x0, symName: __ZNSt3__117__compressed_pairIPNS_12basic_stringIcNS_11char_traitsIcEENS_9allocatorIcEEEEZN8nlohmann16json_abi_v3_11_310basic_jsonINS_3mapENS_6vectorES6_bxydS4_NS9_14adl_serializerENSC_IhNS4_IhEEEEvE6createIS6_JRA1_KcEEEPT_DpOT0_EUlS7_E_E5firstB8ue170006Ev, symObjAddr: 0x14330, symBinAddr: 0x100015410, symSize: 0x20 }
  - { offsetInCU: 0x1A8D1, offset: 0x39CF0, size: 0x8, addend: 0x0, symName: __ZNSt3__110unique_ptrINS_12basic_stringIcNS_11char_traitsIcEENS_9allocatorIcEEEEZN8nlohmann16json_abi_v3_11_310basic_jsonINS_3mapENS_6vectorES6_bxydS4_NS8_14adl_serializerENSB_IhNS4_IhEEEEvE6createIS6_JRA1_KcEEEPT_DpOT0_EUlPS6_E_ED2B8ue170006Ev, symObjAddr: 0x14350, symBinAddr: 0x100015430, symSize: 0x20 }
  - { offsetInCU: 0x1A8FB, offset: 0x39D1A, size: 0x8, addend: 0x0, symName: __ZNSt3__110unique_ptrINS_12basic_stringIcNS_11char_traitsIcEENS_9allocatorIcEEEEZN8nlohmann16json_abi_v3_11_310basic_jsonINS_3mapENS_6vectorES6_bxydS4_NS8_14adl_serializerENSB_IhNS4_IhEEEEvE6createIS6_JRA1_KcEEEPT_DpOT0_EUlPS6_E_E5resetB8ue170006ESP_, symObjAddr: 0x14370, symBinAddr: 0x100015450, symSize: 0x80 }
  - { offsetInCU: 0x1A93F, offset: 0x39D5E, size: 0x8, addend: 0x0, symName: __ZNSt3__117__compressed_pairIPNS_12basic_stringIcNS_11char_traitsIcEENS_9allocatorIcEEEEZN8nlohmann16json_abi_v3_11_310basic_jsonINS_3mapENS_6vectorES6_bxydS4_NS9_14adl_serializerENSC_IhNS4_IhEEEEvE6createIS6_JRA1_KcEEEPT_DpOT0_EUlS7_E_E6secondB8ue170006Ev, symObjAddr: 0x143F0, symBinAddr: 0x1000154D0, symSize: 0x20 }
  - { offsetInCU: 0x1A96B, offset: 0x39D8A, size: 0x8, addend: 0x0, symName: __ZZN8nlohmann16json_abi_v3_11_310basic_jsonINSt3__13mapENS2_6vectorENS2_12basic_stringIcNS2_11char_traitsIcEENS2_9allocatorIcEEEEbxydS8_NS0_14adl_serializerENS4_IhNS8_IhEEEEvE6createISA_JRA1_KcEEEPT_DpOT0_ENKUlPSA_E_clESO_, symObjAddr: 0x14410, symBinAddr: 0x1000154F0, symSize: 0x30 }
  - { offsetInCU: 0x1A9A4, offset: 0x39DC3, size: 0x8, addend: 0x0, symName: __ZNSt3__122__compressed_pair_elemIZN8nlohmann16json_abi_v3_11_310basic_jsonINS_3mapENS_6vectorENS_12basic_stringIcNS_11char_traitsIcEENS_9allocatorIcEEEEbxydS9_NS2_14adl_serializerENS5_IhNS9_IhEEEEvE6createISB_JRA1_KcEEEPT_DpOT0_EUlPSB_E_Li1ELb0EE5__getB8ue170006Ev, symObjAddr: 0x14440, symBinAddr: 0x100015520, symSize: 0x10 }
  - { offsetInCU: 0x1AA3D, offset: 0x39E5C, size: 0x8, addend: 0x0, symName: __ZNSt3__110unique_ptrIN8nlohmann16json_abi_v3_11_327byte_container_with_subtypeINS_6vectorIhNS_9allocatorIhEEEEEEZNS2_10basic_jsonINS_3mapES4_NS_12basic_stringIcNS_11char_traitsIcEENS5_IcEEEEbxydS5_NS2_14adl_serializerES7_vE6createIS8_JEEEPT_DpOT0_EUlPS8_E_EC1B8ue170006ILb1EvEESO_NS_16__dependent_typeINS_27__unique_ptr_deleter_sfinaeISP_EEXT_EE15__lval_ref_typeE, symObjAddr: 0x14450, symBinAddr: 0x100015530, symSize: 0x30 }
  - { offsetInCU: 0x1AA8E, offset: 0x39EAD, size: 0x8, addend: 0x0, symName: __ZNSt3__116allocator_traitsINS_9allocatorIN8nlohmann16json_abi_v3_11_327byte_container_with_subtypeINS_6vectorIhNS1_IhEEEEEEEEE9constructB8ue170006IS8_JEvEEvRS9_PT_DpOT0_, symObjAddr: 0x14480, symBinAddr: 0x100015560, symSize: 0x30 }
  - { offsetInCU: 0x1AAD0, offset: 0x39EEF, size: 0x8, addend: 0x0, symName: __ZNKSt3__110unique_ptrIN8nlohmann16json_abi_v3_11_327byte_container_with_subtypeINS_6vectorIhNS_9allocatorIhEEEEEEZNS2_10basic_jsonINS_3mapES4_NS_12basic_stringIcNS_11char_traitsIcEENS5_IcEEEEbxydS5_NS2_14adl_serializerES7_vE6createIS8_JEEEPT_DpOT0_EUlPS8_E_E3getB8ue170006Ev, symObjAddr: 0x144B0, symBinAddr: 0x100015590, symSize: 0x20 }
  - { offsetInCU: 0x1AAF6, offset: 0x39F15, size: 0x8, addend: 0x0, symName: __ZNSt3__110unique_ptrIN8nlohmann16json_abi_v3_11_327byte_container_with_subtypeINS_6vectorIhNS_9allocatorIhEEEEEEZNS2_10basic_jsonINS_3mapES4_NS_12basic_stringIcNS_11char_traitsIcEENS5_IcEEEEbxydS5_NS2_14adl_serializerES7_vE6createIS8_JEEEPT_DpOT0_EUlPS8_E_E7releaseB8ue170006Ev, symObjAddr: 0x14500, symBinAddr: 0x1000155E0, symSize: 0x40 }
  - { offsetInCU: 0x1AB2B, offset: 0x39F4A, size: 0x8, addend: 0x0, symName: __ZNSt3__110unique_ptrIN8nlohmann16json_abi_v3_11_327byte_container_with_subtypeINS_6vectorIhNS_9allocatorIhEEEEEEZNS2_10basic_jsonINS_3mapES4_NS_12basic_stringIcNS_11char_traitsIcEENS5_IcEEEEbxydS5_NS2_14adl_serializerES7_vE6createIS8_JEEEPT_DpOT0_EUlPS8_E_ED1B8ue170006Ev, symObjAddr: 0x14540, symBinAddr: 0x100015620, symSize: 0x20 }
  - { offsetInCU: 0x1AB55, offset: 0x39F74, size: 0x8, addend: 0x0, symName: __ZNSt3__110unique_ptrIN8nlohmann16json_abi_v3_11_327byte_container_with_subtypeINS_6vectorIhNS_9allocatorIhEEEEEEZNS2_10basic_jsonINS_3mapES4_NS_12basic_stringIcNS_11char_traitsIcEENS5_IcEEEEbxydS5_NS2_14adl_serializerES7_vE6createIS8_JEEEPT_DpOT0_EUlPS8_E_EC2B8ue170006ILb1EvEESO_NS_16__dependent_typeINS_27__unique_ptr_deleter_sfinaeISP_EEXT_EE15__lval_ref_typeE, symObjAddr: 0x14560, symBinAddr: 0x100015640, symSize: 0x40 }
  - { offsetInCU: 0x1ABA6, offset: 0x39FC5, size: 0x8, addend: 0x0, symName: __ZNSt3__117__compressed_pairIPN8nlohmann16json_abi_v3_11_327byte_container_with_subtypeINS_6vectorIhNS_9allocatorIhEEEEEEZNS2_10basic_jsonINS_3mapES4_NS_12basic_stringIcNS_11char_traitsIcEENS5_IcEEEEbxydS5_NS2_14adl_serializerES7_vE6createIS8_JEEEPT_DpOT0_EUlS9_E_EC1B8ue170006IRS9_RKSP_EEOSK_OT0_, symObjAddr: 0x145A0, symBinAddr: 0x100015680, symSize: 0x30 }
  - { offsetInCU: 0x1ABFE, offset: 0x3A01D, size: 0x8, addend: 0x0, symName: __ZNSt3__117__compressed_pairIPN8nlohmann16json_abi_v3_11_327byte_container_with_subtypeINS_6vectorIhNS_9allocatorIhEEEEEEZNS2_10basic_jsonINS_3mapES4_NS_12basic_stringIcNS_11char_traitsIcEENS5_IcEEEEbxydS5_NS2_14adl_serializerES7_vE6createIS8_JEEEPT_DpOT0_EUlS9_E_EC2B8ue170006IRS9_RKSP_EEOSK_OT0_, symObjAddr: 0x145D0, symBinAddr: 0x1000156B0, symSize: 0x40 }
  - { offsetInCU: 0x1AC56, offset: 0x3A075, size: 0x8, addend: 0x0, symName: __ZNSt3__122__compressed_pair_elemIZN8nlohmann16json_abi_v3_11_310basic_jsonINS_3mapENS_6vectorENS_12basic_stringIcNS_11char_traitsIcEENS_9allocatorIcEEEEbxydS9_NS2_14adl_serializerENS5_IhNS9_IhEEEEvE6createINS2_27byte_container_with_subtypeISE_EEJEEEPT_DpOT0_EUlPSI_E_Li1ELb0EEC2B8ue170006IRKSP_vEEOSJ_, symObjAddr: 0x14610, symBinAddr: 0x1000156F0, symSize: 0x20 }
  - { offsetInCU: 0x1AC98, offset: 0x3A0B7, size: 0x8, addend: 0x0, symName: __ZNSt3__19allocatorIN8nlohmann16json_abi_v3_11_327byte_container_with_subtypeINS_6vectorIhNS0_IhEEEEEEE9constructB8ue170006IS7_JEEEvPT_DpOT0_, symObjAddr: 0x14630, symBinAddr: 0x100015710, symSize: 0x20 }
  - { offsetInCU: 0x1ACDA, offset: 0x3A0F9, size: 0x8, addend: 0x0, symName: __ZN8nlohmann16json_abi_v3_11_327byte_container_with_subtypeINSt3__16vectorIhNS2_9allocatorIhEEEEEC1Ev, symObjAddr: 0x14650, symBinAddr: 0x100015730, symSize: 0x20 }
  - { offsetInCU: 0x1AD04, offset: 0x3A123, size: 0x8, addend: 0x0, symName: __ZN8nlohmann16json_abi_v3_11_327byte_container_with_subtypeINSt3__16vectorIhNS2_9allocatorIhEEEEEC2Ev, symObjAddr: 0x14670, symBinAddr: 0x100015750, symSize: 0x30 }
  - { offsetInCU: 0x1AD2E, offset: 0x3A14D, size: 0x8, addend: 0x0, symName: __ZNSt3__16vectorIhNS_9allocatorIhEEEC2B8ue170006Ev, symObjAddr: 0x146A0, symBinAddr: 0x100015780, symSize: 0x50 }
  - { offsetInCU: 0x1AD58, offset: 0x3A177, size: 0x8, addend: 0x0, symName: __ZNSt3__117__compressed_pairIPhNS_9allocatorIhEEEC1B8ue170006IDnNS_18__default_init_tagEEEOT_OT0_, symObjAddr: 0x146F0, symBinAddr: 0x1000157D0, symSize: 0x30 }
  - { offsetInCU: 0x1ADB0, offset: 0x3A1CF, size: 0x8, addend: 0x0, symName: __ZNSt3__117__compressed_pairIPhNS_9allocatorIhEEEC2B8ue170006IDnNS_18__default_init_tagEEEOT_OT0_, symObjAddr: 0x14720, symBinAddr: 0x100015800, symSize: 0x40 }
  - { offsetInCU: 0x1AE08, offset: 0x3A227, size: 0x8, addend: 0x0, symName: __ZNSt3__122__compressed_pair_elemINS_9allocatorIhEELi1ELb1EEC2B8ue170006ENS_18__default_init_tagE, symObjAddr: 0x14760, symBinAddr: 0x100015840, symSize: 0x20 }
  - { offsetInCU: 0x1AE3D, offset: 0x3A25C, size: 0x8, addend: 0x0, symName: __ZNSt3__19allocatorIhEC2B8ue170006Ev, symObjAddr: 0x14780, symBinAddr: 0x100015860, symSize: 0x20 }
  - { offsetInCU: 0x1AE67, offset: 0x3A286, size: 0x8, addend: 0x0, symName: __ZNSt3__116__non_trivial_ifILb1ENS_9allocatorIhEEEC2B8ue170006Ev, symObjAddr: 0x147A0, symBinAddr: 0x100015880, symSize: 0x10 }
  - { offsetInCU: 0x1AE91, offset: 0x3A2B0, size: 0x8, addend: 0x0, symName: __ZNKSt3__117__compressed_pairIPN8nlohmann16json_abi_v3_11_327byte_container_with_subtypeINS_6vectorIhNS_9allocatorIhEEEEEEZNS2_10basic_jsonINS_3mapES4_NS_12basic_stringIcNS_11char_traitsIcEENS5_IcEEEEbxydS5_NS2_14adl_serializerES7_vE6createIS8_JEEEPT_DpOT0_EUlS9_E_E5firstB8ue170006Ev, symObjAddr: 0x147B0, symBinAddr: 0x100015890, symSize: 0x20 }
  - { offsetInCU: 0x1AEB7, offset: 0x3A2D6, size: 0x8, addend: 0x0, symName: __ZNKSt3__110unique_ptrIN8nlohmann16json_abi_v3_11_327byte_container_with_subtypeINS_6vectorIhNS_9allocatorIhEEEEEEZNS2_10basic_jsonINS_3mapES4_NS_12basic_stringIcNS_11char_traitsIcEENS5_IcEEEEbxydS5_NS2_14adl_serializerES7_vE6createIS8_JEEEPT_DpOT0_EUlPS8_E_EcvbB8ue170006Ev, symObjAddr: 0x147D0, symBinAddr: 0x1000158B0, symSize: 0x30 }
  - { offsetInCU: 0x1AEDD, offset: 0x3A2FC, size: 0x8, addend: 0x0, symName: __ZNSt3__117__compressed_pairIPN8nlohmann16json_abi_v3_11_327byte_container_with_subtypeINS_6vectorIhNS_9allocatorIhEEEEEEZNS2_10basic_jsonINS_3mapES4_NS_12basic_stringIcNS_11char_traitsIcEENS5_IcEEEEbxydS5_NS2_14adl_serializerES7_vE6createIS8_JEEEPT_DpOT0_EUlS9_E_E5firstB8ue170006Ev, symObjAddr: 0x14800, symBinAddr: 0x1000158E0, symSize: 0x20 }
  - { offsetInCU: 0x1AF03, offset: 0x3A322, size: 0x8, addend: 0x0, symName: __ZNSt3__110unique_ptrIN8nlohmann16json_abi_v3_11_327byte_container_with_subtypeINS_6vectorIhNS_9allocatorIhEEEEEEZNS2_10basic_jsonINS_3mapES4_NS_12basic_stringIcNS_11char_traitsIcEENS5_IcEEEEbxydS5_NS2_14adl_serializerES7_vE6createIS8_JEEEPT_DpOT0_EUlPS8_E_ED2B8ue170006Ev, symObjAddr: 0x14820, symBinAddr: 0x100015900, symSize: 0x20 }
  - { offsetInCU: 0x1AF2D, offset: 0x3A34C, size: 0x8, addend: 0x0, symName: __ZNSt3__110unique_ptrIN8nlohmann16json_abi_v3_11_327byte_container_with_subtypeINS_6vectorIhNS_9allocatorIhEEEEEEZNS2_10basic_jsonINS_3mapES4_NS_12basic_stringIcNS_11char_traitsIcEENS5_IcEEEEbxydS5_NS2_14adl_serializerES7_vE6createIS8_JEEEPT_DpOT0_EUlPS8_E_E5resetB8ue170006ESO_, symObjAddr: 0x14840, symBinAddr: 0x100015920, symSize: 0x80 }
  - { offsetInCU: 0x1AF71, offset: 0x3A390, size: 0x8, addend: 0x0, symName: __ZNSt3__117__compressed_pairIPN8nlohmann16json_abi_v3_11_327byte_container_with_subtypeINS_6vectorIhNS_9allocatorIhEEEEEEZNS2_10basic_jsonINS_3mapES4_NS_12basic_stringIcNS_11char_traitsIcEENS5_IcEEEEbxydS5_NS2_14adl_serializerES7_vE6createIS8_JEEEPT_DpOT0_EUlS9_E_E6secondB8ue170006Ev, symObjAddr: 0x148C0, symBinAddr: 0x1000159A0, symSize: 0x20 }
  - { offsetInCU: 0x1AF9D, offset: 0x3A3BC, size: 0x8, addend: 0x0, symName: __ZZN8nlohmann16json_abi_v3_11_310basic_jsonINSt3__13mapENS2_6vectorENS2_12basic_stringIcNS2_11char_traitsIcEENS2_9allocatorIcEEEEbxydS8_NS0_14adl_serializerENS4_IhNS8_IhEEEEvE6createINS0_27byte_container_with_subtypeISD_EEJEEEPT_DpOT0_ENKUlPSH_E_clESN_, symObjAddr: 0x148E0, symBinAddr: 0x1000159C0, symSize: 0x30 }
  - { offsetInCU: 0x1AFD6, offset: 0x3A3F5, size: 0x8, addend: 0x0, symName: __ZNSt3__122__compressed_pair_elemIZN8nlohmann16json_abi_v3_11_310basic_jsonINS_3mapENS_6vectorENS_12basic_stringIcNS_11char_traitsIcEENS_9allocatorIcEEEEbxydS9_NS2_14adl_serializerENS5_IhNS9_IhEEEEvE6createINS2_27byte_container_with_subtypeISE_EEJEEEPT_DpOT0_EUlPSI_E_Li1ELb0EE5__getB8ue170006Ev, symObjAddr: 0x14910, symBinAddr: 0x1000159F0, symSize: 0x10 }
  - { offsetInCU: 0x1AFFC, offset: 0x3A41B, size: 0x8, addend: 0x0, symName: __ZN8nlohmann16json_abi_v3_11_36detail11other_errorC1EiPKc, symObjAddr: 0x14920, symBinAddr: 0x100015A00, symSize: 0x30 }
  - { offsetInCU: 0x1B044, offset: 0x3A463, size: 0x8, addend: 0x0, symName: __ZN8nlohmann16json_abi_v3_11_36detail11other_errorC2EiPKc, symObjAddr: 0x14950, symBinAddr: 0x100015A30, symSize: 0x40 }
  - { offsetInCU: 0x1B08C, offset: 0x3A4AB, size: 0x8, addend: 0x0, symName: __ZN8nlohmann16json_abi_v3_11_36detail11other_errorD0Ev, symObjAddr: 0x14990, symBinAddr: 0x100015A70, symSize: 0x30 }
  - { offsetInCU: 0x1B0B9, offset: 0x3A4D8, size: 0x8, addend: 0x0, symName: __ZN8nlohmann16json_abi_v3_11_36detail11other_errorD2Ev, symObjAddr: 0x149C0, symBinAddr: 0x100015AA0, symSize: 0x20 }
  - { offsetInCU: 0x1B0E6, offset: 0x3A505, size: 0x8, addend: 0x0, symName: __ZNSt3__16__treeINS_12__value_typeINS_12basic_stringIcNS_11char_traitsIcEENS_9allocatorIcEEEEN8nlohmann16json_abi_v3_11_310basic_jsonINS_3mapENS_6vectorES7_bxydS5_NS9_14adl_serializerENSC_IhNS5_IhEEEEvEEEENS_19__map_value_compareIS7_SH_NS_4lessIvEELb1EEENS5_ISH_EEE15__insert_uniqueB8ue170006ERKNS_4pairIKS7_SG_EE, symObjAddr: 0x149E0, symBinAddr: 0x100015AC0, symSize: 0x50 }
  - { offsetInCU: 0x1B11B, offset: 0x3A53A, size: 0x8, addend: 0x0, symName: __ZNSt3__14pairINS_14__map_iteratorINS_15__tree_iteratorINS_12__value_typeINS_12basic_stringIcNS_11char_traitsIcEENS_9allocatorIcEEEEN8nlohmann16json_abi_v3_11_310basic_jsonINS_3mapENS_6vectorES9_bxydS7_NSB_14adl_serializerENSE_IhNS7_IhEEEEvEEEEPNS_11__tree_nodeISJ_PvEElEEEEbEC1B8ue170006ISO_bLSL_0EEEONS0_IT_T0_EE, symObjAddr: 0x14A30, symBinAddr: 0x100015B10, symSize: 0x30 }
  - { offsetInCU: 0x1B16C, offset: 0x3A58B, size: 0x8, addend: 0x0, symName: __ZNSt3__16__treeINS_12__value_typeINS_12basic_stringIcNS_11char_traitsIcEENS_9allocatorIcEEEEN8nlohmann16json_abi_v3_11_310basic_jsonINS_3mapENS_6vectorES7_bxydS5_NS9_14adl_serializerENSC_IhNS5_IhEEEEvEEEENS_19__map_value_compareIS7_SH_NS_4lessIvEELb1EEENS5_ISH_EEE25__emplace_unique_key_argsIS7_JRKNS_4pairIKS7_SG_EEEEENSP_INS_15__tree_iteratorISH_PNS_11__tree_nodeISH_PvEElEEbEERKT_DpOT0_, symObjAddr: 0x14A60, symBinAddr: 0x100015B40, symSize: 0xE0 }
  - { offsetInCU: 0x1B221, offset: 0x3A640, size: 0x8, addend: 0x0, symName: __ZNSt3__14pairINS_14__map_iteratorINS_15__tree_iteratorINS_12__value_typeINS_12basic_stringIcNS_11char_traitsIcEENS_9allocatorIcEEEEN8nlohmann16json_abi_v3_11_310basic_jsonINS_3mapENS_6vectorES9_bxydS7_NSB_14adl_serializerENSE_IhNS7_IhEEEEvEEEEPNS_11__tree_nodeISJ_PvEElEEEEbEC2B8ue170006ISO_bLSL_0EEEONS0_IT_T0_EE, symObjAddr: 0x14B40, symBinAddr: 0x100015C20, symSize: 0x50 }
  - { offsetInCU: 0x1B272, offset: 0x3A691, size: 0x8, addend: 0x0, symName: __ZNSt3__114pointer_traitsIPNS_4pairIKNS_12basic_stringIcNS_11char_traitsIcEENS_9allocatorIcEEEEN8nlohmann16json_abi_v3_11_310basic_jsonINS_3mapENS_6vectorES7_bxydS5_NSA_14adl_serializerENSD_IhNS5_IhEEEEvEEEEE10pointer_toB8ue170006ERSI_, symObjAddr: 0x14B90, symBinAddr: 0x100015C70, symSize: 0x10 }
  - { offsetInCU: 0x1B295, offset: 0x3A6B4, size: 0x8, addend: 0x0, symName: __ZN8nlohmann16json_abi_v3_11_310basic_jsonINSt3__13mapENS2_6vectorENS2_12basic_stringIcNS2_11char_traitsIcEENS2_9allocatorIcEEEEbxydS8_NS0_14adl_serializerENS4_IhNS8_IhEEEEvE12get_ref_implIRSA_SE_EET_RT0_, symObjAddr: 0x14BA0, symBinAddr: 0x100015C80, symSize: 0x100 }
  - { offsetInCU: 0x1B2DA, offset: 0x3A6F9, size: 0x8, addend: 0x0, symName: __ZN8nlohmann16json_abi_v3_11_310basic_jsonINSt3__13mapENS2_6vectorENS2_12basic_stringIcNS2_11char_traitsIcEENS2_9allocatorIcEEEEbxydS8_NS0_14adl_serializerENS4_IhNS8_IhEEEEvE7get_ptrIPSA_Li0EEEDTcldtclL_ZNS2_7declvalIRSE_EEDTclsr3stdE9__declvalIT_ELi0EEEvEE12get_impl_ptrclsr3stdE7declvalISJ_EEEEv, symObjAddr: 0x14CA0, symBinAddr: 0x100015D80, symSize: 0x20 }
  - { offsetInCU: 0x1B30F, offset: 0x3A72E, size: 0x8, addend: 0x0, symName: __ZN8nlohmann16json_abi_v3_11_310basic_jsonINSt3__13mapENS2_6vectorENS2_12basic_stringIcNS2_11char_traitsIcEENS2_9allocatorIcEEEEbxydS8_NS0_14adl_serializerENS4_IhNS8_IhEEEEvE12get_impl_ptrEPSA_, symObjAddr: 0x14D70, symBinAddr: 0x100015E50, symSize: 0x50 }
  - { offsetInCU: 0x1B341, offset: 0x3A760, size: 0x8, addend: 0x0, symName: __ZNSt3__14pairIKNS_12basic_stringIcNS_11char_traitsIcEENS_9allocatorIcEEEEN8nlohmann16json_abi_v3_11_310basic_jsonINS_3mapENS_6vectorES6_bxydS4_NS9_14adl_serializerENSC_IhNS4_IhEEEEvEEEC2B8ue170006IS6_SG_LPv0EEEOT_OT0_, symObjAddr: 0x14E00, symBinAddr: 0x100015EE0, symSize: 0x40 }
  - { offsetInCU: 0x1B39F, offset: 0x3A7BE, size: 0x8, addend: 0x0, symName: __ZNSt3__112basic_stringIcNS_11char_traitsIcEENS_9allocatorIcEEEC1B8ue170006EOS5_, symObjAddr: 0x14E40, symBinAddr: 0x100015F20, symSize: 0x30 }
  - { offsetInCU: 0x1B3D8, offset: 0x3A7F7, size: 0x8, addend: 0x0, symName: __ZNSt3__112basic_stringIcNS_11char_traitsIcEENS_9allocatorIcEEEC2B8ue170006EOS5_, symObjAddr: 0x14E70, symBinAddr: 0x100015F50, symSize: 0x40 }
  - { offsetInCU: 0x1B411, offset: 0x3A830, size: 0x8, addend: 0x0, symName: __ZN8nlohmann16json_abi_v3_11_310basic_jsonINSt3__13mapENS2_6vectorENS2_12basic_stringIcNS2_11char_traitsIcEENS2_9allocatorIcEEEEbxydS8_NS0_14adl_serializerENS4_IhNS8_IhEEEEvEC2ESt16initializer_listINS0_6detail8json_refISE_EEEbNSG_7value_tE, symObjAddr: 0x14EB0, symBinAddr: 0x100015F90, symSize: 0x390 }
  - { offsetInCU: 0x1B505, offset: 0x3A924, size: 0x8, addend: 0x0, symName: __ZNKSt16initializer_listIN8nlohmann16json_abi_v3_11_36detail8json_refINS1_10basic_jsonINSt3__13mapENS5_6vectorENS5_12basic_stringIcNS5_11char_traitsIcEENS5_9allocatorIcEEEEbxydSB_NS1_14adl_serializerENS7_IhNSB_IhEEEEvEEEEE3endB8ue170006Ev, symObjAddr: 0x152B0, symBinAddr: 0x100016390, symSize: 0x20 }
  - { offsetInCU: 0x1B52B, offset: 0x3A94A, size: 0x8, addend: 0x0, symName: __ZNSt3__13mapINS_12basic_stringIcNS_11char_traitsIcEENS_9allocatorIcEEEEN8nlohmann16json_abi_v3_11_310basic_jsonIS0_NS_6vectorES6_bxydS4_NS8_14adl_serializerENSA_IhNS4_IhEEEEvEENS_4lessIvEENS4_INS_4pairIKS6_SE_EEEEE7emplaceB8ue170006IJS6_SE_EEENSH_INS_14__map_iteratorINS_15__tree_iteratorINS_12__value_typeIS6_SE_EEPNS_11__tree_nodeISQ_PvEElEEEEbEEDpOT_, symObjAddr: 0x152D0, symBinAddr: 0x1000163B0, symSize: 0x50 }
  - { offsetInCU: 0x1B57F, offset: 0x3A99E, size: 0x8, addend: 0x0, symName: __ZNSt3__16vectorIN8nlohmann16json_abi_v3_11_310basic_jsonINS_3mapES0_NS_12basic_stringIcNS_11char_traitsIcEENS_9allocatorIcEEEEbxydS8_NS2_14adl_serializerENS0_IhNS8_IhEEEEvEENS8_ISE_EEEixB8ue170006Em, symObjAddr: 0x15320, symBinAddr: 0x100016400, symSize: 0x20 }
  - { offsetInCU: 0x1B5BC, offset: 0x3A9DB, size: 0x8, addend: 0x0, symName: __ZN8nlohmann16json_abi_v3_11_310basic_jsonINSt3__13mapENS2_6vectorENS2_12basic_stringIcNS2_11char_traitsIcEENS2_9allocatorIcEEEEbxydS8_NS0_14adl_serializerENS4_IhNS8_IhEEEEvE6createINS4_ISE_NS8_ISE_EEEEJPKNS0_6detail8json_refISE_EESM_EEEPT_DpOT0_, symObjAddr: 0x15340, symBinAddr: 0x100016420, symSize: 0xF0 }
  - { offsetInCU: 0x1B669, offset: 0x3AA88, size: 0x8, addend: 0x0, symName: __ZZN8nlohmann16json_abi_v3_11_310basic_jsonINSt3__13mapENS2_6vectorENS2_12basic_stringIcNS2_11char_traitsIcEENS2_9allocatorIcEEEEbxydS8_NS0_14adl_serializerENS4_IhNS8_IhEEEEvEC1ESt16initializer_listINS0_6detail8json_refISE_EEEbNSG_7value_tEENKUlRKSI_E_clESM_, symObjAddr: 0x15430, symBinAddr: 0x100016510, symSize: 0x90 }
  - { offsetInCU: 0x1B6A2, offset: 0x3AAC1, size: 0x8, addend: 0x0, symName: __ZNK8nlohmann16json_abi_v3_11_310basic_jsonINSt3__13mapENS2_6vectorENS2_12basic_stringIcNS2_11char_traitsIcEENS2_9allocatorIcEEEEbxydS8_NS0_14adl_serializerENS4_IhNS8_IhEEEEvE4sizeEv, symObjAddr: 0x154C0, symBinAddr: 0x1000165A0, symSize: 0xC0 }
  - { offsetInCU: 0x1B6C8, offset: 0x3AAE7, size: 0x8, addend: 0x0, symName: __ZNK8nlohmann16json_abi_v3_11_310basic_jsonINSt3__13mapENS2_6vectorENS2_12basic_stringIcNS2_11char_traitsIcEENS2_9allocatorIcEEEEbxydS8_NS0_14adl_serializerENS4_IhNS8_IhEEEEvEixEm, symObjAddr: 0x15580, symBinAddr: 0x100016660, symSize: 0x110 }
  - { offsetInCU: 0x1B6FD, offset: 0x3AB1C, size: 0x8, addend: 0x0, symName: __ZN8nlohmann16json_abi_v3_11_36detail10type_error6createIPKNS0_10basic_jsonINSt3__13mapENS5_6vectorENS5_12basic_stringIcNS5_11char_traitsIcEENS5_9allocatorIcEEEEbxydSB_NS0_14adl_serializerENS7_IhNSB_IhEEEEvEELi0EEES2_iRKSD_T_, symObjAddr: 0x15690, symBinAddr: 0x100016770, symSize: 0x160 }
  - { offsetInCU: 0x1B75D, offset: 0x3AB7C, size: 0x8, addend: 0x0, symName: __ZNSt3__16__treeINS_12__value_typeINS_12basic_stringIcNS_11char_traitsIcEENS_9allocatorIcEEEEN8nlohmann16json_abi_v3_11_310basic_jsonINS_3mapENS_6vectorES7_bxydS5_NS9_14adl_serializerENSC_IhNS5_IhEEEEvEEEENS_19__map_value_compareIS7_SH_NS_4lessIvEELb1EEENS5_ISH_EEE16__emplace_uniqueB8ue170006IS7_SG_EENS_9enable_ifIXsr21__can_extract_map_keyIT_S7_NS_4pairIKS7_SG_EEEE5valueENSR_INS_15__tree_iteratorISH_PNS_11__tree_nodeISH_PvEElEEbEEE4typeEOSQ_OT0_, symObjAddr: 0x158E0, symBinAddr: 0x1000169C0, symSize: 0x40 }
  - { offsetInCU: 0x1B7B3, offset: 0x3ABD2, size: 0x8, addend: 0x0, symName: __ZNSt3__16__treeINS_12__value_typeINS_12basic_stringIcNS_11char_traitsIcEENS_9allocatorIcEEEEN8nlohmann16json_abi_v3_11_310basic_jsonINS_3mapENS_6vectorES7_bxydS5_NS9_14adl_serializerENSC_IhNS5_IhEEEEvEEEENS_19__map_value_compareIS7_SH_NS_4lessIvEELb1EEENS5_ISH_EEE25__emplace_unique_key_argsIS7_JS7_SG_EEENS_4pairINS_15__tree_iteratorISH_PNS_11__tree_nodeISH_PvEElEEbEERKT_DpOT0_, symObjAddr: 0x15920, symBinAddr: 0x100016A00, symSize: 0xF0 }
  - { offsetInCU: 0x1B87D, offset: 0x3AC9C, size: 0x8, addend: 0x0, symName: __ZNSt3__16__treeINS_12__value_typeINS_12basic_stringIcNS_11char_traitsIcEENS_9allocatorIcEEEEN8nlohmann16json_abi_v3_11_310basic_jsonINS_3mapENS_6vectorES7_bxydS5_NS9_14adl_serializerENSC_IhNS5_IhEEEEvEEEENS_19__map_value_compareIS7_SH_NS_4lessIvEELb1EEENS5_ISH_EEE16__construct_nodeIJS7_SG_EEENS_10unique_ptrINS_11__tree_nodeISH_PvEENS_22__tree_node_destructorINS5_ISS_EEEEEEDpOT_, symObjAddr: 0x15A10, symBinAddr: 0x100016AF0, symSize: 0x100 }
  - { offsetInCU: 0x1B8F2, offset: 0x3AD11, size: 0x8, addend: 0x0, symName: __ZNSt3__116allocator_traitsINS_9allocatorINS_11__tree_nodeINS_12__value_typeINS_12basic_stringIcNS_11char_traitsIcEENS1_IcEEEEN8nlohmann16json_abi_v3_11_310basic_jsonINS_3mapENS_6vectorES8_bxydS1_NSA_14adl_serializerENSD_IhNS1_IhEEEEvEEEEPvEEEEE9constructB8ue170006INS_4pairIKS8_SH_EEJS8_SH_EvEEvRSL_PT_DpOT0_, symObjAddr: 0x15B10, symBinAddr: 0x100016BF0, symSize: 0x40 }
  - { offsetInCU: 0x1B95D, offset: 0x3AD7C, size: 0x8, addend: 0x0, symName: __ZNSt3__19allocatorINS_11__tree_nodeINS_12__value_typeINS_12basic_stringIcNS_11char_traitsIcEENS0_IcEEEEN8nlohmann16json_abi_v3_11_310basic_jsonINS_3mapENS_6vectorES7_bxydS0_NS9_14adl_serializerENSC_IhNS0_IhEEEEvEEEEPvEEE9constructB8ue170006INS_4pairIKS7_SG_EEJS7_SG_EEEvPT_DpOT0_, symObjAddr: 0x15B50, symBinAddr: 0x100016C30, symSize: 0x30 }
  - { offsetInCU: 0x1BA39, offset: 0x3AE58, size: 0x8, addend: 0x0, symName: __ZNSt3__110unique_ptrINS_6vectorIN8nlohmann16json_abi_v3_11_310basic_jsonINS_3mapES1_NS_12basic_stringIcNS_11char_traitsIcEENS_9allocatorIcEEEEbxydS9_NS3_14adl_serializerENS1_IhNS9_IhEEEEvEENS9_ISF_EEEEZNSF_6createISH_JPKNS3_6detail8json_refISF_EESN_EEEPT_DpOT0_EUlPSH_E_EC1B8ue170006ILb1EvEEST_NS_16__dependent_typeINS_27__unique_ptr_deleter_sfinaeISU_EEXT_EE15__lval_ref_typeE, symObjAddr: 0x15B80, symBinAddr: 0x100016C60, symSize: 0x30 }
  - { offsetInCU: 0x1BA8A, offset: 0x3AEA9, size: 0x8, addend: 0x0, symName: __ZNSt3__116allocator_traitsINS_9allocatorINS_6vectorIN8nlohmann16json_abi_v3_11_310basic_jsonINS_3mapES2_NS_12basic_stringIcNS_11char_traitsIcEENS1_IcEEEEbxydS1_NS4_14adl_serializerENS2_IhNS1_IhEEEEvEENS1_ISF_EEEEEEE9constructB8ue170006ISH_JPKNS4_6detail8json_refISF_EESP_EvEEvRSI_PT_DpOT0_, symObjAddr: 0x15BB0, symBinAddr: 0x100016C90, symSize: 0x40 }
  - { offsetInCU: 0x1BAF5, offset: 0x3AF14, size: 0x8, addend: 0x0, symName: __ZNKSt3__110unique_ptrINS_6vectorIN8nlohmann16json_abi_v3_11_310basic_jsonINS_3mapES1_NS_12basic_stringIcNS_11char_traitsIcEENS_9allocatorIcEEEEbxydS9_NS3_14adl_serializerENS1_IhNS9_IhEEEEvEENS9_ISF_EEEEZNSF_6createISH_JPKNS3_6detail8json_refISF_EESN_EEEPT_DpOT0_EUlPSH_E_E3getB8ue170006Ev, symObjAddr: 0x15BF0, symBinAddr: 0x100016CD0, symSize: 0x20 }
  - { offsetInCU: 0x1BB1B, offset: 0x3AF3A, size: 0x8, addend: 0x0, symName: __ZNSt3__110unique_ptrINS_6vectorIN8nlohmann16json_abi_v3_11_310basic_jsonINS_3mapES1_NS_12basic_stringIcNS_11char_traitsIcEENS_9allocatorIcEEEEbxydS9_NS3_14adl_serializerENS1_IhNS9_IhEEEEvEENS9_ISF_EEEEZNSF_6createISH_JPKNS3_6detail8json_refISF_EESN_EEEPT_DpOT0_EUlPSH_E_E7releaseB8ue170006Ev, symObjAddr: 0x15C40, symBinAddr: 0x100016D20, symSize: 0x40 }
  - { offsetInCU: 0x1BB50, offset: 0x3AF6F, size: 0x8, addend: 0x0, symName: __ZNSt3__110unique_ptrINS_6vectorIN8nlohmann16json_abi_v3_11_310basic_jsonINS_3mapES1_NS_12basic_stringIcNS_11char_traitsIcEENS_9allocatorIcEEEEbxydS9_NS3_14adl_serializerENS1_IhNS9_IhEEEEvEENS9_ISF_EEEEZNSF_6createISH_JPKNS3_6detail8json_refISF_EESN_EEEPT_DpOT0_EUlPSH_E_ED1B8ue170006Ev, symObjAddr: 0x15C80, symBinAddr: 0x100016D60, symSize: 0x20 }
  - { offsetInCU: 0x1BB7A, offset: 0x3AF99, size: 0x8, addend: 0x0, symName: __ZNSt3__110unique_ptrINS_6vectorIN8nlohmann16json_abi_v3_11_310basic_jsonINS_3mapES1_NS_12basic_stringIcNS_11char_traitsIcEENS_9allocatorIcEEEEbxydS9_NS3_14adl_serializerENS1_IhNS9_IhEEEEvEENS9_ISF_EEEEZNSF_6createISH_JPKNS3_6detail8json_refISF_EESN_EEEPT_DpOT0_EUlPSH_E_EC2B8ue170006ILb1EvEEST_NS_16__dependent_typeINS_27__unique_ptr_deleter_sfinaeISU_EEXT_EE15__lval_ref_typeE, symObjAddr: 0x15CA0, symBinAddr: 0x100016D80, symSize: 0x40 }
  - { offsetInCU: 0x1BBCB, offset: 0x3AFEA, size: 0x8, addend: 0x0, symName: __ZNSt3__117__compressed_pairIPNS_6vectorIN8nlohmann16json_abi_v3_11_310basic_jsonINS_3mapES1_NS_12basic_stringIcNS_11char_traitsIcEENS_9allocatorIcEEEEbxydS9_NS3_14adl_serializerENS1_IhNS9_IhEEEEvEENS9_ISF_EEEEZNSF_6createISH_JPKNS3_6detail8json_refISF_EESO_EEEPT_DpOT0_EUlSI_E_EC1B8ue170006IRSI_RKSU_EEOSP_OT0_, symObjAddr: 0x15CE0, symBinAddr: 0x100016DC0, symSize: 0x30 }
  - { offsetInCU: 0x1BC23, offset: 0x3B042, size: 0x8, addend: 0x0, symName: __ZNSt3__117__compressed_pairIPNS_6vectorIN8nlohmann16json_abi_v3_11_310basic_jsonINS_3mapES1_NS_12basic_stringIcNS_11char_traitsIcEENS_9allocatorIcEEEEbxydS9_NS3_14adl_serializerENS1_IhNS9_IhEEEEvEENS9_ISF_EEEEZNSF_6createISH_JPKNS3_6detail8json_refISF_EESO_EEEPT_DpOT0_EUlSI_E_EC2B8ue170006IRSI_RKSU_EEOSP_OT0_, symObjAddr: 0x15D10, symBinAddr: 0x100016DF0, symSize: 0x40 }
  - { offsetInCU: 0x1BC7B, offset: 0x3B09A, size: 0x8, addend: 0x0, symName: __ZNSt3__122__compressed_pair_elemIZN8nlohmann16json_abi_v3_11_310basic_jsonINS_3mapENS_6vectorENS_12basic_stringIcNS_11char_traitsIcEENS_9allocatorIcEEEEbxydS9_NS2_14adl_serializerENS5_IhNS9_IhEEEEvE6createINS5_ISF_NS9_ISF_EEEEJPKNS2_6detail8json_refISF_EESN_EEEPT_DpOT0_EUlPSI_E_Li1ELb0EEC2B8ue170006IRKSU_vEEOSO_, symObjAddr: 0x15D50, symBinAddr: 0x100016E30, symSize: 0x20 }
  - { offsetInCU: 0x1BCBD, offset: 0x3B0DC, size: 0x8, addend: 0x0, symName: __ZNSt3__19allocatorINS_6vectorIN8nlohmann16json_abi_v3_11_310basic_jsonINS_3mapES1_NS_12basic_stringIcNS_11char_traitsIcEENS0_IcEEEEbxydS0_NS3_14adl_serializerENS1_IhNS0_IhEEEEvEENS0_ISE_EEEEE9constructB8ue170006ISG_JPKNS3_6detail8json_refISE_EESN_EEEvPT_DpOT0_, symObjAddr: 0x15D70, symBinAddr: 0x100016E50, symSize: 0x40 }
  - { offsetInCU: 0x1BD26, offset: 0x3B145, size: 0x8, addend: 0x0, symName: __ZNSt3__16vectorIN8nlohmann16json_abi_v3_11_310basic_jsonINS_3mapES0_NS_12basic_stringIcNS_11char_traitsIcEENS_9allocatorIcEEEEbxydS8_NS2_14adl_serializerENS0_IhNS8_IhEEEEvEENS8_ISE_EEEC1IPKNS2_6detail8json_refISE_EELi0EEET_SN_, symObjAddr: 0x15DB0, symBinAddr: 0x100016E90, symSize: 0x30 }
  - { offsetInCU: 0x1BD7F, offset: 0x3B19E, size: 0x8, addend: 0x0, symName: __ZNSt3__16vectorIN8nlohmann16json_abi_v3_11_310basic_jsonINS_3mapES0_NS_12basic_stringIcNS_11char_traitsIcEENS_9allocatorIcEEEEbxydS8_NS2_14adl_serializerENS0_IhNS8_IhEEEEvEENS8_ISE_EEEC2IPKNS2_6detail8json_refISE_EELi0EEET_SN_, symObjAddr: 0x15DE0, symBinAddr: 0x100016EC0, symSize: 0x70 }
  - { offsetInCU: 0x1BDF5, offset: 0x3B214, size: 0x8, addend: 0x0, symName: __ZNSt3__16vectorIN8nlohmann16json_abi_v3_11_310basic_jsonINS_3mapES0_NS_12basic_stringIcNS_11char_traitsIcEENS_9allocatorIcEEEEbxydS8_NS2_14adl_serializerENS0_IhNS8_IhEEEEvEENS8_ISE_EEE16__init_with_sizeB8ue170006IPKNS2_6detail8json_refISE_EESM_EEvT_T0_m, symObjAddr: 0x15E80, symBinAddr: 0x100016F60, symSize: 0xB0 }
  - { offsetInCU: 0x1BE69, offset: 0x3B288, size: 0x8, addend: 0x0, symName: __ZNSt3__16vectorIN8nlohmann16json_abi_v3_11_310basic_jsonINS_3mapES0_NS_12basic_stringIcNS_11char_traitsIcEENS_9allocatorIcEEEEbxydS8_NS2_14adl_serializerENS0_IhNS8_IhEEEEvEENS8_ISE_EEE18__construct_at_endIPKNS2_6detail8json_refISE_EESM_EEvT_T0_m, symObjAddr: 0x15F60, symBinAddr: 0x100017040, symSize: 0x90 }
  - { offsetInCU: 0x1BEFC, offset: 0x3B31B, size: 0x8, addend: 0x0, symName: __ZNSt3__14pairIPKN8nlohmann16json_abi_v3_11_36detail8json_refINS2_10basic_jsonINS_3mapENS_6vectorENS_12basic_stringIcNS_11char_traitsIcEENS_9allocatorIcEEEEbxydSB_NS2_14adl_serializerENS7_IhNSB_IhEEEEvEEEESK_EC1B8ue170006ISK_SK_LPv0EEEOT_OT0_, symObjAddr: 0x16210, symBinAddr: 0x1000172F0, symSize: 0x30 }
  - { offsetInCU: 0x1BF5A, offset: 0x3B379, size: 0x8, addend: 0x0, symName: __ZNSt3__14pairIPKN8nlohmann16json_abi_v3_11_36detail8json_refINS2_10basic_jsonINS_3mapENS_6vectorENS_12basic_stringIcNS_11char_traitsIcEENS_9allocatorIcEEEEbxydSB_NS2_14adl_serializerENS7_IhNSB_IhEEEEvEEEESK_EC2B8ue170006ISK_SK_LPv0EEEOT_OT0_, symObjAddr: 0x16240, symBinAddr: 0x100017320, symSize: 0x30 }
  - { offsetInCU: 0x1BFB8, offset: 0x3B3D7, size: 0x8, addend: 0x0, symName: __ZNSt3__118__unwrap_iter_implIPKN8nlohmann16json_abi_v3_11_36detail8json_refINS2_10basic_jsonINS_3mapENS_6vectorENS_12basic_stringIcNS_11char_traitsIcEENS_9allocatorIcEEEEbxydSB_NS2_14adl_serializerENS7_IhNSB_IhEEEEvEEEELb1EE8__unwrapB8ue170006ESK_, symObjAddr: 0x16270, symBinAddr: 0x100017350, symSize: 0x20 }
  - { offsetInCU: 0x1BFDB, offset: 0x3B3FA, size: 0x8, addend: 0x0, symName: __ZNSt3__116allocator_traitsINS_9allocatorIN8nlohmann16json_abi_v3_11_310basic_jsonINS_3mapENS_6vectorENS_12basic_stringIcNS_11char_traitsIcEENS1_IcEEEEbxydS1_NS3_14adl_serializerENS6_IhNS1_IhEEEEvEEEEE9constructB8ue170006ISF_JRKNS3_6detail8json_refISF_EEEvEEvRSG_PT_DpOT0_, symObjAddr: 0x162A0, symBinAddr: 0x100017380, symSize: 0x30 }
  - { offsetInCU: 0x1C032, offset: 0x3B451, size: 0x8, addend: 0x0, symName: __ZNSt3__19allocatorIN8nlohmann16json_abi_v3_11_310basic_jsonINS_3mapENS_6vectorENS_12basic_stringIcNS_11char_traitsIcEENS0_IcEEEEbxydS0_NS2_14adl_serializerENS5_IhNS0_IhEEEEvEEE9constructB8ue170006ISE_JRKNS2_6detail8json_refISE_EEEEEvPT_DpOT0_, symObjAddr: 0x162D0, symBinAddr: 0x1000173B0, symSize: 0x30 }
  - { offsetInCU: 0x1C088, offset: 0x3B4A7, size: 0x8, addend: 0x0, symName: __ZN8nlohmann16json_abi_v3_11_310basic_jsonINSt3__13mapENS2_6vectorENS2_12basic_stringIcNS2_11char_traitsIcEENS2_9allocatorIcEEEEbxydS8_NS0_14adl_serializerENS4_IhNS8_IhEEEEvEC1INS0_6detail8json_refISE_EELi0EEERKT_, symObjAddr: 0x16300, symBinAddr: 0x1000173E0, symSize: 0x50 }
  - { offsetInCU: 0x1C0D0, offset: 0x3B4EF, size: 0x8, addend: 0x0, symName: __ZNKSt3__117__compressed_pairIPNS_6vectorIN8nlohmann16json_abi_v3_11_310basic_jsonINS_3mapES1_NS_12basic_stringIcNS_11char_traitsIcEENS_9allocatorIcEEEEbxydS9_NS3_14adl_serializerENS1_IhNS9_IhEEEEvEENS9_ISF_EEEEZNSF_6createISH_JPKNS3_6detail8json_refISF_EESO_EEEPT_DpOT0_EUlSI_E_E5firstB8ue170006Ev, symObjAddr: 0x16350, symBinAddr: 0x100017430, symSize: 0x20 }
  - { offsetInCU: 0x1C0F6, offset: 0x3B515, size: 0x8, addend: 0x0, symName: __ZNKSt3__110unique_ptrINS_6vectorIN8nlohmann16json_abi_v3_11_310basic_jsonINS_3mapES1_NS_12basic_stringIcNS_11char_traitsIcEENS_9allocatorIcEEEEbxydS9_NS3_14adl_serializerENS1_IhNS9_IhEEEEvEENS9_ISF_EEEEZNSF_6createISH_JPKNS3_6detail8json_refISF_EESN_EEEPT_DpOT0_EUlPSH_E_EcvbB8ue170006Ev, symObjAddr: 0x16370, symBinAddr: 0x100017450, symSize: 0x30 }
  - { offsetInCU: 0x1C11C, offset: 0x3B53B, size: 0x8, addend: 0x0, symName: __ZNSt3__117__compressed_pairIPNS_6vectorIN8nlohmann16json_abi_v3_11_310basic_jsonINS_3mapES1_NS_12basic_stringIcNS_11char_traitsIcEENS_9allocatorIcEEEEbxydS9_NS3_14adl_serializerENS1_IhNS9_IhEEEEvEENS9_ISF_EEEEZNSF_6createISH_JPKNS3_6detail8json_refISF_EESO_EEEPT_DpOT0_EUlSI_E_E5firstB8ue170006Ev, symObjAddr: 0x163A0, symBinAddr: 0x100017480, symSize: 0x20 }
  - { offsetInCU: 0x1C142, offset: 0x3B561, size: 0x8, addend: 0x0, symName: __ZNSt3__110unique_ptrINS_6vectorIN8nlohmann16json_abi_v3_11_310basic_jsonINS_3mapES1_NS_12basic_stringIcNS_11char_traitsIcEENS_9allocatorIcEEEEbxydS9_NS3_14adl_serializerENS1_IhNS9_IhEEEEvEENS9_ISF_EEEEZNSF_6createISH_JPKNS3_6detail8json_refISF_EESN_EEEPT_DpOT0_EUlPSH_E_ED2B8ue170006Ev, symObjAddr: 0x163C0, symBinAddr: 0x1000174A0, symSize: 0x20 }
  - { offsetInCU: 0x1C16C, offset: 0x3B58B, size: 0x8, addend: 0x0, symName: __ZNSt3__110unique_ptrINS_6vectorIN8nlohmann16json_abi_v3_11_310basic_jsonINS_3mapES1_NS_12basic_stringIcNS_11char_traitsIcEENS_9allocatorIcEEEEbxydS9_NS3_14adl_serializerENS1_IhNS9_IhEEEEvEENS9_ISF_EEEEZNSF_6createISH_JPKNS3_6detail8json_refISF_EESN_EEEPT_DpOT0_EUlPSH_E_E5resetB8ue170006EST_, symObjAddr: 0x163E0, symBinAddr: 0x1000174C0, symSize: 0x80 }
  - { offsetInCU: 0x1C1B0, offset: 0x3B5CF, size: 0x8, addend: 0x0, symName: __ZNSt3__117__compressed_pairIPNS_6vectorIN8nlohmann16json_abi_v3_11_310basic_jsonINS_3mapES1_NS_12basic_stringIcNS_11char_traitsIcEENS_9allocatorIcEEEEbxydS9_NS3_14adl_serializerENS1_IhNS9_IhEEEEvEENS9_ISF_EEEEZNSF_6createISH_JPKNS3_6detail8json_refISF_EESO_EEEPT_DpOT0_EUlSI_E_E6secondB8ue170006Ev, symObjAddr: 0x16460, symBinAddr: 0x100017540, symSize: 0x20 }
  - { offsetInCU: 0x1C1DC, offset: 0x3B5FB, size: 0x8, addend: 0x0, symName: __ZZN8nlohmann16json_abi_v3_11_310basic_jsonINSt3__13mapENS2_6vectorENS2_12basic_stringIcNS2_11char_traitsIcEENS2_9allocatorIcEEEEbxydS8_NS0_14adl_serializerENS4_IhNS8_IhEEEEvE6createINS4_ISE_NS8_ISE_EEEEJPKNS0_6detail8json_refISE_EESM_EEEPT_DpOT0_ENKUlPSH_E_clESS_, symObjAddr: 0x16480, symBinAddr: 0x100017560, symSize: 0x30 }
  - { offsetInCU: 0x1C215, offset: 0x3B634, size: 0x8, addend: 0x0, symName: __ZNSt3__122__compressed_pair_elemIZN8nlohmann16json_abi_v3_11_310basic_jsonINS_3mapENS_6vectorENS_12basic_stringIcNS_11char_traitsIcEENS_9allocatorIcEEEEbxydS9_NS2_14adl_serializerENS5_IhNS9_IhEEEEvE6createINS5_ISF_NS9_ISF_EEEEJPKNS2_6detail8json_refISF_EESN_EEEPT_DpOT0_EUlPSI_E_Li1ELb0EE5__getB8ue170006Ev, symObjAddr: 0x164B0, symBinAddr: 0x100017590, symSize: 0x10 }
  - { offsetInCU: 0x1C23B, offset: 0x3B65A, size: 0x8, addend: 0x0, symName: __ZN8nlohmann16json_abi_v3_11_36detail8json_refINS0_10basic_jsonINSt3__13mapENS4_6vectorENS4_12basic_stringIcNS4_11char_traitsIcEENS4_9allocatorIcEEEEbxydSA_NS0_14adl_serializerENS6_IhNSA_IhEEEEvEEEC2IJRA9_KcELi0EEEDpOT_, symObjAddr: 0x164C0, symBinAddr: 0x1000175A0, symSize: 0x40 }
  - { offsetInCU: 0x1C285, offset: 0x3B6A4, size: 0x8, addend: 0x0, symName: __ZN8nlohmann16json_abi_v3_11_310basic_jsonINSt3__13mapENS2_6vectorENS2_12basic_stringIcNS2_11char_traitsIcEENS2_9allocatorIcEEEEbxydS8_NS0_14adl_serializerENS4_IhNS8_IhEEEEvEC1IRA9_KcA9_cLi0EEEOT_, symObjAddr: 0x16500, symBinAddr: 0x1000175E0, symSize: 0x30 }
  - { offsetInCU: 0x1C2D6, offset: 0x3B6F5, size: 0x8, addend: 0x0, symName: __ZN8nlohmann16json_abi_v3_11_310basic_jsonINSt3__13mapENS2_6vectorENS2_12basic_stringIcNS2_11char_traitsIcEENS2_9allocatorIcEEEEbxydS8_NS0_14adl_serializerENS4_IhNS8_IhEEEEvEC2IRA9_KcA9_cLi0EEEOT_, symObjAddr: 0x16530, symBinAddr: 0x100017610, symSize: 0x80 }
  - { offsetInCU: 0x1C327, offset: 0x3B746, size: 0x8, addend: 0x0, symName: __ZN8nlohmann16json_abi_v3_11_314adl_serializerIA9_cvE7to_jsonINS0_10basic_jsonINSt3__13mapENS6_6vectorENS6_12basic_stringIcNS6_11char_traitsIcEENS6_9allocatorIcEEEEbxydSC_S1_NS8_IhNSC_IhEEEEvEERA9_KcEEDTcmclL_ZNS0_7to_jsonEEfp_clsr3stdE7forwardIT0_Efp0_EEcvv_EERT_OSL_, symObjAddr: 0x165B0, symBinAddr: 0x100017690, symSize: 0x30 }
  - { offsetInCU: 0x1C372, offset: 0x3B791, size: 0x8, addend: 0x0, symName: __ZNK8nlohmann16json_abi_v3_11_36detail10to_json_fnclINS0_10basic_jsonINSt3__13mapENS5_6vectorENS5_12basic_stringIcNS5_11char_traitsIcEENS5_9allocatorIcEEEEbxydSB_NS0_14adl_serializerENS7_IhNSB_IhEEEEvEERA9_KcEEDTcmcl7to_jsonfp_clsr3stdE7forwardIT0_Efp0_EEcvv_EERT_OSL_, symObjAddr: 0x165E0, symBinAddr: 0x1000176C0, symSize: 0x30 }
  - { offsetInCU: 0x1C3C8, offset: 0x3B7E7, size: 0x8, addend: 0x0, symName: __ZN8nlohmann16json_abi_v3_11_36detail20external_constructorILNS1_7value_tE3EE9constructINS0_10basic_jsonINSt3__13mapENS7_6vectorENS7_12basic_stringIcNS7_11char_traitsIcEENS7_9allocatorIcEEEEbxydSD_NS0_14adl_serializerENS9_IhNSD_IhEEEEvEEA9_cLi0EEEvRT_RKT0_, symObjAddr: 0x16640, symBinAddr: 0x100017720, symSize: 0x60 }
  - { offsetInCU: 0x1C413, offset: 0x3B832, size: 0x8, addend: 0x0, symName: __ZN8nlohmann16json_abi_v3_11_310basic_jsonINSt3__13mapENS2_6vectorENS2_12basic_stringIcNS2_11char_traitsIcEENS2_9allocatorIcEEEEbxydS8_NS0_14adl_serializerENS4_IhNS8_IhEEEEvE6createISA_JRA9_KcEEEPT_DpOT0_, symObjAddr: 0x166A0, symBinAddr: 0x100017780, symSize: 0xF0 }
  - { offsetInCU: 0x1C514, offset: 0x3B933, size: 0x8, addend: 0x0, symName: __ZNSt3__110unique_ptrINS_12basic_stringIcNS_11char_traitsIcEENS_9allocatorIcEEEEZN8nlohmann16json_abi_v3_11_310basic_jsonINS_3mapENS_6vectorES6_bxydS4_NS8_14adl_serializerENSB_IhNS4_IhEEEEvE6createIS6_JRA9_KcEEEPT_DpOT0_EUlPS6_E_EC1B8ue170006ILb1EvEESP_NS_16__dependent_typeINS_27__unique_ptr_deleter_sfinaeISQ_EEXT_EE15__lval_ref_typeE, symObjAddr: 0x16790, symBinAddr: 0x100017870, symSize: 0x30 }
  - { offsetInCU: 0x1C565, offset: 0x3B984, size: 0x8, addend: 0x0, symName: __ZNSt3__116allocator_traitsINS_9allocatorINS_12basic_stringIcNS_11char_traitsIcEENS1_IcEEEEEEE9constructB8ue170006IS6_JRA9_KcEvEEvRS7_PT_DpOT0_, symObjAddr: 0x167C0, symBinAddr: 0x1000178A0, symSize: 0x30 }
  - { offsetInCU: 0x1C5BC, offset: 0x3B9DB, size: 0x8, addend: 0x0, symName: __ZNKSt3__110unique_ptrINS_12basic_stringIcNS_11char_traitsIcEENS_9allocatorIcEEEEZN8nlohmann16json_abi_v3_11_310basic_jsonINS_3mapENS_6vectorES6_bxydS4_NS8_14adl_serializerENSB_IhNS4_IhEEEEvE6createIS6_JRA9_KcEEEPT_DpOT0_EUlPS6_E_E3getB8ue170006Ev, symObjAddr: 0x167F0, symBinAddr: 0x1000178D0, symSize: 0x20 }
  - { offsetInCU: 0x1C5E2, offset: 0x3BA01, size: 0x8, addend: 0x0, symName: __ZNSt3__110unique_ptrINS_12basic_stringIcNS_11char_traitsIcEENS_9allocatorIcEEEEZN8nlohmann16json_abi_v3_11_310basic_jsonINS_3mapENS_6vectorES6_bxydS4_NS8_14adl_serializerENSB_IhNS4_IhEEEEvE6createIS6_JRA9_KcEEEPT_DpOT0_EUlPS6_E_E7releaseB8ue170006Ev, symObjAddr: 0x16840, symBinAddr: 0x100017920, symSize: 0x40 }
  - { offsetInCU: 0x1C617, offset: 0x3BA36, size: 0x8, addend: 0x0, symName: __ZNSt3__110unique_ptrINS_12basic_stringIcNS_11char_traitsIcEENS_9allocatorIcEEEEZN8nlohmann16json_abi_v3_11_310basic_jsonINS_3mapENS_6vectorES6_bxydS4_NS8_14adl_serializerENSB_IhNS4_IhEEEEvE6createIS6_JRA9_KcEEEPT_DpOT0_EUlPS6_E_ED1B8ue170006Ev, symObjAddr: 0x16880, symBinAddr: 0x100017960, symSize: 0x20 }
  - { offsetInCU: 0x1C641, offset: 0x3BA60, size: 0x8, addend: 0x0, symName: __ZNSt3__110unique_ptrINS_12basic_stringIcNS_11char_traitsIcEENS_9allocatorIcEEEEZN8nlohmann16json_abi_v3_11_310basic_jsonINS_3mapENS_6vectorES6_bxydS4_NS8_14adl_serializerENSB_IhNS4_IhEEEEvE6createIS6_JRA9_KcEEEPT_DpOT0_EUlPS6_E_EC2B8ue170006ILb1EvEESP_NS_16__dependent_typeINS_27__unique_ptr_deleter_sfinaeISQ_EEXT_EE15__lval_ref_typeE, symObjAddr: 0x168A0, symBinAddr: 0x100017980, symSize: 0x40 }
  - { offsetInCU: 0x1C692, offset: 0x3BAB1, size: 0x8, addend: 0x0, symName: __ZNSt3__117__compressed_pairIPNS_12basic_stringIcNS_11char_traitsIcEENS_9allocatorIcEEEEZN8nlohmann16json_abi_v3_11_310basic_jsonINS_3mapENS_6vectorES6_bxydS4_NS9_14adl_serializerENSC_IhNS4_IhEEEEvE6createIS6_JRA9_KcEEEPT_DpOT0_EUlS7_E_EC1B8ue170006IRS7_RKSQ_EEOSL_OT0_, symObjAddr: 0x168E0, symBinAddr: 0x1000179C0, symSize: 0x30 }
  - { offsetInCU: 0x1C6EA, offset: 0x3BB09, size: 0x8, addend: 0x0, symName: __ZNSt3__117__compressed_pairIPNS_12basic_stringIcNS_11char_traitsIcEENS_9allocatorIcEEEEZN8nlohmann16json_abi_v3_11_310basic_jsonINS_3mapENS_6vectorES6_bxydS4_NS9_14adl_serializerENSC_IhNS4_IhEEEEvE6createIS6_JRA9_KcEEEPT_DpOT0_EUlS7_E_EC2B8ue170006IRS7_RKSQ_EEOSL_OT0_, symObjAddr: 0x16910, symBinAddr: 0x1000179F0, symSize: 0x40 }
  - { offsetInCU: 0x1C742, offset: 0x3BB61, size: 0x8, addend: 0x0, symName: __ZNSt3__122__compressed_pair_elemIZN8nlohmann16json_abi_v3_11_310basic_jsonINS_3mapENS_6vectorENS_12basic_stringIcNS_11char_traitsIcEENS_9allocatorIcEEEEbxydS9_NS2_14adl_serializerENS5_IhNS9_IhEEEEvE6createISB_JRA9_KcEEEPT_DpOT0_EUlPSB_E_Li1ELb0EEC2B8ue170006IRKSQ_vEEOSK_, symObjAddr: 0x16950, symBinAddr: 0x100017A30, symSize: 0x20 }
  - { offsetInCU: 0x1C784, offset: 0x3BBA3, size: 0x8, addend: 0x0, symName: __ZNSt3__19allocatorINS_12basic_stringIcNS_11char_traitsIcEENS0_IcEEEEE9constructB8ue170006IS5_JRA9_KcEEEvPT_DpOT0_, symObjAddr: 0x16970, symBinAddr: 0x100017A50, symSize: 0x30 }
  - { offsetInCU: 0x1C7DA, offset: 0x3BBF9, size: 0x8, addend: 0x0, symName: __ZNKSt3__117__compressed_pairIPNS_12basic_stringIcNS_11char_traitsIcEENS_9allocatorIcEEEEZN8nlohmann16json_abi_v3_11_310basic_jsonINS_3mapENS_6vectorES6_bxydS4_NS9_14adl_serializerENSC_IhNS4_IhEEEEvE6createIS6_JRA9_KcEEEPT_DpOT0_EUlS7_E_E5firstB8ue170006Ev, symObjAddr: 0x169A0, symBinAddr: 0x100017A80, symSize: 0x20 }
  - { offsetInCU: 0x1C800, offset: 0x3BC1F, size: 0x8, addend: 0x0, symName: __ZNKSt3__110unique_ptrINS_12basic_stringIcNS_11char_traitsIcEENS_9allocatorIcEEEEZN8nlohmann16json_abi_v3_11_310basic_jsonINS_3mapENS_6vectorES6_bxydS4_NS8_14adl_serializerENSB_IhNS4_IhEEEEvE6createIS6_JRA9_KcEEEPT_DpOT0_EUlPS6_E_EcvbB8ue170006Ev, symObjAddr: 0x169C0, symBinAddr: 0x100017AA0, symSize: 0x30 }
  - { offsetInCU: 0x1C826, offset: 0x3BC45, size: 0x8, addend: 0x0, symName: __ZNSt3__117__compressed_pairIPNS_12basic_stringIcNS_11char_traitsIcEENS_9allocatorIcEEEEZN8nlohmann16json_abi_v3_11_310basic_jsonINS_3mapENS_6vectorES6_bxydS4_NS9_14adl_serializerENSC_IhNS4_IhEEEEvE6createIS6_JRA9_KcEEEPT_DpOT0_EUlS7_E_E5firstB8ue170006Ev, symObjAddr: 0x169F0, symBinAddr: 0x100017AD0, symSize: 0x20 }
  - { offsetInCU: 0x1C84C, offset: 0x3BC6B, size: 0x8, addend: 0x0, symName: __ZNSt3__110unique_ptrINS_12basic_stringIcNS_11char_traitsIcEENS_9allocatorIcEEEEZN8nlohmann16json_abi_v3_11_310basic_jsonINS_3mapENS_6vectorES6_bxydS4_NS8_14adl_serializerENSB_IhNS4_IhEEEEvE6createIS6_JRA9_KcEEEPT_DpOT0_EUlPS6_E_ED2B8ue170006Ev, symObjAddr: 0x16A10, symBinAddr: 0x100017AF0, symSize: 0x20 }
  - { offsetInCU: 0x1C876, offset: 0x3BC95, size: 0x8, addend: 0x0, symName: __ZNSt3__110unique_ptrINS_12basic_stringIcNS_11char_traitsIcEENS_9allocatorIcEEEEZN8nlohmann16json_abi_v3_11_310basic_jsonINS_3mapENS_6vectorES6_bxydS4_NS8_14adl_serializerENSB_IhNS4_IhEEEEvE6createIS6_JRA9_KcEEEPT_DpOT0_EUlPS6_E_E5resetB8ue170006ESP_, symObjAddr: 0x16A30, symBinAddr: 0x100017B10, symSize: 0x80 }
  - { offsetInCU: 0x1C8BA, offset: 0x3BCD9, size: 0x8, addend: 0x0, symName: __ZNSt3__117__compressed_pairIPNS_12basic_stringIcNS_11char_traitsIcEENS_9allocatorIcEEEEZN8nlohmann16json_abi_v3_11_310basic_jsonINS_3mapENS_6vectorES6_bxydS4_NS9_14adl_serializerENSC_IhNS4_IhEEEEvE6createIS6_JRA9_KcEEEPT_DpOT0_EUlS7_E_E6secondB8ue170006Ev, symObjAddr: 0x16AB0, symBinAddr: 0x100017B90, symSize: 0x20 }
  - { offsetInCU: 0x1C8E6, offset: 0x3BD05, size: 0x8, addend: 0x0, symName: __ZZN8nlohmann16json_abi_v3_11_310basic_jsonINSt3__13mapENS2_6vectorENS2_12basic_stringIcNS2_11char_traitsIcEENS2_9allocatorIcEEEEbxydS8_NS0_14adl_serializerENS4_IhNS8_IhEEEEvE6createISA_JRA9_KcEEEPT_DpOT0_ENKUlPSA_E_clESO_, symObjAddr: 0x16AD0, symBinAddr: 0x100017BB0, symSize: 0x30 }
  - { offsetInCU: 0x1C91F, offset: 0x3BD3E, size: 0x8, addend: 0x0, symName: __ZNSt3__122__compressed_pair_elemIZN8nlohmann16json_abi_v3_11_310basic_jsonINS_3mapENS_6vectorENS_12basic_stringIcNS_11char_traitsIcEENS_9allocatorIcEEEEbxydS9_NS2_14adl_serializerENS5_IhNS9_IhEEEEvE6createISB_JRA9_KcEEEPT_DpOT0_EUlPSB_E_Li1ELb0EE5__getB8ue170006Ev, symObjAddr: 0x16B00, symBinAddr: 0x100017BE0, symSize: 0x10 }
  - { offsetInCU: 0x1C945, offset: 0x3BD64, size: 0x8, addend: 0x0, symName: __ZN8nlohmann16json_abi_v3_11_36detail8json_refINS0_10basic_jsonINSt3__13mapENS4_6vectorENS4_12basic_stringIcNS4_11char_traitsIcEENS4_9allocatorIcEEEEbxydSA_NS0_14adl_serializerENS6_IhNSA_IhEEEEvEEEC2IJRSC_ELi0EEEDpOT_, symObjAddr: 0x16B10, symBinAddr: 0x100017BF0, symSize: 0x40 }
  - { offsetInCU: 0x1C98F, offset: 0x3BDAE, size: 0x8, addend: 0x0, symName: __ZN8nlohmann16json_abi_v3_11_310basic_jsonINSt3__13mapENS2_6vectorENS2_12basic_stringIcNS2_11char_traitsIcEENS2_9allocatorIcEEEEbxydS8_NS0_14adl_serializerENS4_IhNS8_IhEEEEvEC1IRSA_SA_Li0EEEOT_, symObjAddr: 0x16B50, symBinAddr: 0x100017C30, symSize: 0x30 }
  - { offsetInCU: 0x1C9E0, offset: 0x3BDFF, size: 0x8, addend: 0x0, symName: __ZN8nlohmann16json_abi_v3_11_310basic_jsonINSt3__13mapENS2_6vectorENS2_12basic_stringIcNS2_11char_traitsIcEENS2_9allocatorIcEEEEbxydS8_NS0_14adl_serializerENS4_IhNS8_IhEEEEvEC2IRSA_SA_Li0EEEOT_, symObjAddr: 0x16B80, symBinAddr: 0x100017C60, symSize: 0x80 }
  - { offsetInCU: 0x1CA31, offset: 0x3BE50, size: 0x8, addend: 0x0, symName: __ZN8nlohmann16json_abi_v3_11_314adl_serializerINSt3__112basic_stringIcNS2_11char_traitsIcEENS2_9allocatorIcEEEEvE7to_jsonINS0_10basic_jsonINS2_3mapENS2_6vectorES8_bxydS6_S1_NSD_IhNS6_IhEEEEvEERS8_EEDTcmclL_ZNS0_7to_jsonEEfp_clsr3stdE7forwardIT0_Efp0_EEcvv_EERT_OSI_, symObjAddr: 0x16C00, symBinAddr: 0x100017CE0, symSize: 0x30 }
  - { offsetInCU: 0x1CA76, offset: 0x3BE95, size: 0x8, addend: 0x0, symName: __ZNK8nlohmann16json_abi_v3_11_36detail10to_json_fnclINS0_10basic_jsonINSt3__13mapENS5_6vectorENS5_12basic_stringIcNS5_11char_traitsIcEENS5_9allocatorIcEEEEbxydSB_NS0_14adl_serializerENS7_IhNSB_IhEEEEvEERSD_EEDTcmcl7to_jsonfp_clsr3stdE7forwardIT0_Efp0_EEcvv_EERT_OSJ_, symObjAddr: 0x16C30, symBinAddr: 0x100017D10, symSize: 0x30 }
  - { offsetInCU: 0x1CACC, offset: 0x3BEEB, size: 0x8, addend: 0x0, symName: __ZN8nlohmann16json_abi_v3_11_36detail20external_constructorILNS1_7value_tE3EE9constructINS0_10basic_jsonINSt3__13mapENS7_6vectorENS7_12basic_stringIcNS7_11char_traitsIcEENS7_9allocatorIcEEEEbxydSD_NS0_14adl_serializerENS9_IhNSD_IhEEEEvEEEEvRT_RKNSK_8string_tE, symObjAddr: 0x16C90, symBinAddr: 0x100017D70, symSize: 0x60 }
  - { offsetInCU: 0x1CB08, offset: 0x3BF27, size: 0x8, addend: 0x0, symName: __ZN8nlohmann16json_abi_v3_11_36detail8json_refINS0_10basic_jsonINSt3__13mapENS4_6vectorENS4_12basic_stringIcNS4_11char_traitsIcEENS4_9allocatorIcEEEEbxydSA_NS0_14adl_serializerENS6_IhNSA_IhEEEEvEEEC2ESt16initializer_listISH_E, symObjAddr: 0x16CF0, symBinAddr: 0x100017DD0, symSize: 0x60 }
  - { offsetInCU: 0x1CB41, offset: 0x3BF60, size: 0x8, addend: 0x0, symName: __ZN8nlohmann16json_abi_v3_11_36detail8json_refINS0_10basic_jsonINSt3__13mapENS4_6vectorENS4_12basic_stringIcNS4_11char_traitsIcEENS4_9allocatorIcEEEEbxydSA_NS0_14adl_serializerENS6_IhNSA_IhEEEEvEEEC2IJRA10_KcELi0EEEDpOT_, symObjAddr: 0x16D50, symBinAddr: 0x100017E30, symSize: 0x40 }
  - { offsetInCU: 0x1CB8B, offset: 0x3BFAA, size: 0x8, addend: 0x0, symName: __ZN8nlohmann16json_abi_v3_11_310basic_jsonINSt3__13mapENS2_6vectorENS2_12basic_stringIcNS2_11char_traitsIcEENS2_9allocatorIcEEEEbxydS8_NS0_14adl_serializerENS4_IhNS8_IhEEEEvEC1IRA10_KcA10_cLi0EEEOT_, symObjAddr: 0x16D90, symBinAddr: 0x100017E70, symSize: 0x30 }
  - { offsetInCU: 0x1CBDC, offset: 0x3BFFB, size: 0x8, addend: 0x0, symName: __ZN8nlohmann16json_abi_v3_11_310basic_jsonINSt3__13mapENS2_6vectorENS2_12basic_stringIcNS2_11char_traitsIcEENS2_9allocatorIcEEEEbxydS8_NS0_14adl_serializerENS4_IhNS8_IhEEEEvEC2IRA10_KcA10_cLi0EEEOT_, symObjAddr: 0x16DC0, symBinAddr: 0x100017EA0, symSize: 0x80 }
  - { offsetInCU: 0x1CC2D, offset: 0x3C04C, size: 0x8, addend: 0x0, symName: __ZN8nlohmann16json_abi_v3_11_314adl_serializerIA10_cvE7to_jsonINS0_10basic_jsonINSt3__13mapENS6_6vectorENS6_12basic_stringIcNS6_11char_traitsIcEENS6_9allocatorIcEEEEbxydSC_S1_NS8_IhNSC_IhEEEEvEERA10_KcEEDTcmclL_ZNS0_7to_jsonEEfp_clsr3stdE7forwardIT0_Efp0_EEcvv_EERT_OSL_, symObjAddr: 0x16E40, symBinAddr: 0x100017F20, symSize: 0x30 }
  - { offsetInCU: 0x1CC72, offset: 0x3C091, size: 0x8, addend: 0x0, symName: __ZNK8nlohmann16json_abi_v3_11_36detail10to_json_fnclINS0_10basic_jsonINSt3__13mapENS5_6vectorENS5_12basic_stringIcNS5_11char_traitsIcEENS5_9allocatorIcEEEEbxydSB_NS0_14adl_serializerENS7_IhNSB_IhEEEEvEERA10_KcEEDTcmcl7to_jsonfp_clsr3stdE7forwardIT0_Efp0_EEcvv_EERT_OSL_, symObjAddr: 0x16E70, symBinAddr: 0x100017F50, symSize: 0x30 }
  - { offsetInCU: 0x1CCC8, offset: 0x3C0E7, size: 0x8, addend: 0x0, symName: __ZN8nlohmann16json_abi_v3_11_36detail20external_constructorILNS1_7value_tE3EE9constructINS0_10basic_jsonINSt3__13mapENS7_6vectorENS7_12basic_stringIcNS7_11char_traitsIcEENS7_9allocatorIcEEEEbxydSD_NS0_14adl_serializerENS9_IhNSD_IhEEEEvEEA10_cLi0EEEvRT_RKT0_, symObjAddr: 0x16ED0, symBinAddr: 0x100017FB0, symSize: 0x60 }
  - { offsetInCU: 0x1CD13, offset: 0x3C132, size: 0x8, addend: 0x0, symName: __ZN8nlohmann16json_abi_v3_11_310basic_jsonINSt3__13mapENS2_6vectorENS2_12basic_stringIcNS2_11char_traitsIcEENS2_9allocatorIcEEEEbxydS8_NS0_14adl_serializerENS4_IhNS8_IhEEEEvE6createISA_JRA10_KcEEEPT_DpOT0_, symObjAddr: 0x16F30, symBinAddr: 0x100018010, symSize: 0xF0 }
  - { offsetInCU: 0x1CE14, offset: 0x3C233, size: 0x8, addend: 0x0, symName: __ZNSt3__110unique_ptrINS_12basic_stringIcNS_11char_traitsIcEENS_9allocatorIcEEEEZN8nlohmann16json_abi_v3_11_310basic_jsonINS_3mapENS_6vectorES6_bxydS4_NS8_14adl_serializerENSB_IhNS4_IhEEEEvE6createIS6_JRA10_KcEEEPT_DpOT0_EUlPS6_E_EC1B8ue170006ILb1EvEESP_NS_16__dependent_typeINS_27__unique_ptr_deleter_sfinaeISQ_EEXT_EE15__lval_ref_typeE, symObjAddr: 0x17020, symBinAddr: 0x100018100, symSize: 0x30 }
  - { offsetInCU: 0x1CE65, offset: 0x3C284, size: 0x8, addend: 0x0, symName: __ZNSt3__116allocator_traitsINS_9allocatorINS_12basic_stringIcNS_11char_traitsIcEENS1_IcEEEEEEE9constructB8ue170006IS6_JRA10_KcEvEEvRS7_PT_DpOT0_, symObjAddr: 0x17050, symBinAddr: 0x100018130, symSize: 0x30 }
  - { offsetInCU: 0x1CEBC, offset: 0x3C2DB, size: 0x8, addend: 0x0, symName: __ZNKSt3__110unique_ptrINS_12basic_stringIcNS_11char_traitsIcEENS_9allocatorIcEEEEZN8nlohmann16json_abi_v3_11_310basic_jsonINS_3mapENS_6vectorES6_bxydS4_NS8_14adl_serializerENSB_IhNS4_IhEEEEvE6createIS6_JRA10_KcEEEPT_DpOT0_EUlPS6_E_E3getB8ue170006Ev, symObjAddr: 0x17080, symBinAddr: 0x100018160, symSize: 0x20 }
  - { offsetInCU: 0x1CEE2, offset: 0x3C301, size: 0x8, addend: 0x0, symName: __ZNSt3__110unique_ptrINS_12basic_stringIcNS_11char_traitsIcEENS_9allocatorIcEEEEZN8nlohmann16json_abi_v3_11_310basic_jsonINS_3mapENS_6vectorES6_bxydS4_NS8_14adl_serializerENSB_IhNS4_IhEEEEvE6createIS6_JRA10_KcEEEPT_DpOT0_EUlPS6_E_E7releaseB8ue170006Ev, symObjAddr: 0x170D0, symBinAddr: 0x1000181B0, symSize: 0x40 }
  - { offsetInCU: 0x1CF17, offset: 0x3C336, size: 0x8, addend: 0x0, symName: __ZNSt3__110unique_ptrINS_12basic_stringIcNS_11char_traitsIcEENS_9allocatorIcEEEEZN8nlohmann16json_abi_v3_11_310basic_jsonINS_3mapENS_6vectorES6_bxydS4_NS8_14adl_serializerENSB_IhNS4_IhEEEEvE6createIS6_JRA10_KcEEEPT_DpOT0_EUlPS6_E_ED1B8ue170006Ev, symObjAddr: 0x17110, symBinAddr: 0x1000181F0, symSize: 0x20 }
  - { offsetInCU: 0x1CF41, offset: 0x3C360, size: 0x8, addend: 0x0, symName: __ZNSt3__110unique_ptrINS_12basic_stringIcNS_11char_traitsIcEENS_9allocatorIcEEEEZN8nlohmann16json_abi_v3_11_310basic_jsonINS_3mapENS_6vectorES6_bxydS4_NS8_14adl_serializerENSB_IhNS4_IhEEEEvE6createIS6_JRA10_KcEEEPT_DpOT0_EUlPS6_E_EC2B8ue170006ILb1EvEESP_NS_16__dependent_typeINS_27__unique_ptr_deleter_sfinaeISQ_EEXT_EE15__lval_ref_typeE, symObjAddr: 0x17130, symBinAddr: 0x100018210, symSize: 0x40 }
  - { offsetInCU: 0x1CF92, offset: 0x3C3B1, size: 0x8, addend: 0x0, symName: __ZNSt3__117__compressed_pairIPNS_12basic_stringIcNS_11char_traitsIcEENS_9allocatorIcEEEEZN8nlohmann16json_abi_v3_11_310basic_jsonINS_3mapENS_6vectorES6_bxydS4_NS9_14adl_serializerENSC_IhNS4_IhEEEEvE6createIS6_JRA10_KcEEEPT_DpOT0_EUlS7_E_EC1B8ue170006IRS7_RKSQ_EEOSL_OT0_, symObjAddr: 0x17170, symBinAddr: 0x100018250, symSize: 0x30 }
  - { offsetInCU: 0x1CFEA, offset: 0x3C409, size: 0x8, addend: 0x0, symName: __ZNSt3__117__compressed_pairIPNS_12basic_stringIcNS_11char_traitsIcEENS_9allocatorIcEEEEZN8nlohmann16json_abi_v3_11_310basic_jsonINS_3mapENS_6vectorES6_bxydS4_NS9_14adl_serializerENSC_IhNS4_IhEEEEvE6createIS6_JRA10_KcEEEPT_DpOT0_EUlS7_E_EC2B8ue170006IRS7_RKSQ_EEOSL_OT0_, symObjAddr: 0x171A0, symBinAddr: 0x100018280, symSize: 0x40 }
  - { offsetInCU: 0x1D042, offset: 0x3C461, size: 0x8, addend: 0x0, symName: __ZNSt3__122__compressed_pair_elemIZN8nlohmann16json_abi_v3_11_310basic_jsonINS_3mapENS_6vectorENS_12basic_stringIcNS_11char_traitsIcEENS_9allocatorIcEEEEbxydS9_NS2_14adl_serializerENS5_IhNS9_IhEEEEvE6createISB_JRA10_KcEEEPT_DpOT0_EUlPSB_E_Li1ELb0EEC2B8ue170006IRKSQ_vEEOSK_, symObjAddr: 0x171E0, symBinAddr: 0x1000182C0, symSize: 0x20 }
  - { offsetInCU: 0x1D084, offset: 0x3C4A3, size: 0x8, addend: 0x0, symName: __ZNSt3__19allocatorINS_12basic_stringIcNS_11char_traitsIcEENS0_IcEEEEE9constructB8ue170006IS5_JRA10_KcEEEvPT_DpOT0_, symObjAddr: 0x17200, symBinAddr: 0x1000182E0, symSize: 0x30 }
  - { offsetInCU: 0x1D0DA, offset: 0x3C4F9, size: 0x8, addend: 0x0, symName: __ZNKSt3__117__compressed_pairIPNS_12basic_stringIcNS_11char_traitsIcEENS_9allocatorIcEEEEZN8nlohmann16json_abi_v3_11_310basic_jsonINS_3mapENS_6vectorES6_bxydS4_NS9_14adl_serializerENSC_IhNS4_IhEEEEvE6createIS6_JRA10_KcEEEPT_DpOT0_EUlS7_E_E5firstB8ue170006Ev, symObjAddr: 0x17230, symBinAddr: 0x100018310, symSize: 0x20 }
  - { offsetInCU: 0x1D100, offset: 0x3C51F, size: 0x8, addend: 0x0, symName: __ZNKSt3__110unique_ptrINS_12basic_stringIcNS_11char_traitsIcEENS_9allocatorIcEEEEZN8nlohmann16json_abi_v3_11_310basic_jsonINS_3mapENS_6vectorES6_bxydS4_NS8_14adl_serializerENSB_IhNS4_IhEEEEvE6createIS6_JRA10_KcEEEPT_DpOT0_EUlPS6_E_EcvbB8ue170006Ev, symObjAddr: 0x17250, symBinAddr: 0x100018330, symSize: 0x30 }
  - { offsetInCU: 0x1D126, offset: 0x3C545, size: 0x8, addend: 0x0, symName: __ZNSt3__117__compressed_pairIPNS_12basic_stringIcNS_11char_traitsIcEENS_9allocatorIcEEEEZN8nlohmann16json_abi_v3_11_310basic_jsonINS_3mapENS_6vectorES6_bxydS4_NS9_14adl_serializerENSC_IhNS4_IhEEEEvE6createIS6_JRA10_KcEEEPT_DpOT0_EUlS7_E_E5firstB8ue170006Ev, symObjAddr: 0x17280, symBinAddr: 0x100018360, symSize: 0x20 }
  - { offsetInCU: 0x1D14C, offset: 0x3C56B, size: 0x8, addend: 0x0, symName: __ZNSt3__110unique_ptrINS_12basic_stringIcNS_11char_traitsIcEENS_9allocatorIcEEEEZN8nlohmann16json_abi_v3_11_310basic_jsonINS_3mapENS_6vectorES6_bxydS4_NS8_14adl_serializerENSB_IhNS4_IhEEEEvE6createIS6_JRA10_KcEEEPT_DpOT0_EUlPS6_E_ED2B8ue170006Ev, symObjAddr: 0x172A0, symBinAddr: 0x100018380, symSize: 0x20 }
  - { offsetInCU: 0x1D176, offset: 0x3C595, size: 0x8, addend: 0x0, symName: __ZNSt3__110unique_ptrINS_12basic_stringIcNS_11char_traitsIcEENS_9allocatorIcEEEEZN8nlohmann16json_abi_v3_11_310basic_jsonINS_3mapENS_6vectorES6_bxydS4_NS8_14adl_serializerENSB_IhNS4_IhEEEEvE6createIS6_JRA10_KcEEEPT_DpOT0_EUlPS6_E_E5resetB8ue170006ESP_, symObjAddr: 0x172C0, symBinAddr: 0x1000183A0, symSize: 0x80 }
  - { offsetInCU: 0x1D1BA, offset: 0x3C5D9, size: 0x8, addend: 0x0, symName: __ZNSt3__117__compressed_pairIPNS_12basic_stringIcNS_11char_traitsIcEENS_9allocatorIcEEEEZN8nlohmann16json_abi_v3_11_310basic_jsonINS_3mapENS_6vectorES6_bxydS4_NS9_14adl_serializerENSC_IhNS4_IhEEEEvE6createIS6_JRA10_KcEEEPT_DpOT0_EUlS7_E_E6secondB8ue170006Ev, symObjAddr: 0x17340, symBinAddr: 0x100018420, symSize: 0x20 }
  - { offsetInCU: 0x1D1E6, offset: 0x3C605, size: 0x8, addend: 0x0, symName: __ZZN8nlohmann16json_abi_v3_11_310basic_jsonINSt3__13mapENS2_6vectorENS2_12basic_stringIcNS2_11char_traitsIcEENS2_9allocatorIcEEEEbxydS8_NS0_14adl_serializerENS4_IhNS8_IhEEEEvE6createISA_JRA10_KcEEEPT_DpOT0_ENKUlPSA_E_clESO_, symObjAddr: 0x17360, symBinAddr: 0x100018440, symSize: 0x30 }
  - { offsetInCU: 0x1D21F, offset: 0x3C63E, size: 0x8, addend: 0x0, symName: __ZNSt3__122__compressed_pair_elemIZN8nlohmann16json_abi_v3_11_310basic_jsonINS_3mapENS_6vectorENS_12basic_stringIcNS_11char_traitsIcEENS_9allocatorIcEEEEbxydS9_NS2_14adl_serializerENS5_IhNS9_IhEEEEvE6createISB_JRA10_KcEEEPT_DpOT0_EUlPSB_E_Li1ELb0EE5__getB8ue170006Ev, symObjAddr: 0x17390, symBinAddr: 0x100018470, symSize: 0x10 }
  - { offsetInCU: 0x1D245, offset: 0x3C664, size: 0x8, addend: 0x0, symName: __ZN8nlohmann16json_abi_v3_11_36detail8json_refINS0_10basic_jsonINSt3__13mapENS4_6vectorENS4_12basic_stringIcNS4_11char_traitsIcEENS4_9allocatorIcEEEEbxydSA_NS0_14adl_serializerENS6_IhNSA_IhEEEEvEEEC2IJRA5_KcELi0EEEDpOT_, symObjAddr: 0x173A0, symBinAddr: 0x100018480, symSize: 0x40 }
  - { offsetInCU: 0x1D28F, offset: 0x3C6AE, size: 0x8, addend: 0x0, symName: __ZN8nlohmann16json_abi_v3_11_310basic_jsonINSt3__13mapENS2_6vectorENS2_12basic_stringIcNS2_11char_traitsIcEENS2_9allocatorIcEEEEbxydS8_NS0_14adl_serializerENS4_IhNS8_IhEEEEvEC1IRA5_KcA5_cLi0EEEOT_, symObjAddr: 0x173E0, symBinAddr: 0x1000184C0, symSize: 0x30 }
  - { offsetInCU: 0x1D2E0, offset: 0x3C6FF, size: 0x8, addend: 0x0, symName: __ZN8nlohmann16json_abi_v3_11_310basic_jsonINSt3__13mapENS2_6vectorENS2_12basic_stringIcNS2_11char_traitsIcEENS2_9allocatorIcEEEEbxydS8_NS0_14adl_serializerENS4_IhNS8_IhEEEEvEC2IRA5_KcA5_cLi0EEEOT_, symObjAddr: 0x17410, symBinAddr: 0x1000184F0, symSize: 0x80 }
  - { offsetInCU: 0x1D331, offset: 0x3C750, size: 0x8, addend: 0x0, symName: __ZN8nlohmann16json_abi_v3_11_314adl_serializerIA5_cvE7to_jsonINS0_10basic_jsonINSt3__13mapENS6_6vectorENS6_12basic_stringIcNS6_11char_traitsIcEENS6_9allocatorIcEEEEbxydSC_S1_NS8_IhNSC_IhEEEEvEERA5_KcEEDTcmclL_ZNS0_7to_jsonEEfp_clsr3stdE7forwardIT0_Efp0_EEcvv_EERT_OSL_, symObjAddr: 0x17490, symBinAddr: 0x100018570, symSize: 0x30 }
  - { offsetInCU: 0x1D376, offset: 0x3C795, size: 0x8, addend: 0x0, symName: __ZNK8nlohmann16json_abi_v3_11_36detail10to_json_fnclINS0_10basic_jsonINSt3__13mapENS5_6vectorENS5_12basic_stringIcNS5_11char_traitsIcEENS5_9allocatorIcEEEEbxydSB_NS0_14adl_serializerENS7_IhNSB_IhEEEEvEERA5_KcEEDTcmcl7to_jsonfp_clsr3stdE7forwardIT0_Efp0_EEcvv_EERT_OSL_, symObjAddr: 0x174C0, symBinAddr: 0x1000185A0, symSize: 0x30 }
  - { offsetInCU: 0x1D3CC, offset: 0x3C7EB, size: 0x8, addend: 0x0, symName: __ZN8nlohmann16json_abi_v3_11_36detail20external_constructorILNS1_7value_tE3EE9constructINS0_10basic_jsonINSt3__13mapENS7_6vectorENS7_12basic_stringIcNS7_11char_traitsIcEENS7_9allocatorIcEEEEbxydSD_NS0_14adl_serializerENS9_IhNSD_IhEEEEvEEA5_cLi0EEEvRT_RKT0_, symObjAddr: 0x17520, symBinAddr: 0x100018600, symSize: 0x60 }
  - { offsetInCU: 0x1D417, offset: 0x3C836, size: 0x8, addend: 0x0, symName: __ZN8nlohmann16json_abi_v3_11_310basic_jsonINSt3__13mapENS2_6vectorENS2_12basic_stringIcNS2_11char_traitsIcEENS2_9allocatorIcEEEEbxydS8_NS0_14adl_serializerENS4_IhNS8_IhEEEEvE6createISA_JRA5_KcEEEPT_DpOT0_, symObjAddr: 0x17580, symBinAddr: 0x100018660, symSize: 0xF0 }
  - { offsetInCU: 0x1D518, offset: 0x3C937, size: 0x8, addend: 0x0, symName: __ZNSt3__110unique_ptrINS_12basic_stringIcNS_11char_traitsIcEENS_9allocatorIcEEEEZN8nlohmann16json_abi_v3_11_310basic_jsonINS_3mapENS_6vectorES6_bxydS4_NS8_14adl_serializerENSB_IhNS4_IhEEEEvE6createIS6_JRA5_KcEEEPT_DpOT0_EUlPS6_E_EC1B8ue170006ILb1EvEESP_NS_16__dependent_typeINS_27__unique_ptr_deleter_sfinaeISQ_EEXT_EE15__lval_ref_typeE, symObjAddr: 0x17670, symBinAddr: 0x100018750, symSize: 0x30 }
  - { offsetInCU: 0x1D569, offset: 0x3C988, size: 0x8, addend: 0x0, symName: __ZNSt3__116allocator_traitsINS_9allocatorINS_12basic_stringIcNS_11char_traitsIcEENS1_IcEEEEEEE9constructB8ue170006IS6_JRA5_KcEvEEvRS7_PT_DpOT0_, symObjAddr: 0x176A0, symBinAddr: 0x100018780, symSize: 0x30 }
  - { offsetInCU: 0x1D5C0, offset: 0x3C9DF, size: 0x8, addend: 0x0, symName: __ZNKSt3__110unique_ptrINS_12basic_stringIcNS_11char_traitsIcEENS_9allocatorIcEEEEZN8nlohmann16json_abi_v3_11_310basic_jsonINS_3mapENS_6vectorES6_bxydS4_NS8_14adl_serializerENSB_IhNS4_IhEEEEvE6createIS6_JRA5_KcEEEPT_DpOT0_EUlPS6_E_E3getB8ue170006Ev, symObjAddr: 0x176D0, symBinAddr: 0x1000187B0, symSize: 0x20 }
  - { offsetInCU: 0x1D5E6, offset: 0x3CA05, size: 0x8, addend: 0x0, symName: __ZNSt3__110unique_ptrINS_12basic_stringIcNS_11char_traitsIcEENS_9allocatorIcEEEEZN8nlohmann16json_abi_v3_11_310basic_jsonINS_3mapENS_6vectorES6_bxydS4_NS8_14adl_serializerENSB_IhNS4_IhEEEEvE6createIS6_JRA5_KcEEEPT_DpOT0_EUlPS6_E_E7releaseB8ue170006Ev, symObjAddr: 0x17720, symBinAddr: 0x100018800, symSize: 0x40 }
  - { offsetInCU: 0x1D61B, offset: 0x3CA3A, size: 0x8, addend: 0x0, symName: __ZNSt3__110unique_ptrINS_12basic_stringIcNS_11char_traitsIcEENS_9allocatorIcEEEEZN8nlohmann16json_abi_v3_11_310basic_jsonINS_3mapENS_6vectorES6_bxydS4_NS8_14adl_serializerENSB_IhNS4_IhEEEEvE6createIS6_JRA5_KcEEEPT_DpOT0_EUlPS6_E_ED1B8ue170006Ev, symObjAddr: 0x17760, symBinAddr: 0x100018840, symSize: 0x20 }
  - { offsetInCU: 0x1D645, offset: 0x3CA64, size: 0x8, addend: 0x0, symName: __ZNSt3__110unique_ptrINS_12basic_stringIcNS_11char_traitsIcEENS_9allocatorIcEEEEZN8nlohmann16json_abi_v3_11_310basic_jsonINS_3mapENS_6vectorES6_bxydS4_NS8_14adl_serializerENSB_IhNS4_IhEEEEvE6createIS6_JRA5_KcEEEPT_DpOT0_EUlPS6_E_EC2B8ue170006ILb1EvEESP_NS_16__dependent_typeINS_27__unique_ptr_deleter_sfinaeISQ_EEXT_EE15__lval_ref_typeE, symObjAddr: 0x17780, symBinAddr: 0x100018860, symSize: 0x40 }
  - { offsetInCU: 0x1D696, offset: 0x3CAB5, size: 0x8, addend: 0x0, symName: __ZNSt3__117__compressed_pairIPNS_12basic_stringIcNS_11char_traitsIcEENS_9allocatorIcEEEEZN8nlohmann16json_abi_v3_11_310basic_jsonINS_3mapENS_6vectorES6_bxydS4_NS9_14adl_serializerENSC_IhNS4_IhEEEEvE6createIS6_JRA5_KcEEEPT_DpOT0_EUlS7_E_EC1B8ue170006IRS7_RKSQ_EEOSL_OT0_, symObjAddr: 0x177C0, symBinAddr: 0x1000188A0, symSize: 0x30 }
  - { offsetInCU: 0x1D6EE, offset: 0x3CB0D, size: 0x8, addend: 0x0, symName: __ZNSt3__117__compressed_pairIPNS_12basic_stringIcNS_11char_traitsIcEENS_9allocatorIcEEEEZN8nlohmann16json_abi_v3_11_310basic_jsonINS_3mapENS_6vectorES6_bxydS4_NS9_14adl_serializerENSC_IhNS4_IhEEEEvE6createIS6_JRA5_KcEEEPT_DpOT0_EUlS7_E_EC2B8ue170006IRS7_RKSQ_EEOSL_OT0_, symObjAddr: 0x177F0, symBinAddr: 0x1000188D0, symSize: 0x40 }
  - { offsetInCU: 0x1D746, offset: 0x3CB65, size: 0x8, addend: 0x0, symName: __ZNSt3__122__compressed_pair_elemIZN8nlohmann16json_abi_v3_11_310basic_jsonINS_3mapENS_6vectorENS_12basic_stringIcNS_11char_traitsIcEENS_9allocatorIcEEEEbxydS9_NS2_14adl_serializerENS5_IhNS9_IhEEEEvE6createISB_JRA5_KcEEEPT_DpOT0_EUlPSB_E_Li1ELb0EEC2B8ue170006IRKSQ_vEEOSK_, symObjAddr: 0x17830, symBinAddr: 0x100018910, symSize: 0x20 }
  - { offsetInCU: 0x1D788, offset: 0x3CBA7, size: 0x8, addend: 0x0, symName: __ZNSt3__19allocatorINS_12basic_stringIcNS_11char_traitsIcEENS0_IcEEEEE9constructB8ue170006IS5_JRA5_KcEEEvPT_DpOT0_, symObjAddr: 0x17850, symBinAddr: 0x100018930, symSize: 0x30 }
  - { offsetInCU: 0x1D7DE, offset: 0x3CBFD, size: 0x8, addend: 0x0, symName: __ZNKSt3__117__compressed_pairIPNS_12basic_stringIcNS_11char_traitsIcEENS_9allocatorIcEEEEZN8nlohmann16json_abi_v3_11_310basic_jsonINS_3mapENS_6vectorES6_bxydS4_NS9_14adl_serializerENSC_IhNS4_IhEEEEvE6createIS6_JRA5_KcEEEPT_DpOT0_EUlS7_E_E5firstB8ue170006Ev, symObjAddr: 0x17880, symBinAddr: 0x100018960, symSize: 0x20 }
  - { offsetInCU: 0x1D804, offset: 0x3CC23, size: 0x8, addend: 0x0, symName: __ZNKSt3__110unique_ptrINS_12basic_stringIcNS_11char_traitsIcEENS_9allocatorIcEEEEZN8nlohmann16json_abi_v3_11_310basic_jsonINS_3mapENS_6vectorES6_bxydS4_NS8_14adl_serializerENSB_IhNS4_IhEEEEvE6createIS6_JRA5_KcEEEPT_DpOT0_EUlPS6_E_EcvbB8ue170006Ev, symObjAddr: 0x178A0, symBinAddr: 0x100018980, symSize: 0x30 }
  - { offsetInCU: 0x1D82A, offset: 0x3CC49, size: 0x8, addend: 0x0, symName: __ZNSt3__117__compressed_pairIPNS_12basic_stringIcNS_11char_traitsIcEENS_9allocatorIcEEEEZN8nlohmann16json_abi_v3_11_310basic_jsonINS_3mapENS_6vectorES6_bxydS4_NS9_14adl_serializerENSC_IhNS4_IhEEEEvE6createIS6_JRA5_KcEEEPT_DpOT0_EUlS7_E_E5firstB8ue170006Ev, symObjAddr: 0x178D0, symBinAddr: 0x1000189B0, symSize: 0x20 }
  - { offsetInCU: 0x1D850, offset: 0x3CC6F, size: 0x8, addend: 0x0, symName: __ZNSt3__110unique_ptrINS_12basic_stringIcNS_11char_traitsIcEENS_9allocatorIcEEEEZN8nlohmann16json_abi_v3_11_310basic_jsonINS_3mapENS_6vectorES6_bxydS4_NS8_14adl_serializerENSB_IhNS4_IhEEEEvE6createIS6_JRA5_KcEEEPT_DpOT0_EUlPS6_E_ED2B8ue170006Ev, symObjAddr: 0x178F0, symBinAddr: 0x1000189D0, symSize: 0x20 }
  - { offsetInCU: 0x1D87A, offset: 0x3CC99, size: 0x8, addend: 0x0, symName: __ZNSt3__110unique_ptrINS_12basic_stringIcNS_11char_traitsIcEENS_9allocatorIcEEEEZN8nlohmann16json_abi_v3_11_310basic_jsonINS_3mapENS_6vectorES6_bxydS4_NS8_14adl_serializerENSB_IhNS4_IhEEEEvE6createIS6_JRA5_KcEEEPT_DpOT0_EUlPS6_E_E5resetB8ue170006ESP_, symObjAddr: 0x17910, symBinAddr: 0x1000189F0, symSize: 0x80 }
  - { offsetInCU: 0x1D8BE, offset: 0x3CCDD, size: 0x8, addend: 0x0, symName: __ZNSt3__117__compressed_pairIPNS_12basic_stringIcNS_11char_traitsIcEENS_9allocatorIcEEEEZN8nlohmann16json_abi_v3_11_310basic_jsonINS_3mapENS_6vectorES6_bxydS4_NS9_14adl_serializerENSC_IhNS4_IhEEEEvE6createIS6_JRA5_KcEEEPT_DpOT0_EUlS7_E_E6secondB8ue170006Ev, symObjAddr: 0x17990, symBinAddr: 0x100018A70, symSize: 0x20 }
  - { offsetInCU: 0x1D8EA, offset: 0x3CD09, size: 0x8, addend: 0x0, symName: __ZZN8nlohmann16json_abi_v3_11_310basic_jsonINSt3__13mapENS2_6vectorENS2_12basic_stringIcNS2_11char_traitsIcEENS2_9allocatorIcEEEEbxydS8_NS0_14adl_serializerENS4_IhNS8_IhEEEEvE6createISA_JRA5_KcEEEPT_DpOT0_ENKUlPSA_E_clESO_, symObjAddr: 0x179B0, symBinAddr: 0x100018A90, symSize: 0x30 }
  - { offsetInCU: 0x1D923, offset: 0x3CD42, size: 0x8, addend: 0x0, symName: __ZNSt3__122__compressed_pair_elemIZN8nlohmann16json_abi_v3_11_310basic_jsonINS_3mapENS_6vectorENS_12basic_stringIcNS_11char_traitsIcEENS_9allocatorIcEEEEbxydS9_NS2_14adl_serializerENS5_IhNS9_IhEEEEvE6createISB_JRA5_KcEEEPT_DpOT0_EUlPSB_E_Li1ELb0EE5__getB8ue170006Ev, symObjAddr: 0x179E0, symBinAddr: 0x100018AC0, symSize: 0x10 }
  - { offsetInCU: 0x1D949, offset: 0x3CD68, size: 0x8, addend: 0x0, symName: __ZN8nlohmann16json_abi_v3_11_36detail8json_refINS0_10basic_jsonINSt3__13mapENS4_6vectorENS4_12basic_stringIcNS4_11char_traitsIcEENS4_9allocatorIcEEEEbxydSA_NS0_14adl_serializerENS6_IhNSA_IhEEEEvEEEC2IJRA3_KcELi0EEEDpOT_, symObjAddr: 0x179F0, symBinAddr: 0x100018AD0, symSize: 0x40 }
  - { offsetInCU: 0x1D993, offset: 0x3CDB2, size: 0x8, addend: 0x0, symName: __ZN8nlohmann16json_abi_v3_11_310basic_jsonINSt3__13mapENS2_6vectorENS2_12basic_stringIcNS2_11char_traitsIcEENS2_9allocatorIcEEEEbxydS8_NS0_14adl_serializerENS4_IhNS8_IhEEEEvEC1IRA3_KcA3_cLi0EEEOT_, symObjAddr: 0x17A30, symBinAddr: 0x100018B10, symSize: 0x30 }
  - { offsetInCU: 0x1D9E4, offset: 0x3CE03, size: 0x8, addend: 0x0, symName: __ZN8nlohmann16json_abi_v3_11_310basic_jsonINSt3__13mapENS2_6vectorENS2_12basic_stringIcNS2_11char_traitsIcEENS2_9allocatorIcEEEEbxydS8_NS0_14adl_serializerENS4_IhNS8_IhEEEEvEC2IRA3_KcA3_cLi0EEEOT_, symObjAddr: 0x17A60, symBinAddr: 0x100018B40, symSize: 0x80 }
  - { offsetInCU: 0x1DA35, offset: 0x3CE54, size: 0x8, addend: 0x0, symName: __ZN8nlohmann16json_abi_v3_11_314adl_serializerIA3_cvE7to_jsonINS0_10basic_jsonINSt3__13mapENS6_6vectorENS6_12basic_stringIcNS6_11char_traitsIcEENS6_9allocatorIcEEEEbxydSC_S1_NS8_IhNSC_IhEEEEvEERA3_KcEEDTcmclL_ZNS0_7to_jsonEEfp_clsr3stdE7forwardIT0_Efp0_EEcvv_EERT_OSL_, symObjAddr: 0x17AE0, symBinAddr: 0x100018BC0, symSize: 0x30 }
  - { offsetInCU: 0x1DA7A, offset: 0x3CE99, size: 0x8, addend: 0x0, symName: __ZNK8nlohmann16json_abi_v3_11_36detail10to_json_fnclINS0_10basic_jsonINSt3__13mapENS5_6vectorENS5_12basic_stringIcNS5_11char_traitsIcEENS5_9allocatorIcEEEEbxydSB_NS0_14adl_serializerENS7_IhNSB_IhEEEEvEERA3_KcEEDTcmcl7to_jsonfp_clsr3stdE7forwardIT0_Efp0_EEcvv_EERT_OSL_, symObjAddr: 0x17B10, symBinAddr: 0x100018BF0, symSize: 0x30 }
  - { offsetInCU: 0x1DAD0, offset: 0x3CEEF, size: 0x8, addend: 0x0, symName: __ZN8nlohmann16json_abi_v3_11_36detail20external_constructorILNS1_7value_tE3EE9constructINS0_10basic_jsonINSt3__13mapENS7_6vectorENS7_12basic_stringIcNS7_11char_traitsIcEENS7_9allocatorIcEEEEbxydSD_NS0_14adl_serializerENS9_IhNSD_IhEEEEvEEA3_cLi0EEEvRT_RKT0_, symObjAddr: 0x17B70, symBinAddr: 0x100018C50, symSize: 0x60 }
  - { offsetInCU: 0x1DB1B, offset: 0x3CF3A, size: 0x8, addend: 0x0, symName: __ZN8nlohmann16json_abi_v3_11_310basic_jsonINSt3__13mapENS2_6vectorENS2_12basic_stringIcNS2_11char_traitsIcEENS2_9allocatorIcEEEEbxydS8_NS0_14adl_serializerENS4_IhNS8_IhEEEEvE6createISA_JRA3_KcEEEPT_DpOT0_, symObjAddr: 0x17BD0, symBinAddr: 0x100018CB0, symSize: 0xF0 }
  - { offsetInCU: 0x1DC1C, offset: 0x3D03B, size: 0x8, addend: 0x0, symName: __ZNSt3__110unique_ptrINS_12basic_stringIcNS_11char_traitsIcEENS_9allocatorIcEEEEZN8nlohmann16json_abi_v3_11_310basic_jsonINS_3mapENS_6vectorES6_bxydS4_NS8_14adl_serializerENSB_IhNS4_IhEEEEvE6createIS6_JRA3_KcEEEPT_DpOT0_EUlPS6_E_EC1B8ue170006ILb1EvEESP_NS_16__dependent_typeINS_27__unique_ptr_deleter_sfinaeISQ_EEXT_EE15__lval_ref_typeE, symObjAddr: 0x17CC0, symBinAddr: 0x100018DA0, symSize: 0x30 }
  - { offsetInCU: 0x1DC6D, offset: 0x3D08C, size: 0x8, addend: 0x0, symName: __ZNSt3__116allocator_traitsINS_9allocatorINS_12basic_stringIcNS_11char_traitsIcEENS1_IcEEEEEEE9constructB8ue170006IS6_JRA3_KcEvEEvRS7_PT_DpOT0_, symObjAddr: 0x17CF0, symBinAddr: 0x100018DD0, symSize: 0x30 }
  - { offsetInCU: 0x1DCC4, offset: 0x3D0E3, size: 0x8, addend: 0x0, symName: __ZNKSt3__110unique_ptrINS_12basic_stringIcNS_11char_traitsIcEENS_9allocatorIcEEEEZN8nlohmann16json_abi_v3_11_310basic_jsonINS_3mapENS_6vectorES6_bxydS4_NS8_14adl_serializerENSB_IhNS4_IhEEEEvE6createIS6_JRA3_KcEEEPT_DpOT0_EUlPS6_E_E3getB8ue170006Ev, symObjAddr: 0x17D20, symBinAddr: 0x100018E00, symSize: 0x20 }
  - { offsetInCU: 0x1DCEA, offset: 0x3D109, size: 0x8, addend: 0x0, symName: __ZNSt3__110unique_ptrINS_12basic_stringIcNS_11char_traitsIcEENS_9allocatorIcEEEEZN8nlohmann16json_abi_v3_11_310basic_jsonINS_3mapENS_6vectorES6_bxydS4_NS8_14adl_serializerENSB_IhNS4_IhEEEEvE6createIS6_JRA3_KcEEEPT_DpOT0_EUlPS6_E_E7releaseB8ue170006Ev, symObjAddr: 0x17D70, symBinAddr: 0x100018E50, symSize: 0x40 }
  - { offsetInCU: 0x1DD1F, offset: 0x3D13E, size: 0x8, addend: 0x0, symName: __ZNSt3__110unique_ptrINS_12basic_stringIcNS_11char_traitsIcEENS_9allocatorIcEEEEZN8nlohmann16json_abi_v3_11_310basic_jsonINS_3mapENS_6vectorES6_bxydS4_NS8_14adl_serializerENSB_IhNS4_IhEEEEvE6createIS6_JRA3_KcEEEPT_DpOT0_EUlPS6_E_ED1B8ue170006Ev, symObjAddr: 0x17DB0, symBinAddr: 0x100018E90, symSize: 0x20 }
  - { offsetInCU: 0x1DD49, offset: 0x3D168, size: 0x8, addend: 0x0, symName: __ZNSt3__110unique_ptrINS_12basic_stringIcNS_11char_traitsIcEENS_9allocatorIcEEEEZN8nlohmann16json_abi_v3_11_310basic_jsonINS_3mapENS_6vectorES6_bxydS4_NS8_14adl_serializerENSB_IhNS4_IhEEEEvE6createIS6_JRA3_KcEEEPT_DpOT0_EUlPS6_E_EC2B8ue170006ILb1EvEESP_NS_16__dependent_typeINS_27__unique_ptr_deleter_sfinaeISQ_EEXT_EE15__lval_ref_typeE, symObjAddr: 0x17DD0, symBinAddr: 0x100018EB0, symSize: 0x40 }
  - { offsetInCU: 0x1DD9A, offset: 0x3D1B9, size: 0x8, addend: 0x0, symName: __ZNSt3__117__compressed_pairIPNS_12basic_stringIcNS_11char_traitsIcEENS_9allocatorIcEEEEZN8nlohmann16json_abi_v3_11_310basic_jsonINS_3mapENS_6vectorES6_bxydS4_NS9_14adl_serializerENSC_IhNS4_IhEEEEvE6createIS6_JRA3_KcEEEPT_DpOT0_EUlS7_E_EC1B8ue170006IRS7_RKSQ_EEOSL_OT0_, symObjAddr: 0x17E10, symBinAddr: 0x100018EF0, symSize: 0x30 }
  - { offsetInCU: 0x1DDF2, offset: 0x3D211, size: 0x8, addend: 0x0, symName: __ZNSt3__117__compressed_pairIPNS_12basic_stringIcNS_11char_traitsIcEENS_9allocatorIcEEEEZN8nlohmann16json_abi_v3_11_310basic_jsonINS_3mapENS_6vectorES6_bxydS4_NS9_14adl_serializerENSC_IhNS4_IhEEEEvE6createIS6_JRA3_KcEEEPT_DpOT0_EUlS7_E_EC2B8ue170006IRS7_RKSQ_EEOSL_OT0_, symObjAddr: 0x17E40, symBinAddr: 0x100018F20, symSize: 0x40 }
  - { offsetInCU: 0x1DE4A, offset: 0x3D269, size: 0x8, addend: 0x0, symName: __ZNSt3__122__compressed_pair_elemIZN8nlohmann16json_abi_v3_11_310basic_jsonINS_3mapENS_6vectorENS_12basic_stringIcNS_11char_traitsIcEENS_9allocatorIcEEEEbxydS9_NS2_14adl_serializerENS5_IhNS9_IhEEEEvE6createISB_JRA3_KcEEEPT_DpOT0_EUlPSB_E_Li1ELb0EEC2B8ue170006IRKSQ_vEEOSK_, symObjAddr: 0x17E80, symBinAddr: 0x100018F60, symSize: 0x20 }
  - { offsetInCU: 0x1DE8C, offset: 0x3D2AB, size: 0x8, addend: 0x0, symName: __ZNSt3__19allocatorINS_12basic_stringIcNS_11char_traitsIcEENS0_IcEEEEE9constructB8ue170006IS5_JRA3_KcEEEvPT_DpOT0_, symObjAddr: 0x17EA0, symBinAddr: 0x100018F80, symSize: 0x30 }
  - { offsetInCU: 0x1DEE2, offset: 0x3D301, size: 0x8, addend: 0x0, symName: __ZNKSt3__117__compressed_pairIPNS_12basic_stringIcNS_11char_traitsIcEENS_9allocatorIcEEEEZN8nlohmann16json_abi_v3_11_310basic_jsonINS_3mapENS_6vectorES6_bxydS4_NS9_14adl_serializerENSC_IhNS4_IhEEEEvE6createIS6_JRA3_KcEEEPT_DpOT0_EUlS7_E_E5firstB8ue170006Ev, symObjAddr: 0x17ED0, symBinAddr: 0x100018FB0, symSize: 0x20 }
  - { offsetInCU: 0x1DF08, offset: 0x3D327, size: 0x8, addend: 0x0, symName: __ZNKSt3__110unique_ptrINS_12basic_stringIcNS_11char_traitsIcEENS_9allocatorIcEEEEZN8nlohmann16json_abi_v3_11_310basic_jsonINS_3mapENS_6vectorES6_bxydS4_NS8_14adl_serializerENSB_IhNS4_IhEEEEvE6createIS6_JRA3_KcEEEPT_DpOT0_EUlPS6_E_EcvbB8ue170006Ev, symObjAddr: 0x17EF0, symBinAddr: 0x100018FD0, symSize: 0x30 }
  - { offsetInCU: 0x1DF2E, offset: 0x3D34D, size: 0x8, addend: 0x0, symName: __ZNSt3__117__compressed_pairIPNS_12basic_stringIcNS_11char_traitsIcEENS_9allocatorIcEEEEZN8nlohmann16json_abi_v3_11_310basic_jsonINS_3mapENS_6vectorES6_bxydS4_NS9_14adl_serializerENSC_IhNS4_IhEEEEvE6createIS6_JRA3_KcEEEPT_DpOT0_EUlS7_E_E5firstB8ue170006Ev, symObjAddr: 0x17F20, symBinAddr: 0x100019000, symSize: 0x20 }
  - { offsetInCU: 0x1DF54, offset: 0x3D373, size: 0x8, addend: 0x0, symName: __ZNSt3__110unique_ptrINS_12basic_stringIcNS_11char_traitsIcEENS_9allocatorIcEEEEZN8nlohmann16json_abi_v3_11_310basic_jsonINS_3mapENS_6vectorES6_bxydS4_NS8_14adl_serializerENSB_IhNS4_IhEEEEvE6createIS6_JRA3_KcEEEPT_DpOT0_EUlPS6_E_ED2B8ue170006Ev, symObjAddr: 0x17F40, symBinAddr: 0x100019020, symSize: 0x20 }
  - { offsetInCU: 0x1DF7E, offset: 0x3D39D, size: 0x8, addend: 0x0, symName: __ZNSt3__110unique_ptrINS_12basic_stringIcNS_11char_traitsIcEENS_9allocatorIcEEEEZN8nlohmann16json_abi_v3_11_310basic_jsonINS_3mapENS_6vectorES6_bxydS4_NS8_14adl_serializerENSB_IhNS4_IhEEEEvE6createIS6_JRA3_KcEEEPT_DpOT0_EUlPS6_E_E5resetB8ue170006ESP_, symObjAddr: 0x17F60, symBinAddr: 0x100019040, symSize: 0x80 }
  - { offsetInCU: 0x1DFC2, offset: 0x3D3E1, size: 0x8, addend: 0x0, symName: __ZNSt3__117__compressed_pairIPNS_12basic_stringIcNS_11char_traitsIcEENS_9allocatorIcEEEEZN8nlohmann16json_abi_v3_11_310basic_jsonINS_3mapENS_6vectorES6_bxydS4_NS9_14adl_serializerENSC_IhNS4_IhEEEEvE6createIS6_JRA3_KcEEEPT_DpOT0_EUlS7_E_E6secondB8ue170006Ev, symObjAddr: 0x17FE0, symBinAddr: 0x1000190C0, symSize: 0x20 }
  - { offsetInCU: 0x1DFEE, offset: 0x3D40D, size: 0x8, addend: 0x0, symName: __ZZN8nlohmann16json_abi_v3_11_310basic_jsonINSt3__13mapENS2_6vectorENS2_12basic_stringIcNS2_11char_traitsIcEENS2_9allocatorIcEEEEbxydS8_NS0_14adl_serializerENS4_IhNS8_IhEEEEvE6createISA_JRA3_KcEEEPT_DpOT0_ENKUlPSA_E_clESO_, symObjAddr: 0x18000, symBinAddr: 0x1000190E0, symSize: 0x30 }
  - { offsetInCU: 0x1E027, offset: 0x3D446, size: 0x8, addend: 0x0, symName: __ZNSt3__122__compressed_pair_elemIZN8nlohmann16json_abi_v3_11_310basic_jsonINS_3mapENS_6vectorENS_12basic_stringIcNS_11char_traitsIcEENS_9allocatorIcEEEEbxydS9_NS2_14adl_serializerENS5_IhNS9_IhEEEEvE6createISB_JRA3_KcEEEPT_DpOT0_EUlPSB_E_Li1ELb0EE5__getB8ue170006Ev, symObjAddr: 0x18030, symBinAddr: 0x100019110, symSize: 0x10 }
  - { offsetInCU: 0x1E04D, offset: 0x3D46C, size: 0x8, addend: 0x0, symName: __ZN8nlohmann16json_abi_v3_11_36detail8json_refINS0_10basic_jsonINSt3__13mapENS4_6vectorENS4_12basic_stringIcNS4_11char_traitsIcEENS4_9allocatorIcEEEEbxydSA_NS0_14adl_serializerENS6_IhNSA_IhEEEEvEEEC2IJRmELi0EEEDpOT_, symObjAddr: 0x18040, symBinAddr: 0x100019120, symSize: 0x40 }
  - { offsetInCU: 0x1E097, offset: 0x3D4B6, size: 0x8, addend: 0x0, symName: __ZN8nlohmann16json_abi_v3_11_310basic_jsonINSt3__13mapENS2_6vectorENS2_12basic_stringIcNS2_11char_traitsIcEENS2_9allocatorIcEEEEbxydS8_NS0_14adl_serializerENS4_IhNS8_IhEEEEvEC1IRmmLi0EEEOT_, symObjAddr: 0x18080, symBinAddr: 0x100019160, symSize: 0x30 }
  - { offsetInCU: 0x1E0E8, offset: 0x3D507, size: 0x8, addend: 0x0, symName: __ZN8nlohmann16json_abi_v3_11_310basic_jsonINSt3__13mapENS2_6vectorENS2_12basic_stringIcNS2_11char_traitsIcEENS2_9allocatorIcEEEEbxydS8_NS0_14adl_serializerENS4_IhNS8_IhEEEEvEC2IRmmLi0EEEOT_, symObjAddr: 0x180B0, symBinAddr: 0x100019190, symSize: 0x60 }
  - { offsetInCU: 0x1E139, offset: 0x3D558, size: 0x8, addend: 0x0, symName: __ZN8nlohmann16json_abi_v3_11_314adl_serializerImvE7to_jsonINS0_10basic_jsonINSt3__13mapENS5_6vectorENS5_12basic_stringIcNS5_11char_traitsIcEENS5_9allocatorIcEEEEbxydSB_S1_NS7_IhNSB_IhEEEEvEERmEEDTcmclL_ZNS0_7to_jsonEEfp_clsr3stdE7forwardIT0_Efp0_EEcvv_EERT_OSI_, symObjAddr: 0x18110, symBinAddr: 0x1000191F0, symSize: 0x30 }
  - { offsetInCU: 0x1E17E, offset: 0x3D59D, size: 0x8, addend: 0x0, symName: __ZNK8nlohmann16json_abi_v3_11_36detail10to_json_fnclINS0_10basic_jsonINSt3__13mapENS5_6vectorENS5_12basic_stringIcNS5_11char_traitsIcEENS5_9allocatorIcEEEEbxydSB_NS0_14adl_serializerENS7_IhNSB_IhEEEEvEERmEEDTcmcl7to_jsonfp_clsr3stdE7forwardIT0_Efp0_EEcvv_EERT_OSJ_, symObjAddr: 0x18140, symBinAddr: 0x100019220, symSize: 0x30 }
  - { offsetInCU: 0x1E1D4, offset: 0x3D5F3, size: 0x8, addend: 0x0, symName: __ZN8nlohmann16json_abi_v3_11_36detail20external_constructorILNS1_7value_tE6EE9constructINS0_10basic_jsonINSt3__13mapENS7_6vectorENS7_12basic_stringIcNS7_11char_traitsIcEENS7_9allocatorIcEEEEbxydSD_NS0_14adl_serializerENS9_IhNSD_IhEEEEvEEEEvRT_NSK_17number_unsigned_tE, symObjAddr: 0x181A0, symBinAddr: 0x100019280, symSize: 0x64 }
  - { offsetInCU: 0x4C, offset: 0x3D9DF, size: 0x8, addend: 0x0, symName: __ZN8nlohmann16json_abi_v3_11_36detail12static_constINS1_12from_json_fnEE5valueE, symObjAddr: 0x32C78, symBinAddr: 0x10003AA10, symSize: 0x0 }
  - { offsetInCU: 0x153B, offset: 0x3EECE, size: 0x8, addend: 0x0, symName: __ZN8nlohmann16json_abi_v3_11_36detail9from_jsonINS0_10basic_jsonINSt3__13mapENS4_6vectorENS4_12basic_stringIcNS4_11char_traitsIcEENS4_9allocatorIcEEEEbxydSA_NS0_14adl_serializerENS6_IhNSA_IhEEEEvEEmLi0EEEvRKT_RT0_, symObjAddr: 0x1DC0, symBinAddr: 0x10001ADA0, symSize: 0x1C0 }
  - { offsetInCU: 0x17C9, offset: 0x3F15C, size: 0x8, addend: 0x0, symName: __ZN8nlohmann16json_abi_v3_11_36detail13input_adapterERNSt3__113basic_istreamIcNS2_11char_traitsIcEEEE, symObjAddr: 0x10C60, symBinAddr: 0x10001B590, symSize: 0x30 }
  - { offsetInCU: 0x21A0, offset: 0x3FB33, size: 0x8, addend: 0x0, symName: __ZN8nlohmann16json_abi_v3_11_36detail6concatINSt3__112basic_stringIcNS3_11char_traitsIcEENS3_9allocatorIcEEEEJRA26_KcS9_cEEET_DpOT0_, symObjAddr: 0x1CD20, symBinAddr: 0x100027650, symSize: 0xC0 }
  - { offsetInCU: 0x221A, offset: 0x3FBAD, size: 0x8, addend: 0x0, symName: __ZN8nlohmann16json_abi_v3_11_36detail6concatINSt3__112basic_stringIcNS3_11char_traitsIcEENS3_9allocatorIcEEEEJRA24_KcS9_EEET_DpOT0_, symObjAddr: 0x1D840, symBinAddr: 0x100028170, symSize: 0xB0 }
  - { offsetInCU: 0x2280, offset: 0x3FC13, size: 0x8, addend: 0x0, symName: __ZN8nlohmann16json_abi_v3_11_36detail11concat_intoINSt3__112basic_stringIcNS3_11char_traitsIcEENS3_9allocatorIcEEEERA24_KcJS9_ELi0EEEvRT_OT0_DpOT1_, symObjAddr: 0x1F2F0, symBinAddr: 0x100029AD0, symSize: 0x40 }
  - { offsetInCU: 0x238E, offset: 0x3FD21, size: 0x8, addend: 0x0, symName: __ZN8nlohmann16json_abi_v3_11_36detaileqENS1_20primitive_iterator_tES2_, symObjAddr: 0x20610, symBinAddr: 0x10002ADF0, symSize: 0x20 }
  - { offsetInCU: 0x23CB, offset: 0x3FD5E, size: 0x8, addend: 0x0, symName: __ZN8nlohmann16json_abi_v3_11_36detail6concatINSt3__112basic_stringIcNS3_11char_traitsIcEENS3_9allocatorIcEEEEJRA25_KcPSA_EEET_DpOT0_, symObjAddr: 0x20B80, symBinAddr: 0x10002B1A0, symSize: 0xB0 }
  - { offsetInCU: 0x2431, offset: 0x3FDC4, size: 0x8, addend: 0x0, symName: __ZN8nlohmann16json_abi_v3_11_36detail11concat_intoINSt3__112basic_stringIcNS3_11char_traitsIcEENS3_9allocatorIcEEEERA25_KcJPSA_ELi0EEEvRT_OT0_DpOT1_, symObjAddr: 0x219F0, symBinAddr: 0x10002BC90, symSize: 0x40 }
  - { offsetInCU: 0x249C, offset: 0x3FE2F, size: 0x8, addend: 0x0, symName: __ZN8nlohmann16json_abi_v3_11_36detail6concatINSt3__112basic_stringIcNS3_11char_traitsIcEENS3_9allocatorIcEEEEJRA23_KcS9_EEET_DpOT0_, symObjAddr: 0x234F0, symBinAddr: 0x10002C3C0, symSize: 0xB0 }
  - { offsetInCU: 0x2502, offset: 0x3FE95, size: 0x8, addend: 0x0, symName: __ZN8nlohmann16json_abi_v3_11_36detail11concat_intoINSt3__112basic_stringIcNS3_11char_traitsIcEENS3_9allocatorIcEEEERA23_KcJS9_ELi0EEEvRT_OT0_DpOT1_, symObjAddr: 0x235A0, symBinAddr: 0x10002C470, symSize: 0x40 }
  - { offsetInCU: 0x256D, offset: 0x3FF00, size: 0x8, addend: 0x0, symName: __ZN8nlohmann16json_abi_v3_11_36detail13concat_lengthIJNSt3__112basic_stringIcNS3_11char_traitsIcEENS3_9allocatorIcEEEEcEEEmPKcDpRKT_, symObjAddr: 0x236D0, symBinAddr: 0x10002C5A0, symSize: 0x40 }
  - { offsetInCU: 0x25C9, offset: 0x3FF5C, size: 0x8, addend: 0x0, symName: __ZN8nlohmann16json_abi_v3_11_36detail11concat_intoINSt3__112basic_stringIcNS3_11char_traitsIcEENS3_9allocatorIcEEEERA26_KcJS9_cELi0EEEvRT_OT0_DpOT1_, symObjAddr: 0x23710, symBinAddr: 0x10002C5E0, symSize: 0x40 }
  - { offsetInCU: 0x2648, offset: 0x3FFDB, size: 0x8, addend: 0x0, symName: __ZN8nlohmann16json_abi_v3_11_36detail13concat_lengthINSt3__112basic_stringIcNS3_11char_traitsIcEENS3_9allocatorIcEEEEJcEEEmRKT_DpRKT0_, symObjAddr: 0x23750, symBinAddr: 0x10002C620, symSize: 0x40 }
  - { offsetInCU: 0x2699, offset: 0x4002C, size: 0x8, addend: 0x0, symName: __ZN8nlohmann16json_abi_v3_11_36detail13concat_lengthIJEEEmcDpRKT_, symObjAddr: 0x23790, symBinAddr: 0x10002C660, symSize: 0x20 }
  - { offsetInCU: 0x26C9, offset: 0x4005C, size: 0x8, addend: 0x0, symName: __ZN8nlohmann16json_abi_v3_11_36detail11concat_intoINSt3__112basic_stringIcNS3_11char_traitsIcEENS3_9allocatorIcEEEES9_JcELi0EEEvRT_OT0_DpOT1_, symObjAddr: 0x237B0, symBinAddr: 0x10002C680, symSize: 0x40 }
  - { offsetInCU: 0x2734, offset: 0x400C7, size: 0x8, addend: 0x0, symName: __ZN8nlohmann16json_abi_v3_11_36detail11concat_intoINSt3__112basic_stringIcNS3_11char_traitsIcEENS3_9allocatorIcEEEEcJELi0EEEvRT_OT0_DpOT1_, symObjAddr: 0x237F0, symBinAddr: 0x10002C6C0, symSize: 0x40 }
  - { offsetInCU: 0x278A, offset: 0x4011D, size: 0x8, addend: 0x0, symName: __ZN8nlohmann16json_abi_v3_11_36detail7to_jsonINS0_10basic_jsonINSt3__13mapENS4_6vectorENS4_12basic_stringIcNS4_11char_traitsIcEENS4_9allocatorIcEEEEbxydSA_NS0_14adl_serializerENS6_IhNSA_IhEEEEvEEdLi0EEEvRT_T0_, symObjAddr: 0x23EB0, symBinAddr: 0x10002CD80, symSize: 0x30 }
  - { offsetInCU: 0x280C, offset: 0x4019F, size: 0x8, addend: 0x0, symName: __ZN8nlohmann16json_abi_v3_11_36detail7to_jsonINS0_10basic_jsonINSt3__13mapENS4_6vectorENS4_12basic_stringIcNS4_11char_traitsIcEENS4_9allocatorIcEEEEbxydSA_NS0_14adl_serializerENS6_IhNSA_IhEEEEvEEbLi0EEEvRT_T0_, symObjAddr: 0x24600, symBinAddr: 0x10002D480, symSize: 0x30 }
  - { offsetInCU: 0x288E, offset: 0x40221, size: 0x8, addend: 0x0, symName: __ZN8nlohmann16json_abi_v3_11_36detail7to_jsonINS0_10basic_jsonINSt3__13mapENS4_6vectorENS4_12basic_stringIcNS4_11char_traitsIcEENS4_9allocatorIcEEEEbxydSA_NS0_14adl_serializerENS6_IhNSA_IhEEEEvEExLi0EEEvRT_T0_, symObjAddr: 0x252C0, symBinAddr: 0x10002E0F0, symSize: 0x30 }
  - { offsetInCU: 0x2910, offset: 0x402A3, size: 0x8, addend: 0x0, symName: __ZN8nlohmann16json_abi_v3_11_36detail7to_jsonINS0_10basic_jsonINSt3__13mapENS4_6vectorENS4_12basic_stringIcNS4_11char_traitsIcEENS4_9allocatorIcEEEEbxydSA_NS0_14adl_serializerENS6_IhNSA_IhEEEEvEEyLi0EEEvRT_T0_, symObjAddr: 0x25F80, symBinAddr: 0x10002ED60, symSize: 0x30 }
  - { offsetInCU: 0x2961, offset: 0x402F4, size: 0x8, addend: 0x0, symName: __ZN8nlohmann16json_abi_v3_11_36detail6concatINSt3__112basic_stringIcNS3_11char_traitsIcEENS3_9allocatorIcEEEEJS9_RA12_KcS9_RA3_SA_S9_RKS9_EEET_DpOT0_, symObjAddr: 0x26320, symBinAddr: 0x10002F040, symSize: 0xF0 }
  - { offsetInCU: 0x2A17, offset: 0x403AA, size: 0x8, addend: 0x0, symName: __ZN8nlohmann16json_abi_v3_11_36detail13concat_lengthINSt3__112basic_stringIcNS3_11char_traitsIcEENS3_9allocatorIcEEEEJA12_cS9_A3_cS9_S9_EEEmRKT_DpRKT0_, symObjAddr: 0x26510, symBinAddr: 0x10002F230, symSize: 0x60 }
  - { offsetInCU: 0x2AB8, offset: 0x4044B, size: 0x8, addend: 0x0, symName: __ZN8nlohmann16json_abi_v3_11_36detail11concat_intoINSt3__112basic_stringIcNS3_11char_traitsIcEENS3_9allocatorIcEEEES9_JRA12_KcS9_RA3_SA_S9_RKS9_ELi0EEEvRT_OT0_DpOT1_, symObjAddr: 0x26570, symBinAddr: 0x10002F290, symSize: 0x60 }
  - { offsetInCU: 0x2B73, offset: 0x40506, size: 0x8, addend: 0x0, symName: __ZN8nlohmann16json_abi_v3_11_36detail13concat_lengthIJNSt3__112basic_stringIcNS3_11char_traitsIcEENS3_9allocatorIcEEEEA3_cS9_S9_EEEmPKcDpRKT_, symObjAddr: 0x265D0, symBinAddr: 0x10002F2F0, symSize: 0x50 }
  - { offsetInCU: 0x2BF7, offset: 0x4058A, size: 0x8, addend: 0x0, symName: __ZN8nlohmann16json_abi_v3_11_36detail13concat_lengthINSt3__112basic_stringIcNS3_11char_traitsIcEENS3_9allocatorIcEEEEJA3_cS9_S9_EEEmRKT_DpRKT0_, symObjAddr: 0x26620, symBinAddr: 0x10002F340, symSize: 0x50 }
  - { offsetInCU: 0x2C70, offset: 0x40603, size: 0x8, addend: 0x0, symName: __ZN8nlohmann16json_abi_v3_11_36detail13concat_lengthIJNSt3__112basic_stringIcNS3_11char_traitsIcEENS3_9allocatorIcEEEES9_EEEmPKcDpRKT_, symObjAddr: 0x26670, symBinAddr: 0x10002F390, symSize: 0x40 }
  - { offsetInCU: 0x2CCC, offset: 0x4065F, size: 0x8, addend: 0x0, symName: __ZN8nlohmann16json_abi_v3_11_36detail11concat_intoINSt3__112basic_stringIcNS3_11char_traitsIcEENS3_9allocatorIcEEEERA12_KcJS9_RA3_SA_S9_RKS9_ELi0EEEvRT_OT0_DpOT1_, symObjAddr: 0x266B0, symBinAddr: 0x10002F3D0, symSize: 0x50 }
  - { offsetInCU: 0x2D73, offset: 0x40706, size: 0x8, addend: 0x0, symName: __ZN8nlohmann16json_abi_v3_11_36detail11concat_intoINSt3__112basic_stringIcNS3_11char_traitsIcEENS3_9allocatorIcEEEES9_JRA3_KcS9_RKS9_ELi0EEEvRT_OT0_DpOT1_, symObjAddr: 0x26700, symBinAddr: 0x10002F420, symSize: 0x50 }
  - { offsetInCU: 0x2E06, offset: 0x40799, size: 0x8, addend: 0x0, symName: __ZN8nlohmann16json_abi_v3_11_36detail11concat_intoINSt3__112basic_stringIcNS3_11char_traitsIcEENS3_9allocatorIcEEEERA3_KcJS9_RKS9_ELi0EEEvRT_OT0_DpOT1_, symObjAddr: 0x26750, symBinAddr: 0x10002F470, symSize: 0x40 }
  - { offsetInCU: 0x2E85, offset: 0x40818, size: 0x8, addend: 0x0, symName: __ZN8nlohmann16json_abi_v3_11_36detail6concatINSt3__112basic_stringIcNS3_11char_traitsIcEENS3_9allocatorIcEEEEJRA10_KcS9_SC_S9_EEET_DpOT0_, symObjAddr: 0x26790, symBinAddr: 0x10002F4B0, symSize: 0xD0 }
  - { offsetInCU: 0x2F13, offset: 0x408A6, size: 0x8, addend: 0x0, symName: __ZN8nlohmann16json_abi_v3_11_36detail13concat_lengthIJNSt3__112basic_stringIcNS3_11char_traitsIcEENS3_9allocatorIcEEEEA10_cS9_EEEmPKcDpRKT_, symObjAddr: 0x26860, symBinAddr: 0x10002F580, symSize: 0x50 }
  - { offsetInCU: 0x2F83, offset: 0x40916, size: 0x8, addend: 0x0, symName: __ZN8nlohmann16json_abi_v3_11_36detail11concat_intoINSt3__112basic_stringIcNS3_11char_traitsIcEENS3_9allocatorIcEEEERA10_KcJS9_SC_S9_ELi0EEEvRT_OT0_DpOT1_, symObjAddr: 0x268B0, symBinAddr: 0x10002F5D0, symSize: 0x50 }
  - { offsetInCU: 0x3016, offset: 0x409A9, size: 0x8, addend: 0x0, symName: __ZN8nlohmann16json_abi_v3_11_36detail13concat_lengthINSt3__112basic_stringIcNS3_11char_traitsIcEENS3_9allocatorIcEEEEJA10_cS9_EEEmRKT_DpRKT0_, symObjAddr: 0x26900, symBinAddr: 0x10002F620, symSize: 0x40 }
  - { offsetInCU: 0x307B, offset: 0x40A0E, size: 0x8, addend: 0x0, symName: __ZN8nlohmann16json_abi_v3_11_36detail11concat_intoINSt3__112basic_stringIcNS3_11char_traitsIcEENS3_9allocatorIcEEEES9_JRA10_KcS9_ELi0EEEvRT_OT0_DpOT1_, symObjAddr: 0x26940, symBinAddr: 0x10002F660, symSize: 0x40 }
  - { offsetInCU: 0x30FA, offset: 0x40A8D, size: 0x8, addend: 0x0, symName: __ZN8nlohmann16json_abi_v3_11_36detail11concat_intoINSt3__112basic_stringIcNS3_11char_traitsIcEENS3_9allocatorIcEEEERA10_KcJS9_ELi0EEEvRT_OT0_DpOT1_, symObjAddr: 0x26980, symBinAddr: 0x10002F6A0, symSize: 0x40 }
  - { offsetInCU: 0x3165, offset: 0x40AF8, size: 0x8, addend: 0x0, symName: __ZN8nlohmann16json_abi_v3_11_36detail6concatINSt3__112basic_stringIcNS3_11char_traitsIcEENS3_9allocatorIcEEEEJRA15_KcRKS9_cEEET_DpOT0_, symObjAddr: 0x26A40, symBinAddr: 0x10002F760, symSize: 0xC0 }
  - { offsetInCU: 0x31DF, offset: 0x40B72, size: 0x8, addend: 0x0, symName: __ZN8nlohmann16json_abi_v3_11_36detail6concatINSt3__112basic_stringIcNS3_11char_traitsIcEENS3_9allocatorIcEEEEJPKcRA15_SA_S9_cEEET_DpOT0_, symObjAddr: 0x26B30, symBinAddr: 0x10002F850, symSize: 0xD0 }
  - { offsetInCU: 0x326D, offset: 0x40C00, size: 0x8, addend: 0x0, symName: __ZN8nlohmann16json_abi_v3_11_36detail6concatINSt3__112basic_stringIcNS3_11char_traitsIcEENS3_9allocatorIcEEEEJRA12_KcPSA_EEET_DpOT0_, symObjAddr: 0x26C20, symBinAddr: 0x10002F940, symSize: 0xB0 }
  - { offsetInCU: 0x32D3, offset: 0x40C66, size: 0x8, addend: 0x0, symName: __ZN8nlohmann16json_abi_v3_11_36detail11concat_intoINSt3__112basic_stringIcNS3_11char_traitsIcEENS3_9allocatorIcEEEERA15_KcJRKS9_cELi0EEEvRT_OT0_DpOT1_, symObjAddr: 0x26E50, symBinAddr: 0x10002FB70, symSize: 0x40 }
  - { offsetInCU: 0x3352, offset: 0x40CE5, size: 0x8, addend: 0x0, symName: __ZN8nlohmann16json_abi_v3_11_36detail11concat_intoINSt3__112basic_stringIcNS3_11char_traitsIcEENS3_9allocatorIcEEEERKS9_JcELi0EEEvRT_OT0_DpOT1_, symObjAddr: 0x26E90, symBinAddr: 0x10002FBB0, symSize: 0x40 }
  - { offsetInCU: 0x33BD, offset: 0x40D50, size: 0x8, addend: 0x0, symName: __ZN8nlohmann16json_abi_v3_11_36detail13concat_lengthIJA15_cNSt3__112basic_stringIcNS4_11char_traitsIcEENS4_9allocatorIcEEEEcEEEmPKcDpRKT_, symObjAddr: 0x26ED0, symBinAddr: 0x10002FBF0, symSize: 0x50 }
  - { offsetInCU: 0x342D, offset: 0x40DC0, size: 0x8, addend: 0x0, symName: __ZN8nlohmann16json_abi_v3_11_36detail11concat_intoINSt3__112basic_stringIcNS3_11char_traitsIcEENS3_9allocatorIcEEEEPKcJRA15_SA_S9_cELi0EEEvRT_OT0_DpOT1_, symObjAddr: 0x26F20, symBinAddr: 0x10002FC40, symSize: 0x50 }
  - { offsetInCU: 0x34C0, offset: 0x40E53, size: 0x8, addend: 0x0, symName: __ZN8nlohmann16json_abi_v3_11_36detail11concat_intoINSt3__112basic_stringIcNS3_11char_traitsIcEENS3_9allocatorIcEEEERA15_KcJS9_cELi0EEEvRT_OT0_DpOT1_, symObjAddr: 0x26F70, symBinAddr: 0x10002FC90, symSize: 0x40 }
  - { offsetInCU: 0x353F, offset: 0x40ED2, size: 0x8, addend: 0x0, symName: __ZN8nlohmann16json_abi_v3_11_36detail11concat_intoINSt3__112basic_stringIcNS3_11char_traitsIcEENS3_9allocatorIcEEEERA12_KcJPSA_ELi0EEEvRT_OT0_DpOT1_, symObjAddr: 0x26FB0, symBinAddr: 0x10002FCD0, symSize: 0x40 }
  - { offsetInCU: 0x35AA, offset: 0x40F3D, size: 0x8, addend: 0x0, symName: __ZN8nlohmann16json_abi_v3_11_36detail6concatINSt3__112basic_stringIcNS3_11char_traitsIcEENS3_9allocatorIcEEEEJRA22_KcPSA_EEET_DpOT0_, symObjAddr: 0x2A0A0, symBinAddr: 0x100032DC0, symSize: 0xB0 }
  - { offsetInCU: 0x3610, offset: 0x40FA3, size: 0x8, addend: 0x0, symName: __ZN8nlohmann16json_abi_v3_11_36detail6concatINSt3__112basic_stringIcNS3_11char_traitsIcEENS3_9allocatorIcEEEEJRA6_KcS9_RA12_SA_EEET_DpOT0_, symObjAddr: 0x2A2F0, symBinAddr: 0x100033010, symSize: 0xC0 }
  - { offsetInCU: 0x368A, offset: 0x4101D, size: 0x8, addend: 0x0, symName: __ZN8nlohmann16json_abi_v3_11_36detail11concat_intoINSt3__112basic_stringIcNS3_11char_traitsIcEENS3_9allocatorIcEEEERA22_KcJPSA_ELi0EEEvRT_OT0_DpOT1_, symObjAddr: 0x2A3B0, symBinAddr: 0x1000330D0, symSize: 0x40 }
  - { offsetInCU: 0x36F5, offset: 0x41088, size: 0x8, addend: 0x0, symName: __ZN8nlohmann16json_abi_v3_11_36detail13concat_lengthIJNSt3__112basic_stringIcNS3_11char_traitsIcEENS3_9allocatorIcEEEEA12_cEEEmPKcDpRKT_, symObjAddr: 0x2A6D0, symBinAddr: 0x1000333F0, symSize: 0x40 }
  - { offsetInCU: 0x3751, offset: 0x410E4, size: 0x8, addend: 0x0, symName: __ZN8nlohmann16json_abi_v3_11_36detail11concat_intoINSt3__112basic_stringIcNS3_11char_traitsIcEENS3_9allocatorIcEEEERA6_KcJS9_RA12_SA_ELi0EEEvRT_OT0_DpOT1_, symObjAddr: 0x2A710, symBinAddr: 0x100033430, symSize: 0x40 }
  - { offsetInCU: 0x37D0, offset: 0x41163, size: 0x8, addend: 0x0, symName: __ZN8nlohmann16json_abi_v3_11_36detail13concat_lengthINSt3__112basic_stringIcNS3_11char_traitsIcEENS3_9allocatorIcEEEEJA12_cEEEmRKT_DpRKT0_, symObjAddr: 0x2A750, symBinAddr: 0x100033470, symSize: 0x40 }
  - { offsetInCU: 0x3821, offset: 0x411B4, size: 0x8, addend: 0x0, symName: __ZN8nlohmann16json_abi_v3_11_36detail11concat_intoINSt3__112basic_stringIcNS3_11char_traitsIcEENS3_9allocatorIcEEEES9_JRA12_KcELi0EEEvRT_OT0_DpOT1_, symObjAddr: 0x2A790, symBinAddr: 0x1000334B0, symSize: 0x40 }
  - { offsetInCU: 0x388C, offset: 0x4121F, size: 0x8, addend: 0x0, symName: __ZN8nlohmann16json_abi_v3_11_36detail11concat_intoINSt3__112basic_stringIcNS3_11char_traitsIcEENS3_9allocatorIcEEEERA12_KcJELi0EEEvRT_OT0_DpOT1_, symObjAddr: 0x2A7D0, symBinAddr: 0x1000334F0, symSize: 0x30 }
  - { offsetInCU: 0x5400, offset: 0x42D93, size: 0x8, addend: 0x0, symName: __ZN8nlohmann16json_abi_v3_11_3rsERNSt3__113basic_istreamIcNS1_11char_traitsIcEEEERNS0_10basic_jsonINS1_3mapENS1_6vectorENS1_12basic_stringIcS4_NS1_9allocatorIcEEEEbxydSB_NS0_14adl_serializerENS9_IhNSB_IhEEEEvEE, symObjAddr: 0x9E0, symBinAddr: 0x100019A30, symSize: 0x160 }
  - { offsetInCU: 0x543F, offset: 0x42DD2, size: 0x8, addend: 0x0, symName: __ZN8nlohmann16json_abi_v3_11_3eqImLi0EEEbRKNS0_10basic_jsonINSt3__13mapENS3_6vectorENS3_12basic_stringIcNS3_11char_traitsIcEENS3_9allocatorIcEEEEbxydS9_NS0_14adl_serializerENS5_IhNS9_IhEEEEvEET_, symObjAddr: 0xDB0, symBinAddr: 0x100019DE0, symSize: 0x50 }
  - { offsetInCU: 0x548B, offset: 0x42E1E, size: 0x8, addend: 0x0, symName: __ZN8nlohmann16json_abi_v3_11_3lsERNSt3__113basic_ostreamIcNS1_11char_traitsIcEEEERKNS0_10basic_jsonINS1_3mapENS1_6vectorENS1_12basic_stringIcS4_NS1_9allocatorIcEEEEbxydSB_NS0_14adl_serializerENS9_IhNSB_IhEEEEvEE, symObjAddr: 0x19B0, symBinAddr: 0x10001A990, symSize: 0x210 }
  - { offsetInCU: 0x5659, offset: 0x42FEC, size: 0x8, addend: 0x0, symName: __ZN8nlohmann16json_abi_v3_11_3eqERKNS0_10basic_jsonINSt3__13mapENS2_6vectorENS2_12basic_stringIcNS2_11char_traitsIcEENS2_9allocatorIcEEEEbxydS8_NS0_14adl_serializerENS4_IhNS8_IhEEEEvEESG_, symObjAddr: 0x2A800, symBinAddr: 0x100033520, symSize: 0x3B0 }
  - { offsetInCU: 0xE365, offset: 0x4BCF8, size: 0x8, addend: 0x0, symName: __ZNSt3__119piecewise_constructE, symObjAddr: 0x3381F, symBinAddr: 0x10003AF57, symSize: 0x0 }
  - { offsetInCU: 0x19C20, offset: 0x575B3, size: 0x8, addend: 0x0, symName: __ZNSt3__17advanceB8ue170006INS_14__map_iteratorINS_15__tree_iteratorINS_12__value_typeINS_12basic_stringIcNS_11char_traitsIcEENS_9allocatorIcEEEEN8nlohmann16json_abi_v3_11_310basic_jsonINS_3mapENS_6vectorES9_bxydS7_NSB_14adl_serializerENSE_IhNS7_IhEEEEvEEEEPNS_11__tree_nodeISJ_PvEElEEEEiivEEvRT_T0_, symObjAddr: 0x21A70, symBinAddr: 0x10002BD10, symSize: 0x30 }
  - { offsetInCU: 0x19CB1, offset: 0x57644, size: 0x8, addend: 0x0, symName: __ZNSt3__17advanceB8ue170006INS_11__wrap_iterIPN8nlohmann16json_abi_v3_11_310basic_jsonINS_3mapENS_6vectorENS_12basic_stringIcNS_11char_traitsIcEENS_9allocatorIcEEEEbxydSA_NS3_14adl_serializerENS6_IhNSA_IhEEEEvEEEEiivEEvRT_T0_, symObjAddr: 0x21AA0, symBinAddr: 0x10002BD40, symSize: 0x30 }
  - { offsetInCU: 0x1BBC2, offset: 0x59555, size: 0x8, addend: 0x0, symName: __ZNSt3__14endlB8ue170006IcNS_11char_traitsIcEEEERNS_13basic_ostreamIT_T0_EES7_, symObjAddr: 0x1BE0, symBinAddr: 0x10001ABC0, symSize: 0x50 }
  - { offsetInCU: 0x1C7B0, offset: 0x5A143, size: 0x8, addend: 0x0, symName: __ZNSt3__119__allocate_at_leastB8ue170006INS_9allocatorIcEEEENS_19__allocation_resultINS_16allocator_traitsIT_E7pointerEEERS5_m, symObjAddr: 0x14820, symBinAddr: 0x10001F150, symSize: 0x40 }
  - { offsetInCU: 0x1C7F2, offset: 0x5A185, size: 0x8, addend: 0x0, symName: __ZNSt3__142__uninitialized_allocator_move_if_noexceptB8ue170006INS_9allocatorIcEENS_16reverse_iteratorIPcEES5_cvEET1_RT_T0_S9_S6_, symObjAddr: 0x14A50, symBinAddr: 0x10001F380, symSize: 0x70 }
  - { offsetInCU: 0x1C870, offset: 0x5A203, size: 0x8, addend: 0x0, symName: __ZNSt3__14swapB8ue170006IPcEENS_9enable_ifIXaasr21is_move_constructibleIT_EE5valuesr18is_move_assignableIS3_EE5valueEvE4typeERS3_S6_, symObjAddr: 0x14B10, symBinAddr: 0x10001F440, symSize: 0x40 }
  - { offsetInCU: 0x1C8C1, offset: 0x5A254, size: 0x8, addend: 0x0, symName: __ZNSt3__14moveB8ue170006INS_16reverse_iteratorIPcEES3_EET0_T_S5_S4_, symObjAddr: 0x14C30, symBinAddr: 0x10001F560, symSize: 0x80 }
  - { offsetInCU: 0x1C91B, offset: 0x5A2AE, size: 0x8, addend: 0x0, symName: __ZNSt3__16__moveB8ue170006INS_17_ClassicAlgPolicyENS_16reverse_iteratorIPcEES4_S4_EENS_4pairIT0_T2_EES6_T1_S7_, symObjAddr: 0x14CB0, symBinAddr: 0x10001F5E0, symSize: 0x90 }
  - { offsetInCU: 0x1C987, offset: 0x5A31A, size: 0x8, addend: 0x0, symName: __ZNSt3__123__dispatch_copy_or_moveB8ue170006INS_17_ClassicAlgPolicyENS_11__move_loopIS1_EENS_14__move_trivialENS_16reverse_iteratorIPcEES7_S7_EENS_4pairIT2_T4_EES9_T3_SA_, symObjAddr: 0x14D40, symBinAddr: 0x10001F670, symSize: 0x90 }
  - { offsetInCU: 0x1CA05, offset: 0x5A398, size: 0x8, addend: 0x0, symName: __ZNSt3__121__unwrap_and_dispatchB8ue170006INS_10__overloadINS_11__move_loopINS_17_ClassicAlgPolicyEEENS_14__move_trivialEEENS_16reverse_iteratorIPcEES9_S9_Li0EEENS_4pairIT0_T2_EESB_T1_SC_, symObjAddr: 0x14DD0, symBinAddr: 0x10001F700, symSize: 0x210 }
  - { offsetInCU: 0x1CA94, offset: 0x5A427, size: 0x8, addend: 0x0, symName: __ZNSt3__114__unwrap_rangeB8ue170006INS_16reverse_iteratorIPcEES3_EENS_4pairIT0_S5_EET_S7_, symObjAddr: 0x14FE0, symBinAddr: 0x10001F910, symSize: 0x90 }
  - { offsetInCU: 0x1CBB4, offset: 0x5A547, size: 0x8, addend: 0x0, symName: __ZNSt3__113__unwrap_iterB8ue170006INS_16reverse_iteratorIPcEENS_18__unwrap_iter_implIS3_Lb0EEELi0EEEDTclsrT0_8__unwrapclsr3stdE7declvalIT_EEEES7_, symObjAddr: 0x15110, symBinAddr: 0x10001FA40, symSize: 0x40 }
  - { offsetInCU: 0x1CBF7, offset: 0x5A58A, size: 0x8, addend: 0x0, symName: __ZNSt3__19make_pairB8ue170006INS_16reverse_iteratorIPcEES3_EENS_4pairINS_18__unwrap_ref_decayIT_E4typeENS5_IT0_E4typeEEEOS6_OS9_, symObjAddr: 0x15150, symBinAddr: 0x10001FA80, symSize: 0x30 }
  - { offsetInCU: 0x1CC47, offset: 0x5A5DA, size: 0x8, addend: 0x0, symName: __ZNSt3__114__rewrap_rangeB8ue170006INS_16reverse_iteratorIPcEES3_EET_S4_T0_, symObjAddr: 0x15180, symBinAddr: 0x10001FAB0, symSize: 0x60 }
  - { offsetInCU: 0x1CC93, offset: 0x5A626, size: 0x8, addend: 0x0, symName: __ZNSt3__113__rewrap_iterB8ue170006INS_16reverse_iteratorIPcEES3_NS_18__unwrap_iter_implIS3_Lb0EEEEET_S6_T0_, symObjAddr: 0x151E0, symBinAddr: 0x10001FB10, symSize: 0x70 }
  - { offsetInCU: 0x1CCE8, offset: 0x5A67B, size: 0x8, addend: 0x0, symName: __ZNSt3__1neB8ue170006IPcS1_EEbRKNS_16reverse_iteratorIT_EERKNS2_IT0_EE, symObjAddr: 0x15250, symBinAddr: 0x10001FB80, symSize: 0x40 }
  - { offsetInCU: 0x1CF8F, offset: 0x5A922, size: 0x8, addend: 0x0, symName: __ZNSt3__119__allocate_at_leastB8ue170006INS_9allocatorImEEEENS_19__allocation_resultINS_16allocator_traitsIT_E7pointerEEERS5_m, symObjAddr: 0x1B040, symBinAddr: 0x100025970, symSize: 0x40 }
  - { offsetInCU: 0x1CFD2, offset: 0x5A965, size: 0x8, addend: 0x0, symName: __ZNSt3__16__copyB8ue170006INS_17_ClassicAlgPolicyENS_14__bit_iteratorINS_6vectorIbNS_9allocatorIbEEEELb0ELm0EEES7_S7_EENS_4pairIT0_T2_EES9_T1_SA_, symObjAddr: 0x1B180, symBinAddr: 0x100025AB0, symSize: 0x70 }
  - { offsetInCU: 0x1D041, offset: 0x5A9D4, size: 0x8, addend: 0x0, symName: __ZNSt3__123__dispatch_copy_or_moveB8ue170006INS_17_ClassicAlgPolicyENS_11__copy_loopIS1_EENS_14__copy_trivialENS_14__bit_iteratorINS_6vectorIbNS_9allocatorIbEEEELb0ELm0EEESA_SA_EENS_4pairIT2_T4_EESC_T3_SD_, symObjAddr: 0x1B270, symBinAddr: 0x100025BA0, symSize: 0x70 }
  - { offsetInCU: 0x1D0C2, offset: 0x5AA55, size: 0x8, addend: 0x0, symName: __ZNSt3__121__unwrap_and_dispatchB8ue170006INS_10__overloadINS_11__copy_loopINS_17_ClassicAlgPolicyEEENS_14__copy_trivialEEENS_14__bit_iteratorINS_6vectorIbNS_9allocatorIbEEEELb0ELm0EEESC_SC_Li0EEENS_4pairIT0_T2_EESE_T1_SF_, symObjAddr: 0x1B2E0, symBinAddr: 0x100025C10, symSize: 0x190 }
  - { offsetInCU: 0x1D154, offset: 0x5AAE7, size: 0x8, addend: 0x0, symName: __ZNSt3__114__unwrap_rangeB8ue170006INS_14__bit_iteratorINS_6vectorIbNS_9allocatorIbEEEELb0ELm0EEES6_EENS_4pairIT0_S8_EET_SA_, symObjAddr: 0x1B470, symBinAddr: 0x100025DA0, symSize: 0x70 }
  - { offsetInCU: 0x1D2C8, offset: 0x5AC5B, size: 0x8, addend: 0x0, symName: __ZNSt3__113__unwrap_iterB8ue170006INS_14__bit_iteratorINS_6vectorIbNS_9allocatorIbEEEELb0ELm0EEENS_18__unwrap_iter_implIS6_Lb0EEELi0EEEDTclsrT0_8__unwrapclsr3stdE7declvalIT_EEEESA_, symObjAddr: 0x1B590, symBinAddr: 0x100025EC0, symSize: 0x40 }
  - { offsetInCU: 0x1D30C, offset: 0x5AC9F, size: 0x8, addend: 0x0, symName: __ZNSt3__19make_pairB8ue170006INS_14__bit_iteratorINS_6vectorIbNS_9allocatorIbEEEELb0ELm0EEES6_EENS_4pairINS_18__unwrap_ref_decayIT_E4typeENS8_IT0_E4typeEEEOS9_OSC_, symObjAddr: 0x1B5D0, symBinAddr: 0x100025F00, symSize: 0x40 }
  - { offsetInCU: 0x1D35C, offset: 0x5ACEF, size: 0x8, addend: 0x0, symName: __ZNSt3__114__rewrap_rangeB8ue170006INS_14__bit_iteratorINS_6vectorIbNS_9allocatorIbEEEELb0ELm0EEES6_EET_S7_T0_, symObjAddr: 0x1B610, symBinAddr: 0x100025F40, symSize: 0x60 }
  - { offsetInCU: 0x1D3AA, offset: 0x5AD3D, size: 0x8, addend: 0x0, symName: __ZNSt3__113__rewrap_iterB8ue170006INS_14__bit_iteratorINS_6vectorIbNS_9allocatorIbEEEELb0ELm0EEES6_NS_18__unwrap_iter_implIS6_Lb0EEEEET_S9_T0_, symObjAddr: 0x1B670, symBinAddr: 0x100025FA0, symSize: 0x70 }
  - { offsetInCU: 0x1D400, offset: 0x5AD93, size: 0x8, addend: 0x0, symName: __ZNSt3__1neB8ue170006ERKNS_14__bit_iteratorINS_6vectorIbNS_9allocatorIbEEEELb0ELm0EEES7_, symObjAddr: 0x1B6E0, symBinAddr: 0x100026010, symSize: 0x30 }
  - { offsetInCU: 0x1D43D, offset: 0x5ADD0, size: 0x8, addend: 0x0, symName: __ZNSt3__1eqB8ue170006ERKNS_14__bit_iteratorINS_6vectorIbNS_9allocatorIbEEEELb0ELm0EEES7_, symObjAddr: 0x1B7E0, symBinAddr: 0x100026110, symSize: 0x50 }
  - { offsetInCU: 0x1D4C3, offset: 0x5AE56, size: 0x8, addend: 0x0, symName: __ZNSt3__14swapB8ue170006IPmEENS_9enable_ifIXaasr21is_move_constructibleIT_EE5valuesr18is_move_assignableIS3_EE5valueEvE4typeERS3_S6_, symObjAddr: 0x1BA30, symBinAddr: 0x100026360, symSize: 0x40 }
  - { offsetInCU: 0x1D514, offset: 0x5AEA7, size: 0x8, addend: 0x0, symName: __ZNSt3__14swapB8ue170006ImEENS_9enable_ifIXaasr21is_move_constructibleIT_EE5valuesr18is_move_assignableIS2_EE5valueEvE4typeERS2_S5_, symObjAddr: 0x1BA70, symBinAddr: 0x1000263A0, symSize: 0x40 }
  - { offsetInCU: 0x1D565, offset: 0x5AEF8, size: 0x8, addend: 0x0, symName: __ZNSt3__116__swap_allocatorB8ue170006INS_9allocatorImEEEEvRT_S4_NS_17integral_constantIbLb0EEE, symObjAddr: 0x1BAB0, symBinAddr: 0x1000263E0, symSize: 0x10 }
  - { offsetInCU: 0x1D5A9, offset: 0x5AF3C, size: 0x8, addend: 0x0, symName: __ZNSt3__112__to_addressB8ue170006IPN8nlohmann16json_abi_v3_11_310basic_jsonINS_3mapENS_6vectorENS_12basic_stringIcNS_11char_traitsIcEENS_9allocatorIcEEEEbxydS9_NS2_14adl_serializerENS5_IhNS9_IhEEEEvEEEEPT_SI_, symObjAddr: 0x1BFA0, symBinAddr: 0x1000268D0, symSize: 0x10 }
  - { offsetInCU: 0x1D710, offset: 0x5B0A3, size: 0x8, addend: 0x0, symName: __ZNSt3__125__throw_bad_function_callB8ue170006Ev, symObjAddr: 0x1D950, symBinAddr: 0x100028280, symSize: 0x40 }
  - { offsetInCU: 0x1D761, offset: 0x5B0F4, size: 0x8, addend: 0x0, symName: __ZNSt3__119__allocate_at_leastB8ue170006INS_9allocatorIPN8nlohmann16json_abi_v3_11_310basic_jsonINS_3mapENS_6vectorENS_12basic_stringIcNS_11char_traitsIcEENS1_IcEEEEbxydS1_NS3_14adl_serializerENS6_IhNS1_IhEEEEvEEEEEENS_19__allocation_resultINS_16allocator_traitsIT_E7pointerEEERSK_m, symObjAddr: 0x1E3C0, symBinAddr: 0x100028CF0, symSize: 0x40 }
  - { offsetInCU: 0x1D7A3, offset: 0x5B136, size: 0x8, addend: 0x0, symName: __ZNSt3__142__uninitialized_allocator_move_if_noexceptB8ue170006INS_9allocatorIPN8nlohmann16json_abi_v3_11_310basic_jsonINS_3mapENS_6vectorENS_12basic_stringIcNS_11char_traitsIcEENS1_IcEEEEbxydS1_NS3_14adl_serializerENS6_IhNS1_IhEEEEvEEEENS_16reverse_iteratorIPSG_EESK_SG_vEET1_RT_T0_SO_SL_, symObjAddr: 0x1E550, symBinAddr: 0x100028E80, symSize: 0x70 }
  - { offsetInCU: 0x1D821, offset: 0x5B1B4, size: 0x8, addend: 0x0, symName: __ZNSt3__14swapB8ue170006IPPN8nlohmann16json_abi_v3_11_310basic_jsonINS_3mapENS_6vectorENS_12basic_stringIcNS_11char_traitsIcEENS_9allocatorIcEEEEbxydS9_NS2_14adl_serializerENS5_IhNS9_IhEEEEvEEEENS_9enable_ifIXaasr21is_move_constructibleIT_EE5valuesr18is_move_assignableISJ_EE5valueEvE4typeERSJ_SM_, symObjAddr: 0x1E610, symBinAddr: 0x100028F40, symSize: 0x40 }
  - { offsetInCU: 0x1D872, offset: 0x5B205, size: 0x8, addend: 0x0, symName: __ZNSt3__14moveB8ue170006INS_16reverse_iteratorIPPN8nlohmann16json_abi_v3_11_310basic_jsonINS_3mapENS_6vectorENS_12basic_stringIcNS_11char_traitsIcEENS_9allocatorIcEEEEbxydSA_NS3_14adl_serializerENS6_IhNSA_IhEEEEvEEEESJ_EET0_T_SL_SK_, symObjAddr: 0x1E700, symBinAddr: 0x100029030, symSize: 0x80 }
  - { offsetInCU: 0x1D8CC, offset: 0x5B25F, size: 0x8, addend: 0x0, symName: __ZNSt3__16__moveB8ue170006INS_17_ClassicAlgPolicyENS_16reverse_iteratorIPPN8nlohmann16json_abi_v3_11_310basic_jsonINS_3mapENS_6vectorENS_12basic_stringIcNS_11char_traitsIcEENS_9allocatorIcEEEEbxydSB_NS4_14adl_serializerENS7_IhNSB_IhEEEEvEEEESK_SK_EENS_4pairIT0_T2_EESM_T1_SN_, symObjAddr: 0x1E780, symBinAddr: 0x1000290B0, symSize: 0x90 }
  - { offsetInCU: 0x1D938, offset: 0x5B2CB, size: 0x8, addend: 0x0, symName: __ZNSt3__123__dispatch_copy_or_moveB8ue170006INS_17_ClassicAlgPolicyENS_11__move_loopIS1_EENS_14__move_trivialENS_16reverse_iteratorIPPN8nlohmann16json_abi_v3_11_310basic_jsonINS_3mapENS_6vectorENS_12basic_stringIcNS_11char_traitsIcEENS_9allocatorIcEEEEbxydSE_NS7_14adl_serializerENSA_IhNSE_IhEEEEvEEEESN_SN_EENS_4pairIT2_T4_EESP_T3_SQ_, symObjAddr: 0x1E810, symBinAddr: 0x100029140, symSize: 0x90 }
  - { offsetInCU: 0x1D9B6, offset: 0x5B349, size: 0x8, addend: 0x0, symName: __ZNSt3__121__unwrap_and_dispatchB8ue170006INS_10__overloadINS_11__move_loopINS_17_ClassicAlgPolicyEEENS_14__move_trivialEEENS_16reverse_iteratorIPPN8nlohmann16json_abi_v3_11_310basic_jsonINS_3mapENS_6vectorENS_12basic_stringIcNS_11char_traitsIcEENS_9allocatorIcEEEEbxydSG_NS9_14adl_serializerENSC_IhNSG_IhEEEEvEEEESP_SP_Li0EEENS_4pairIT0_T2_EESR_T1_SS_, symObjAddr: 0x1E8A0, symBinAddr: 0x1000291D0, symSize: 0x210 }
  - { offsetInCU: 0x1DA45, offset: 0x5B3D8, size: 0x8, addend: 0x0, symName: __ZNSt3__114__unwrap_rangeB8ue170006INS_16reverse_iteratorIPPN8nlohmann16json_abi_v3_11_310basic_jsonINS_3mapENS_6vectorENS_12basic_stringIcNS_11char_traitsIcEENS_9allocatorIcEEEEbxydSA_NS3_14adl_serializerENS6_IhNSA_IhEEEEvEEEESJ_EENS_4pairIT0_SL_EET_SN_, symObjAddr: 0x1EAB0, symBinAddr: 0x1000293E0, symSize: 0x90 }
  - { offsetInCU: 0x1DB65, offset: 0x5B4F8, size: 0x8, addend: 0x0, symName: __ZNSt3__113__unwrap_iterB8ue170006INS_16reverse_iteratorIPPN8nlohmann16json_abi_v3_11_310basic_jsonINS_3mapENS_6vectorENS_12basic_stringIcNS_11char_traitsIcEENS_9allocatorIcEEEEbxydSA_NS3_14adl_serializerENS6_IhNSA_IhEEEEvEEEENS_18__unwrap_iter_implISJ_Lb0EEELi0EEEDTclsrT0_8__unwrapclsr3stdE7declvalIT_EEEESN_, symObjAddr: 0x1EBE0, symBinAddr: 0x100029510, symSize: 0x40 }
  - { offsetInCU: 0x1DBA8, offset: 0x5B53B, size: 0x8, addend: 0x0, symName: __ZNSt3__19make_pairB8ue170006INS_16reverse_iteratorIPPN8nlohmann16json_abi_v3_11_310basic_jsonINS_3mapENS_6vectorENS_12basic_stringIcNS_11char_traitsIcEENS_9allocatorIcEEEEbxydSA_NS3_14adl_serializerENS6_IhNSA_IhEEEEvEEEESJ_EENS_4pairINS_18__unwrap_ref_decayIT_E4typeENSL_IT0_E4typeEEEOSM_OSP_, symObjAddr: 0x1EC20, symBinAddr: 0x100029550, symSize: 0x30 }
  - { offsetInCU: 0x1DBF8, offset: 0x5B58B, size: 0x8, addend: 0x0, symName: __ZNSt3__114__rewrap_rangeB8ue170006INS_16reverse_iteratorIPPN8nlohmann16json_abi_v3_11_310basic_jsonINS_3mapENS_6vectorENS_12basic_stringIcNS_11char_traitsIcEENS_9allocatorIcEEEEbxydSA_NS3_14adl_serializerENS6_IhNSA_IhEEEEvEEEESJ_EET_SK_T0_, symObjAddr: 0x1EC50, symBinAddr: 0x100029580, symSize: 0x60 }
  - { offsetInCU: 0x1DC44, offset: 0x5B5D7, size: 0x8, addend: 0x0, symName: __ZNSt3__113__rewrap_iterB8ue170006INS_16reverse_iteratorIPPN8nlohmann16json_abi_v3_11_310basic_jsonINS_3mapENS_6vectorENS_12basic_stringIcNS_11char_traitsIcEENS_9allocatorIcEEEEbxydSA_NS3_14adl_serializerENS6_IhNSA_IhEEEEvEEEESJ_NS_18__unwrap_iter_implISJ_Lb0EEEEET_SM_T0_, symObjAddr: 0x1ECB0, symBinAddr: 0x1000295E0, symSize: 0x70 }
  - { offsetInCU: 0x1DC99, offset: 0x5B62C, size: 0x8, addend: 0x0, symName: __ZNSt3__1neB8ue170006IPPN8nlohmann16json_abi_v3_11_310basic_jsonINS_3mapENS_6vectorENS_12basic_stringIcNS_11char_traitsIcEENS_9allocatorIcEEEEbxydS9_NS2_14adl_serializerENS5_IhNS9_IhEEEEvEESH_EEbRKNS_16reverse_iteratorIT_EERKNSI_IT0_EE, symObjAddr: 0x1ED20, symBinAddr: 0x100029650, symSize: 0x40 }
  - { offsetInCU: 0x1DD50, offset: 0x5B6E3, size: 0x8, addend: 0x0, symName: __ZNSt3__1eqB8ue170006ERKNS_14__map_iteratorINS_15__tree_iteratorINS_12__value_typeINS_12basic_stringIcNS_11char_traitsIcEENS_9allocatorIcEEEEN8nlohmann16json_abi_v3_11_310basic_jsonINS_3mapENS_6vectorES8_bxydS6_NSA_14adl_serializerENSD_IhNS6_IhEEEEvEEEEPNS_11__tree_nodeISI_PvEElEEEESQ_, symObjAddr: 0x205A0, symBinAddr: 0x10002AD80, symSize: 0x30 }
  - { offsetInCU: 0x1DD8E, offset: 0x5B721, size: 0x8, addend: 0x0, symName: __ZNSt3__1eqB8ue170006IPN8nlohmann16json_abi_v3_11_310basic_jsonINS_3mapENS_6vectorENS_12basic_stringIcNS_11char_traitsIcEENS_9allocatorIcEEEEbxydS9_NS2_14adl_serializerENS5_IhNS9_IhEEEEvEEEEbRKNS_11__wrap_iterIT_EESL_, symObjAddr: 0x205D0, symBinAddr: 0x10002ADB0, symSize: 0x40 }
  - { offsetInCU: 0x1DDD1, offset: 0x5B764, size: 0x8, addend: 0x0, symName: __ZNSt3__1neB8ue170006IPN8nlohmann16json_abi_v3_11_310basic_jsonINS_3mapENS_6vectorENS_12basic_stringIcNS_11char_traitsIcEENS_9allocatorIcEEEEbxydS9_NS2_14adl_serializerENS5_IhNS9_IhEEEEvEEEEbRKNS_11__wrap_iterIT_EESL_, symObjAddr: 0x20840, symBinAddr: 0x10002AFF0, symSize: 0x30 }
  - { offsetInCU: 0x1DE13, offset: 0x5B7A6, size: 0x8, addend: 0x0, symName: __ZNSt3__113__tree_removeB8ue170006IPNS_16__tree_node_baseIPvEEEEvT_S5_, symObjAddr: 0x20DD0, symBinAddr: 0x10002B370, symSize: 0x5E0 }
  - { offsetInCU: 0x1DE92, offset: 0x5B825, size: 0x8, addend: 0x0, symName: __ZNSt3__111__tree_nextB8ue170006IPNS_16__tree_node_baseIPvEEEET_S5_, symObjAddr: 0x213D0, symBinAddr: 0x10002B950, symSize: 0x80 }
  - { offsetInCU: 0x1DEC7, offset: 0x5B85A, size: 0x8, addend: 0x0, symName: __ZNSt3__1miB8ue170006IPKN8nlohmann16json_abi_v3_11_310basic_jsonINS_3mapENS_6vectorENS_12basic_stringIcNS_11char_traitsIcEENS_9allocatorIcEEEEbxydS9_NS2_14adl_serializerENS5_IhNS9_IhEEEEvEESH_EEDTmicldtfp_4baseEcldtfp0_4baseEERKNS_11__wrap_iterIT_EERKNSJ_IT0_EE, symObjAddr: 0x21610, symBinAddr: 0x10002B9D0, symSize: 0x40 }
  - { offsetInCU: 0x1DF13, offset: 0x5B8A6, size: 0x8, addend: 0x0, symName: __ZNSt3__14moveB8ue170006IPN8nlohmann16json_abi_v3_11_310basic_jsonINS_3mapENS_6vectorENS_12basic_stringIcNS_11char_traitsIcEENS_9allocatorIcEEEEbxydS9_NS2_14adl_serializerENS5_IhNS9_IhEEEEvEESG_EET0_T_SI_SH_, symObjAddr: 0x21650, symBinAddr: 0x10002BA10, symSize: 0x40 }
  - { offsetInCU: 0x1DF6D, offset: 0x5B900, size: 0x8, addend: 0x0, symName: __ZNSt3__16__moveB8ue170006INS_17_ClassicAlgPolicyEPN8nlohmann16json_abi_v3_11_310basic_jsonINS_3mapENS_6vectorENS_12basic_stringIcNS_11char_traitsIcEENS_9allocatorIcEEEEbxydSA_NS3_14adl_serializerENS6_IhNSA_IhEEEEvEESH_SH_EENS_4pairIT0_T2_EESJ_T1_SK_, symObjAddr: 0x21690, symBinAddr: 0x10002BA50, symSize: 0x40 }
  - { offsetInCU: 0x1DFD9, offset: 0x5B96C, size: 0x8, addend: 0x0, symName: __ZNSt3__123__dispatch_copy_or_moveB8ue170006INS_17_ClassicAlgPolicyENS_11__move_loopIS1_EENS_14__move_trivialEPN8nlohmann16json_abi_v3_11_310basic_jsonINS_3mapENS_6vectorENS_12basic_stringIcNS_11char_traitsIcEENS_9allocatorIcEEEEbxydSD_NS6_14adl_serializerENS9_IhNSD_IhEEEEvEESK_SK_EENS_4pairIT2_T4_EESM_T3_SN_, symObjAddr: 0x216D0, symBinAddr: 0x10002BA90, symSize: 0x40 }
  - { offsetInCU: 0x1E057, offset: 0x5B9EA, size: 0x8, addend: 0x0, symName: __ZNSt3__121__unwrap_and_dispatchB8ue170006INS_10__overloadINS_11__move_loopINS_17_ClassicAlgPolicyEEENS_14__move_trivialEEEPN8nlohmann16json_abi_v3_11_310basic_jsonINS_3mapENS_6vectorENS_12basic_stringIcNS_11char_traitsIcEENS_9allocatorIcEEEEbxydSF_NS8_14adl_serializerENSB_IhNSF_IhEEEEvEESM_SM_Li0EEENS_4pairIT0_T2_EESO_T1_SP_, symObjAddr: 0x21710, symBinAddr: 0x10002BAD0, symSize: 0xB0 }
  - { offsetInCU: 0x1E0E6, offset: 0x5BA79, size: 0x8, addend: 0x0, symName: __ZNSt3__114__rewrap_rangeB8ue170006IPN8nlohmann16json_abi_v3_11_310basic_jsonINS_3mapENS_6vectorENS_12basic_stringIcNS_11char_traitsIcEENS_9allocatorIcEEEEbxydS9_NS2_14adl_serializerENS5_IhNS9_IhEEEEvEESG_EET_SH_T0_, symObjAddr: 0x218D0, symBinAddr: 0x10002BC20, symSize: 0x30 }
  - { offsetInCU: 0x1E132, offset: 0x5BAC5, size: 0x8, addend: 0x0, symName: __ZNSt3__121__convert_to_integralB8ue170006Ei, symObjAddr: 0x21AF0, symBinAddr: 0x10002BD90, symSize: 0x10 }
  - { offsetInCU: 0x1E15E, offset: 0x5BAF1, size: 0x8, addend: 0x0, symName: __ZNSt3__19__advanceB8ue170006INS_14__map_iteratorINS_15__tree_iteratorINS_12__value_typeINS_12basic_stringIcNS_11char_traitsIcEENS_9allocatorIcEEEEN8nlohmann16json_abi_v3_11_310basic_jsonINS_3mapENS_6vectorES9_bxydS7_NSB_14adl_serializerENSE_IhNS7_IhEEEEvEEEEPNS_11__tree_nodeISJ_PvEElEEEEEEvRT_NS_15iterator_traitsISQ_E15difference_typeENS_26bidirectional_iterator_tagE, symObjAddr: 0x21B00, symBinAddr: 0x10002BDA0, symSize: 0x80 }
  - { offsetInCU: 0x1E1A8, offset: 0x5BB3B, size: 0x8, addend: 0x0, symName: __ZNSt3__19__advanceB8ue170006INS_11__wrap_iterIPN8nlohmann16json_abi_v3_11_310basic_jsonINS_3mapENS_6vectorENS_12basic_stringIcNS_11char_traitsIcEENS_9allocatorIcEEEEbxydSA_NS3_14adl_serializerENS6_IhNSA_IhEEEEvEEEEEEvRT_NS_15iterator_traitsISJ_E15difference_typeENS_26random_access_iterator_tagE, symObjAddr: 0x21BE0, symBinAddr: 0x10002BE80, symSize: 0x30 }
  - { offsetInCU: 0x1E228, offset: 0x5BBBB, size: 0x8, addend: 0x0, symName: __ZNSt3__116forward_as_tupleB8ue170006IJRKNS_12basic_stringIcNS_11char_traitsIcEENS_9allocatorIcEEEEEEENS_5tupleIJDpOT_EEESC_, symObjAddr: 0x22450, symBinAddr: 0x10002C020, symSize: 0x30 }
  - { offsetInCU: 0x1E261, offset: 0x5BBF4, size: 0x8, addend: 0x0, symName: __ZNSt3__116forward_as_tupleB8ue170006IJEEENS_5tupleIJDpOT_EEES4_, symObjAddr: 0x22480, symBinAddr: 0x10002C050, symSize: 0x10 }
  - { offsetInCU: 0x1E291, offset: 0x5BC24, size: 0x8, addend: 0x0, symName: __ZNSt3__13getB8ue170006ILm0EJRKNS_12basic_stringIcNS_11char_traitsIcEENS_9allocatorIcEEEEEEERNS_13tuple_elementIXT_ENS_5tupleIJDpT0_EEEE4typeERSD_, symObjAddr: 0x22FD0, symBinAddr: 0x10002C2A0, symSize: 0x20 }
  - { offsetInCU: 0x1E2F9, offset: 0x5BC8C, size: 0x8, addend: 0x0, symName: __ZNSt3__1neB8ue170006IPKcEEbRKNS_11__wrap_iterIT_EES7_, symObjAddr: 0x26180, symBinAddr: 0x10002EEA0, symSize: 0x30 }
  - { offsetInCU: 0x1E604, offset: 0x5BF97, size: 0x8, addend: 0x0, symName: __ZNSt3__1eqB8ue170006IPKcEEbRKNS_11__wrap_iterIT_EES7_, symObjAddr: 0x262C0, symBinAddr: 0x10002EFE0, symSize: 0x40 }
  - { offsetInCU: 0x1E647, offset: 0x5BFDA, size: 0x8, addend: 0x0, symName: __ZNSt3__14swapB8ue170006IN8nlohmann16json_abi_v3_11_36detail7value_tEEENS_9enable_ifIXaasr21is_move_constructibleIT_EE5valuesr18is_move_assignableIS6_EE5valueEvE4typeERS6_S9_, symObjAddr: 0x27010, symBinAddr: 0x10002FD30, symSize: 0x30 }
  - { offsetInCU: 0x1E698, offset: 0x5C02B, size: 0x8, addend: 0x0, symName: __ZNSt3__14swapB8ue170006IN8nlohmann16json_abi_v3_11_310basic_jsonINS_3mapENS_6vectorENS_12basic_stringIcNS_11char_traitsIcEENS_9allocatorIcEEEEbxydS9_NS2_14adl_serializerENS5_IhNS9_IhEEEEvE10json_valueEEENS_9enable_ifIXaasr21is_move_constructibleIT_EE5valuesr18is_move_assignableISI_EE5valueEvE4typeERSI_SL_, symObjAddr: 0x27040, symBinAddr: 0x10002FD60, symSize: 0x40 }
  - { offsetInCU: 0x1E70C, offset: 0x5C09F, size: 0x8, addend: 0x0, symName: __ZNSt3__1ltB8ue170006IcNS_11char_traitsIcEENS_9allocatorIcEEEEbRKNS_12basic_stringIT_T0_T1_EEPKS6_, symObjAddr: 0x2A640, symBinAddr: 0x100033360, symSize: 0x30 }
  - { offsetInCU: 0x1E764, offset: 0x5C0F7, size: 0x8, addend: 0x0, symName: __ZNSt3__1ltB8ue170006IcNS_11char_traitsIcEENS_9allocatorIcEEEEbPKT_RKNS_12basic_stringIS5_T0_T1_EE, symObjAddr: 0x2A6A0, symBinAddr: 0x1000333C0, symSize: 0x30 }
  - { offsetInCU: 0x1E7BC, offset: 0x5C14F, size: 0x8, addend: 0x0, symName: __ZNSt3__1eqB8ue170006IN8nlohmann16json_abi_v3_11_310basic_jsonINS_3mapENS_6vectorENS_12basic_stringIcNS_11char_traitsIcEENS_9allocatorIcEEEEbxydS9_NS2_14adl_serializerENS5_IhNS9_IhEEEEvEENS9_ISF_EEEEbRKNS5_IT_T0_EESL_, symObjAddr: 0x2AC00, symBinAddr: 0x1000338F0, symSize: 0x90 }
  - { offsetInCU: 0x1E81A, offset: 0x5C1AD, size: 0x8, addend: 0x0, symName: __ZNSt3__1eqB8ue170006INS_12basic_stringIcNS_11char_traitsIcEENS_9allocatorIcEEEEN8nlohmann16json_abi_v3_11_310basic_jsonINS_3mapENS_6vectorES6_bxydS4_NS8_14adl_serializerENSB_IhNS4_IhEEEEvEENS_4lessIvEENS4_INS_4pairIKS6_SF_EEEEEEbRKNSA_IT_T0_T1_T2_EESS_, symObjAddr: 0x2AC90, symBinAddr: 0x100033980, symSize: 0x90 }
  - { offsetInCU: 0x1E87B, offset: 0x5C20E, size: 0x8, addend: 0x0, symName: __ZNSt3__1eqB8ue170006INS_9allocatorIcEEEEbRKNS_12basic_stringIcNS_11char_traitsIcEET_EES9_, symObjAddr: 0x2AD20, symBinAddr: 0x100033A10, symSize: 0x110 }
  - { offsetInCU: 0x1E8EF, offset: 0x5C282, size: 0x8, addend: 0x0, symName: __ZNSt3__15equalB8ue170006INS_11__wrap_iterIPKN8nlohmann16json_abi_v3_11_310basic_jsonINS_3mapENS_6vectorENS_12basic_stringIcNS_11char_traitsIcEENS_9allocatorIcEEEEbxydSA_NS3_14adl_serializerENS6_IhNSA_IhEEEEvEEEESJ_EEbT_SK_T0_, symObjAddr: 0x2AF80, symBinAddr: 0x100033C70, symSize: 0x50 }
  - { offsetInCU: 0x1E949, offset: 0x5C2DC, size: 0x8, addend: 0x0, symName: __ZNSt3__15equalB8ue170006INS_11__wrap_iterIPKN8nlohmann16json_abi_v3_11_310basic_jsonINS_3mapENS_6vectorENS_12basic_stringIcNS_11char_traitsIcEENS_9allocatorIcEEEEbxydSA_NS3_14adl_serializerENS6_IhNSA_IhEEEEvEEEESJ_NS_10__equal_toEEEbT_SL_T0_T1_, symObjAddr: 0x2AFD0, symBinAddr: 0x100033CC0, symSize: 0x70 }
  - { offsetInCU: 0x1E9BA, offset: 0x5C34D, size: 0x8, addend: 0x0, symName: __ZNSt3__117__equal_iter_implB8ue170006IPKN8nlohmann16json_abi_v3_11_310basic_jsonINS_3mapENS_6vectorENS_12basic_stringIcNS_11char_traitsIcEENS_9allocatorIcEEEEbxydS9_NS2_14adl_serializerENS5_IhNS9_IhEEEEvEESH_NS_10__equal_toEEEbT_SJ_T0_RT1_, symObjAddr: 0x2B040, symBinAddr: 0x100033D30, symSize: 0x80 }
  - { offsetInCU: 0x1EA2B, offset: 0x5C3BE, size: 0x8, addend: 0x0, symName: __ZNSt3__113__unwrap_iterB8ue170006INS_11__wrap_iterIPKN8nlohmann16json_abi_v3_11_310basic_jsonINS_3mapENS_6vectorENS_12basic_stringIcNS_11char_traitsIcEENS_9allocatorIcEEEEbxydSA_NS3_14adl_serializerENS6_IhNSA_IhEEEEvEEEENS_18__unwrap_iter_implISJ_Lb1EEELi0EEEDTclsrT0_8__unwrapclsr3stdE7declvalIT_EEEESN_, symObjAddr: 0x2B0C0, symBinAddr: 0x100033DB0, symSize: 0x30 }
  - { offsetInCU: 0x1EB2E, offset: 0x5C4C1, size: 0x8, addend: 0x0, symName: __ZNSt3__112__to_addressB8ue170006INS_11__wrap_iterIPKN8nlohmann16json_abi_v3_11_310basic_jsonINS_3mapENS_6vectorENS_12basic_stringIcNS_11char_traitsIcEENS_9allocatorIcEEEEbxydSA_NS3_14adl_serializerENS6_IhNSA_IhEEEEvEEEEvEEu7__decayIDTclsr19__to_address_helperIT_EE6__callclsr3stdE7declvalIRKSK_EEEEESM_, symObjAddr: 0x2B140, symBinAddr: 0x100033E30, symSize: 0x20 }
  - { offsetInCU: 0x1EC09, offset: 0x5C59C, size: 0x8, addend: 0x0, symName: __ZNSt3__112__to_addressB8ue170006IKN8nlohmann16json_abi_v3_11_310basic_jsonINS_3mapENS_6vectorENS_12basic_stringIcNS_11char_traitsIcEENS_9allocatorIcEEEEbxydS9_NS2_14adl_serializerENS5_IhNS9_IhEEEEvEEEEPT_SI_, symObjAddr: 0x2B1C0, symBinAddr: 0x100033EB0, symSize: 0x10 }
  - { offsetInCU: 0x1EC3E, offset: 0x5C5D1, size: 0x8, addend: 0x0, symName: __ZNSt3__15equalB8ue170006INS_20__map_const_iteratorINS_21__tree_const_iteratorINS_12__value_typeINS_12basic_stringIcNS_11char_traitsIcEENS_9allocatorIcEEEEN8nlohmann16json_abi_v3_11_310basic_jsonINS_3mapENS_6vectorES9_bxydS7_NSB_14adl_serializerENSE_IhNS7_IhEEEEvEEEEPNS_11__tree_nodeISJ_PvEElEEEESP_EEbT_SQ_T0_, symObjAddr: 0x2B1D0, symBinAddr: 0x100033EC0, symSize: 0x50 }
  - { offsetInCU: 0x1EC98, offset: 0x5C62B, size: 0x8, addend: 0x0, symName: __ZNSt3__15equalB8ue170006INS_20__map_const_iteratorINS_21__tree_const_iteratorINS_12__value_typeINS_12basic_stringIcNS_11char_traitsIcEENS_9allocatorIcEEEEN8nlohmann16json_abi_v3_11_310basic_jsonINS_3mapENS_6vectorES9_bxydS7_NSB_14adl_serializerENSE_IhNS7_IhEEEEvEEEEPNS_11__tree_nodeISJ_PvEElEEEESP_NS_10__equal_toEEEbT_SR_T0_T1_, symObjAddr: 0x2B220, symBinAddr: 0x100033F10, symSize: 0x80 }
  - { offsetInCU: 0x1ED09, offset: 0x5C69C, size: 0x8, addend: 0x0, symName: __ZNSt3__117__equal_iter_implB8ue170006INS_20__map_const_iteratorINS_21__tree_const_iteratorINS_12__value_typeINS_12basic_stringIcNS_11char_traitsIcEENS_9allocatorIcEEEEN8nlohmann16json_abi_v3_11_310basic_jsonINS_3mapENS_6vectorES9_bxydS7_NSB_14adl_serializerENSE_IhNS7_IhEEEEvEEEEPNS_11__tree_nodeISJ_PvEElEEEESP_NS_10__equal_toEEEbT_SR_T0_RT1_, symObjAddr: 0x2B2A0, symBinAddr: 0x100033F90, symSize: 0xA0 }
  - { offsetInCU: 0x1ED7A, offset: 0x5C70D, size: 0x8, addend: 0x0, symName: __ZNSt3__113__unwrap_iterB8ue170006INS_20__map_const_iteratorINS_21__tree_const_iteratorINS_12__value_typeINS_12basic_stringIcNS_11char_traitsIcEENS_9allocatorIcEEEEN8nlohmann16json_abi_v3_11_310basic_jsonINS_3mapENS_6vectorES9_bxydS7_NSB_14adl_serializerENSE_IhNS7_IhEEEEvEEEEPNS_11__tree_nodeISJ_PvEElEEEENS_18__unwrap_iter_implISP_Lb0EEELi0EEEDTclsrT0_8__unwrapclsr3stdE7declvalIT_EEEEST_, symObjAddr: 0x2B340, symBinAddr: 0x100034030, symSize: 0x30 }
  - { offsetInCU: 0x1EDBD, offset: 0x5C750, size: 0x8, addend: 0x0, symName: __ZNSt3__1eqB8ue170006IKNS_12basic_stringIcNS_11char_traitsIcEENS_9allocatorIcEEEEN8nlohmann16json_abi_v3_11_310basic_jsonINS_3mapENS_6vectorES6_bxydS4_NS9_14adl_serializerENSC_IhNS4_IhEEEEvEES7_SG_EEbRKNS_4pairIT_T0_EERKNSH_IT1_T2_EE, symObjAddr: 0x2B3D0, symBinAddr: 0x100034090, symSize: 0x60 }
  - { offsetInCU: 0x1EE66, offset: 0x5C7F9, size: 0x8, addend: 0x0, symName: __ZNSt3__1eqB8ue170006IJRKNS_6vectorIhNS_9allocatorIhEEEERKyRKbEJS6_S8_SA_EEEbRKNS_5tupleIJDpT_EEERKNSB_IJDpT0_EEE, symObjAddr: 0x2B450, symBinAddr: 0x100034110, symSize: 0x30 }
  - { offsetInCU: 0x1EECD, offset: 0x5C860, size: 0x8, addend: 0x0, symName: __ZNSt3__13tieB8ue170006IJKNS_6vectorIhNS_9allocatorIhEEEEKyKbEEENS_5tupleIJDpRT_EEESB_, symObjAddr: 0x2B480, symBinAddr: 0x100034140, symSize: 0x40 }
  - { offsetInCU: 0x1F4E8, offset: 0x5CE7B, size: 0x8, addend: 0x0, symName: __ZNSt3__13getB8ue170006ILm2EJRKNS_6vectorIhNS_9allocatorIhEEEERKyRKbEEERKNS_13tuple_elementIXT_ENS_5tupleIJDpT0_EEEE4typeERKSF_, symObjAddr: 0x2B5C0, symBinAddr: 0x100034280, symSize: 0x20 }
  - { offsetInCU: 0x1F57C, offset: 0x5CF0F, size: 0x8, addend: 0x0, symName: __ZNSt3__13getB8ue170006ILm1EJRKNS_6vectorIhNS_9allocatorIhEEEERKyRKbEEERKNS_13tuple_elementIXT_ENS_5tupleIJDpT0_EEEE4typeERKSF_, symObjAddr: 0x2B650, symBinAddr: 0x100034310, symSize: 0x20 }
  - { offsetInCU: 0x1F610, offset: 0x5CFA3, size: 0x8, addend: 0x0, symName: __ZNSt3__1eqB8ue170006IhNS_9allocatorIhEEEEbRKNS_6vectorIT_T0_EES8_, symObjAddr: 0x2B690, symBinAddr: 0x100034350, symSize: 0x90 }
  - { offsetInCU: 0x1F66E, offset: 0x5D001, size: 0x8, addend: 0x0, symName: __ZNSt3__13getB8ue170006ILm0EJRKNS_6vectorIhNS_9allocatorIhEEEERKyRKbEEERKNS_13tuple_elementIXT_ENS_5tupleIJDpT0_EEEE4typeERKSF_, symObjAddr: 0x2B720, symBinAddr: 0x1000343E0, symSize: 0x20 }
  - { offsetInCU: 0x1F6BC, offset: 0x5D04F, size: 0x8, addend: 0x0, symName: __ZNSt3__15equalB8ue170006INS_11__wrap_iterIPKhEES4_EEbT_S5_T0_, symObjAddr: 0x2B740, symBinAddr: 0x100034400, symSize: 0x50 }
  - { offsetInCU: 0x1F716, offset: 0x5D0A9, size: 0x8, addend: 0x0, symName: __ZNSt3__15equalB8ue170006INS_11__wrap_iterIPKhEES4_NS_10__equal_toEEEbT_S6_T0_T1_, symObjAddr: 0x2B790, symBinAddr: 0x100034450, symSize: 0x70 }
  - { offsetInCU: 0x1F787, offset: 0x5D11A, size: 0x8, addend: 0x0, symName: __ZNSt3__117__equal_iter_implB8ue170006IKhS1_NS_10__equal_toELi0EEEbPT_S4_PT0_RT1_, symObjAddr: 0x2B800, symBinAddr: 0x1000344C0, symSize: 0x40 }
  - { offsetInCU: 0x1F7FB, offset: 0x5D18E, size: 0x8, addend: 0x0, symName: __ZNSt3__113__unwrap_iterB8ue170006INS_11__wrap_iterIPKhEENS_18__unwrap_iter_implIS4_Lb1EEELi0EEEDTclsrT0_8__unwrapclsr3stdE7declvalIT_EEEES8_, symObjAddr: 0x2B840, symBinAddr: 0x100034500, symSize: 0x30 }
  - { offsetInCU: 0x1F83F, offset: 0x5D1D2, size: 0x8, addend: 0x0, symName: __ZNSt3__124__constexpr_memcmp_equalB8ue170006IhhEEbPKT_PKT0_NS_15__element_countE, symObjAddr: 0x2B870, symBinAddr: 0x100034530, symSize: 0x50 }
  - { offsetInCU: 0x1F8FA, offset: 0x5D28D, size: 0x8, addend: 0x0, symName: __ZNSt3__112__to_addressB8ue170006INS_11__wrap_iterIPKhEEvEEu7__decayIDTclsr19__to_address_helperIT_EE6__callclsr3stdE7declvalIRKS5_EEEEES7_, symObjAddr: 0x2B8E0, symBinAddr: 0x1000345A0, symSize: 0x20 }
  - { offsetInCU: 0x1F9D5, offset: 0x5D368, size: 0x8, addend: 0x0, symName: __ZNSt3__112__to_addressB8ue170006IKhEEPT_S3_, symObjAddr: 0x2B960, symBinAddr: 0x100034620, symSize: 0x10 }
  - { offsetInCU: 0x1FA28, offset: 0x5D3BB, size: 0x8, addend: 0x0, symName: __ZNSt3__111make_sharedB8ue170006IN8nlohmann16json_abi_v3_11_36detail21output_stream_adapterIcEEJRNS_13basic_ostreamIcNS_11char_traitsIcEEEEEvEENS_10shared_ptrIT_EEDpOT0_, symObjAddr: 0x2F350, symBinAddr: 0x100034D80, symSize: 0x40 }
  - { offsetInCU: 0x1FC87, offset: 0x5D61A, size: 0x8, addend: 0x0, symName: __ZNSt3__115allocate_sharedB8ue170006IN8nlohmann16json_abi_v3_11_36detail21output_stream_adapterIcEENS_9allocatorIS5_EEJRNS_13basic_ostreamIcNS_11char_traitsIcEEEEEvEENS_10shared_ptrIT_EERKT0_DpOT1_, symObjAddr: 0x2F3E0, symBinAddr: 0x100034E10, symSize: 0xB0 }
  - { offsetInCU: 0x217E7, offset: 0x5F17A, size: 0x8, addend: 0x0, symName: __ZNSt3__16vectorIcNS_9allocatorIcEEE26__swap_out_circular_bufferERNS_14__split_bufferIcRS2_EE, symObjAddr: 0x14460, symBinAddr: 0x10001ED90, symSize: 0x120 }
  - { offsetInCU: 0x21B5F, offset: 0x5F4F2, size: 0x8, addend: 0x0, symName: __ZNSt3__16vectorIPN8nlohmann16json_abi_v3_11_310basic_jsonINS_3mapES0_NS_12basic_stringIcNS_11char_traitsIcEENS_9allocatorIcEEEEbxydS8_NS2_14adl_serializerENS0_IhNS8_IhEEEEvEENS8_ISF_EEE26__swap_out_circular_bufferERNS_14__split_bufferISF_RSG_EE, symObjAddr: 0x1E070, symBinAddr: 0x1000289A0, symSize: 0x120 }
  - { offsetInCU: 0x23B98, offset: 0x6152B, size: 0x8, addend: 0x0, symName: __ZN10tools_file14createJsonFileENSt3__112basic_stringIcNS0_11char_traitsIcEENS0_9allocatorIcEEEEN8nlohmann16json_abi_v3_11_310basic_jsonINS0_3mapENS0_6vectorES6_bxydS4_NS8_14adl_serializerENSB_IhNS4_IhEEEEvEE, symObjAddr: 0x0, symBinAddr: 0x1000192F0, symSize: 0x190 }
  - { offsetInCU: 0x23BE1, offset: 0x61574, size: 0x8, addend: 0x0, symName: __ZN10tools_file12readJsonFileENSt3__112basic_stringIcNS0_11char_traitsIcEENS0_9allocatorIcEEEE, symObjAddr: 0x680, symBinAddr: 0x1000196D0, symSize: 0x190 }
  - { offsetInCU: 0x23CE0, offset: 0x61673, size: 0x8, addend: 0x0, symName: __ZNSt3__114basic_ofstreamIcNS_11char_traitsIcEEEC1ERKNS_12basic_stringIcS2_NS_9allocatorIcEEEEj, symObjAddr: 0x190, symBinAddr: 0x100019480, symSize: 0x160 }
  - { offsetInCU: 0x23D2A, offset: 0x616BD, size: 0x8, addend: 0x0, symName: __ZNKSt3__19basic_iosIcNS_11char_traitsIcEEEcvbB8ue170006Ev, symObjAddr: 0x2F0, symBinAddr: 0x1000195E0, symSize: 0x30 }
  - { offsetInCU: 0x23D50, offset: 0x616E3, size: 0x8, addend: 0x0, symName: __ZNKSt3__114basic_ofstreamIcNS_11char_traitsIcEEE7is_openEv, symObjAddr: 0x320, symBinAddr: 0x100019610, symSize: 0x30 }
  - { offsetInCU: 0x23D78, offset: 0x6170B, size: 0x8, addend: 0x0, symName: __ZNSt3__114basic_ofstreamIcNS_11char_traitsIcEEE5closeEv, symObjAddr: 0x5F0, symBinAddr: 0x100019640, symSize: 0x50 }
  - { offsetInCU: 0x23DA6, offset: 0x61739, size: 0x8, addend: 0x0, symName: __ZNSt3__114basic_ofstreamIcNS_11char_traitsIcEEED1Ev, symObjAddr: 0x640, symBinAddr: 0x100019690, symSize: 0x40 }
  - { offsetInCU: 0x23DF0, offset: 0x61783, size: 0x8, addend: 0x0, symName: __ZNSt3__114basic_ifstreamIcNS_11char_traitsIcEEEC1ERKNS_12basic_stringIcS2_NS_9allocatorIcEEEEj, symObjAddr: 0x810, symBinAddr: 0x100019860, symSize: 0x160 }
  - { offsetInCU: 0x23E3A, offset: 0x617CD, size: 0x8, addend: 0x0, symName: __ZN8nlohmann16json_abi_v3_11_310basic_jsonINSt3__13mapENS2_6vectorENS2_12basic_stringIcNS2_11char_traitsIcEENS2_9allocatorIcEEEEbxydS8_NS0_14adl_serializerENS4_IhNS8_IhEEEEvEC1EDn, symObjAddr: 0x970, symBinAddr: 0x1000199C0, symSize: 0x40 }
  - { offsetInCU: 0x23E70, offset: 0x61803, size: 0x8, addend: 0x0, symName: __ZNKSt3__114basic_ifstreamIcNS_11char_traitsIcEEE7is_openEv, symObjAddr: 0x9B0, symBinAddr: 0x100019A00, symSize: 0x30 }
  - { offsetInCU: 0x23E98, offset: 0x6182B, size: 0x8, addend: 0x0, symName: __ZNSt3__114basic_ifstreamIcNS_11char_traitsIcEEE5closeEv, symObjAddr: 0xB40, symBinAddr: 0x100019B90, symSize: 0x50 }
  - { offsetInCU: 0x23EC6, offset: 0x61859, size: 0x8, addend: 0x0, symName: __ZNSt3__114basic_ifstreamIcNS_11char_traitsIcEEED1Ev, symObjAddr: 0xBB0, symBinAddr: 0x100019BE0, symSize: 0x40 }
  - { offsetInCU: 0x23EF8, offset: 0x6188B, size: 0x8, addend: 0x0, symName: __ZN10validation9emaiExistENSt3__112basic_stringIcNS0_11char_traitsIcEENS0_9allocatorIcEEEEN8nlohmann16json_abi_v3_11_310basic_jsonINS0_3mapENS0_6vectorES6_bxydS4_NS8_14adl_serializerENSB_IhNS4_IhEEEEvEE, symObjAddr: 0xBF0, symBinAddr: 0x100019C20, symSize: 0x20 }
  - { offsetInCU: 0x23F34, offset: 0x618C7, size: 0x8, addend: 0x0, symName: __ZN10validation11numberExistENSt3__112basic_stringIcNS0_11char_traitsIcEENS0_9allocatorIcEEEEN8nlohmann16json_abi_v3_11_310basic_jsonINS0_3mapENS0_6vectorES6_bxydS4_NS8_14adl_serializerENSB_IhNS4_IhEEEEvEE, symObjAddr: 0xC10, symBinAddr: 0x100019C40, symSize: 0x20 }
  - { offsetInCU: 0x23F70, offset: 0x61903, size: 0x8, addend: 0x0, symName: __ZN10validation13passwordCheckENSt3__112basic_stringIcNS0_11char_traitsIcEENS0_9allocatorIcEEEEN8nlohmann16json_abi_v3_11_310basic_jsonINS0_3mapENS0_6vectorES6_bxydS4_NS8_14adl_serializerENSB_IhNS4_IhEEEEvEE, symObjAddr: 0xC30, symBinAddr: 0x100019C60, symSize: 0x20 }
  - { offsetInCU: 0x23FAC, offset: 0x6193F, size: 0x8, addend: 0x0, symName: __ZN10validation8idUniqueEmN8nlohmann16json_abi_v3_11_310basic_jsonINSt3__13mapENS3_6vectorENS3_12basic_stringIcNS3_11char_traitsIcEENS3_9allocatorIcEEEEbxydS9_NS1_14adl_serializerENS5_IhNS9_IhEEEEvEE, symObjAddr: 0xC50, symBinAddr: 0x100019C80, symSize: 0xB0 }
  - { offsetInCU: 0x24012, offset: 0x619A5, size: 0x8, addend: 0x0, symName: __ZNK8nlohmann16json_abi_v3_11_310basic_jsonINSt3__13mapENS2_6vectorENS2_12basic_stringIcNS2_11char_traitsIcEENS2_9allocatorIcEEEEbxydS8_NS0_14adl_serializerENS4_IhNS8_IhEEEEvE6cbeginEv, symObjAddr: 0xD00, symBinAddr: 0x100019D30, symSize: 0x40 }
  - { offsetInCU: 0x24048, offset: 0x619DB, size: 0x8, addend: 0x0, symName: __ZNK8nlohmann16json_abi_v3_11_36detail9iter_implIKNS0_10basic_jsonINSt3__13mapENS4_6vectorENS4_12basic_stringIcNS4_11char_traitsIcEENS4_9allocatorIcEEEEbxydSA_NS0_14adl_serializerENS6_IhNSA_IhEEEEvEEEneISI_LDn0EEEbRKT_, symObjAddr: 0xD40, symBinAddr: 0x100019D70, symSize: 0x30 }
  - { offsetInCU: 0x2408C, offset: 0x61A1F, size: 0x8, addend: 0x0, symName: __ZNK8nlohmann16json_abi_v3_11_310basic_jsonINSt3__13mapENS2_6vectorENS2_12basic_stringIcNS2_11char_traitsIcEENS2_9allocatorIcEEEEbxydS8_NS0_14adl_serializerENS4_IhNS8_IhEEEEvE4cendEv, symObjAddr: 0xD70, symBinAddr: 0x100019DA0, symSize: 0x40 }
  - { offsetInCU: 0x240C2, offset: 0x61A55, size: 0x8, addend: 0x0, symName: __ZNK8nlohmann16json_abi_v3_11_36detail9iter_implIKNS0_10basic_jsonINSt3__13mapENS4_6vectorENS4_12basic_stringIcNS4_11char_traitsIcEENS4_9allocatorIcEEEEbxydSA_NS0_14adl_serializerENS6_IhNSA_IhEEEEvEEEptEv, symObjAddr: 0xE00, symBinAddr: 0x100019E30, symSize: 0x290 }
  - { offsetInCU: 0x240F3, offset: 0x61A86, size: 0x8, addend: 0x0, symName: __ZNK8nlohmann16json_abi_v3_11_310basic_jsonINSt3__13mapENS2_6vectorENS2_12basic_stringIcNS2_11char_traitsIcEENS2_9allocatorIcEEEEbxydS8_NS0_14adl_serializerENS4_IhNS8_IhEEEEvE2atIRA3_KcLi0EEERKSE_OT_, symObjAddr: 0x1090, symBinAddr: 0x10001A0C0, symSize: 0x260 }
  - { offsetInCU: 0x24147, offset: 0x61ADA, size: 0x8, addend: 0x0, symName: __ZN8nlohmann16json_abi_v3_11_36detail9iter_implIKNS0_10basic_jsonINSt3__13mapENS4_6vectorENS4_12basic_stringIcNS4_11char_traitsIcEENS4_9allocatorIcEEEEbxydSA_NS0_14adl_serializerENS6_IhNSA_IhEEEEvEEEppEv, symObjAddr: 0x12F0, symBinAddr: 0x10001A320, symSize: 0x100 }
  - { offsetInCU: 0x24172, offset: 0x61B05, size: 0x8, addend: 0x0, symName: __ZN13sql_extension10primaryKeyEN8nlohmann16json_abi_v3_11_310basic_jsonINSt3__13mapENS3_6vectorENS3_12basic_stringIcNS3_11char_traitsIcEENS3_9allocatorIcEEEEbxydS9_NS1_14adl_serializerENS5_IhNS9_IhEEEEvEE, symObjAddr: 0x13F0, symBinAddr: 0x10001A420, symSize: 0x160 }
  - { offsetInCU: 0x241D1, offset: 0x61B64, size: 0x8, addend: 0x0, symName: __ZNK8nlohmann16json_abi_v3_11_310basic_jsonINSt3__13mapENS2_6vectorENS2_12basic_stringIcNS2_11char_traitsIcEENS2_9allocatorIcEEEEbxydS8_NS0_14adl_serializerENS4_IhNS8_IhEEEEvE5emptyEv, symObjAddr: 0x1570, symBinAddr: 0x10001A580, symSize: 0xB0 }
  - { offsetInCU: 0x241F7, offset: 0x61B8A, size: 0x8, addend: 0x0, symName: __ZN8nlohmann16json_abi_v3_11_310basic_jsonINSt3__13mapENS2_6vectorENS2_12basic_stringIcNS2_11char_traitsIcEENS2_9allocatorIcEEEEbxydS8_NS0_14adl_serializerENS4_IhNS8_IhEEEEvE4backEv, symObjAddr: 0x1620, symBinAddr: 0x10001A630, symSize: 0x40 }
  - { offsetInCU: 0x2422C, offset: 0x61BBF, size: 0x8, addend: 0x0, symName: __ZNK8nlohmann16json_abi_v3_11_310basic_jsonINSt3__13mapENS2_6vectorENS2_12basic_stringIcNS2_11char_traitsIcEENS2_9allocatorIcEEEEbxydS8_NS0_14adl_serializerENS4_IhNS8_IhEEEEvE8containsIRA3_KcLi0EEEbOT_, symObjAddr: 0x1690, symBinAddr: 0x10001A670, symSize: 0x80 }
  - { offsetInCU: 0x24270, offset: 0x61C03, size: 0x8, addend: 0x0, symName: __ZN8nlohmann16json_abi_v3_11_310basic_jsonINSt3__13mapENS2_6vectorENS2_12basic_stringIcNS2_11char_traitsIcEENS2_9allocatorIcEEEEbxydS8_NS0_14adl_serializerENS4_IhNS8_IhEEEEvE2atIRA3_KcLi0EEERSE_OT_, symObjAddr: 0x1710, symBinAddr: 0x10001A6F0, symSize: 0x280 }
  - { offsetInCU: 0x242C4, offset: 0x61C57, size: 0x8, addend: 0x0, symName: __ZNK8nlohmann16json_abi_v3_11_310basic_jsonINSt3__13mapENS2_6vectorENS2_12basic_stringIcNS2_11char_traitsIcEENS2_9allocatorIcEEEEbxydS8_NS0_14adl_serializerENS4_IhNS8_IhEEEEvE3getImmEEDTcldtclL_ZNS2_7declvalIRKSE_EEDTclsr3stdE9__declvalIT_ELi0EEEvEE8get_implIT0_EtlNS0_6detail12priority_tagILj4EEEEEEv, symObjAddr: 0x1990, symBinAddr: 0x10001A970, symSize: 0x20 }
  - { offsetInCU: 0x242FC, offset: 0x61C8F, size: 0x8, addend: 0x0, symName: __ZNSt3__113basic_ostreamIcNS_11char_traitsIcEEElsB8ue170006EPFRS3_S4_E, symObjAddr: 0x1BC0, symBinAddr: 0x10001ABA0, symSize: 0x20 }
  - { offsetInCU: 0x24330, offset: 0x61CC3, size: 0x8, addend: 0x0, symName: __ZNSt3__114basic_ofstreamIcNS_11char_traitsIcEEED2Ev, symObjAddr: 0x1C30, symBinAddr: 0x10001AC10, symSize: 0x60 }
  - { offsetInCU: 0x2436A, offset: 0x61CFD, size: 0x8, addend: 0x0, symName: __ZTv0_n24_NSt3__114basic_ofstreamIcNS_11char_traitsIcEEED1Ev, symObjAddr: 0x1C90, symBinAddr: 0x10001AC70, symSize: 0x20 }
  - { offsetInCU: 0x24381, offset: 0x61D14, size: 0x8, addend: 0x0, symName: __ZNSt3__114basic_ifstreamIcNS_11char_traitsIcEEED2Ev, symObjAddr: 0x1CB0, symBinAddr: 0x10001AC90, symSize: 0x60 }
  - { offsetInCU: 0x243BB, offset: 0x61D4E, size: 0x8, addend: 0x0, symName: __ZTv0_n24_NSt3__114basic_ifstreamIcNS_11char_traitsIcEEED1Ev, symObjAddr: 0x1D10, symBinAddr: 0x10001ACF0, symSize: 0x20 }
  - { offsetInCU: 0x243D2, offset: 0x61D65, size: 0x8, addend: 0x0, symName: __ZNK8nlohmann16json_abi_v3_11_310basic_jsonINSt3__13mapENS2_6vectorENS2_12basic_stringIcNS2_11char_traitsIcEENS2_9allocatorIcEEEEbxydS8_NS0_14adl_serializerENS4_IhNS8_IhEEEEvE8get_implImLi0EEET_NS0_6detail12priority_tagILj0EEE, symObjAddr: 0x1D30, symBinAddr: 0x10001AD10, symSize: 0x30 }
  - { offsetInCU: 0x24422, offset: 0x61DB5, size: 0x8, addend: 0x0, symName: __ZN8nlohmann16json_abi_v3_11_314adl_serializerImvE9from_jsonIRKNS0_10basic_jsonINSt3__13mapENS5_6vectorENS5_12basic_stringIcNS5_11char_traitsIcEENS5_9allocatorIcEEEEbxydSB_S1_NS7_IhNSB_IhEEEEvEEmEEDTcmclL_ZNS0_9from_jsonEEclsr3stdE7forwardIT_Efp_Efp0_Ecvv_EEOSJ_RT0_, symObjAddr: 0x1D60, symBinAddr: 0x10001AD40, symSize: 0x30 }
  - { offsetInCU: 0x2446D, offset: 0x61E00, size: 0x8, addend: 0x0, symName: __ZNK8nlohmann16json_abi_v3_11_36detail12from_json_fnclINS0_10basic_jsonINSt3__13mapENS5_6vectorENS5_12basic_stringIcNS5_11char_traitsIcEENS5_9allocatorIcEEEEbxydSB_NS0_14adl_serializerENS7_IhNSB_IhEEEEvEERmEEDTcl9from_jsonfp_clsr3stdE7forwardIT0_Efp0_EEERKT_OSJ_, symObjAddr: 0x1D90, symBinAddr: 0x10001AD70, symSize: 0x30 }
  - { offsetInCU: 0x244C3, offset: 0x61E56, size: 0x8, addend: 0x0, symName: __ZNK8nlohmann16json_abi_v3_11_310basic_jsonINSt3__13mapENS2_6vectorENS2_12basic_stringIcNS2_11char_traitsIcEENS2_9allocatorIcEEEEbxydS8_NS0_14adl_serializerENS4_IhNS8_IhEEEEvEcvNS0_6detail7value_tEEv, symObjAddr: 0x1F80, symBinAddr: 0x10001AF60, symSize: 0x20 }
  - { offsetInCU: 0x244E9, offset: 0x61E7C, size: 0x8, addend: 0x0, symName: __ZNK8nlohmann16json_abi_v3_11_310basic_jsonINSt3__13mapENS2_6vectorENS2_12basic_stringIcNS2_11char_traitsIcEENS2_9allocatorIcEEEEbxydS8_NS0_14adl_serializerENS4_IhNS8_IhEEEEvE7get_ptrIPKyLi0EEEDTcldtclL_ZNS2_7declvalIRKSE_EEDTclsr3stdE9__declvalIT_ELi0EEEvEE12get_impl_ptrclsr3stdE7declvalISL_EEEEv, symObjAddr: 0x1FA0, symBinAddr: 0x10001AF80, symSize: 0x20 }
  - { offsetInCU: 0x2451E, offset: 0x61EB1, size: 0x8, addend: 0x0, symName: __ZNK8nlohmann16json_abi_v3_11_310basic_jsonINSt3__13mapENS2_6vectorENS2_12basic_stringIcNS2_11char_traitsIcEENS2_9allocatorIcEEEEbxydS8_NS0_14adl_serializerENS4_IhNS8_IhEEEEvE7get_ptrIPKxLi0EEEDTcldtclL_ZNS2_7declvalIRKSE_EEDTclsr3stdE9__declvalIT_ELi0EEEvEE12get_impl_ptrclsr3stdE7declvalISL_EEEEv, symObjAddr: 0x1FC0, symBinAddr: 0x10001AFA0, symSize: 0x20 }
  - { offsetInCU: 0x24553, offset: 0x61EE6, size: 0x8, addend: 0x0, symName: __ZNK8nlohmann16json_abi_v3_11_310basic_jsonINSt3__13mapENS2_6vectorENS2_12basic_stringIcNS2_11char_traitsIcEENS2_9allocatorIcEEEEbxydS8_NS0_14adl_serializerENS4_IhNS8_IhEEEEvE7get_ptrIPKdLi0EEEDTcldtclL_ZNS2_7declvalIRKSE_EEDTclsr3stdE9__declvalIT_ELi0EEEvEE12get_impl_ptrclsr3stdE7declvalISL_EEEEv, symObjAddr: 0x1FE0, symBinAddr: 0x10001AFC0, symSize: 0x20 }
  - { offsetInCU: 0x24588, offset: 0x61F1B, size: 0x8, addend: 0x0, symName: __ZNK8nlohmann16json_abi_v3_11_310basic_jsonINSt3__13mapENS2_6vectorENS2_12basic_stringIcNS2_11char_traitsIcEENS2_9allocatorIcEEEEbxydS8_NS0_14adl_serializerENS4_IhNS8_IhEEEEvE7get_ptrIPKbLi0EEEDTcldtclL_ZNS2_7declvalIRKSE_EEDTclsr3stdE9__declvalIT_ELi0EEEvEE12get_impl_ptrclsr3stdE7declvalISL_EEEEv, symObjAddr: 0x2000, symBinAddr: 0x10001AFE0, symSize: 0x20 }
  - { offsetInCU: 0x245CE, offset: 0x61F61, size: 0x8, addend: 0x0, symName: __ZNK8nlohmann16json_abi_v3_11_310basic_jsonINSt3__13mapENS2_6vectorENS2_12basic_stringIcNS2_11char_traitsIcEENS2_9allocatorIcEEEEbxydS8_NS0_14adl_serializerENS4_IhNS8_IhEEEEvE12get_impl_ptrEPKy, symObjAddr: 0x2330, symBinAddr: 0x10001B000, symSize: 0x50 }
  - { offsetInCU: 0x24600, offset: 0x61F93, size: 0x8, addend: 0x0, symName: __ZNK8nlohmann16json_abi_v3_11_310basic_jsonINSt3__13mapENS2_6vectorENS2_12basic_stringIcNS2_11char_traitsIcEENS2_9allocatorIcEEEEbxydS8_NS0_14adl_serializerENS4_IhNS8_IhEEEEvE18is_number_unsignedEv, symObjAddr: 0x2380, symBinAddr: 0x10001B050, symSize: 0x20 }
  - { offsetInCU: 0x24626, offset: 0x61FB9, size: 0x8, addend: 0x0, symName: __ZNK8nlohmann16json_abi_v3_11_310basic_jsonINSt3__13mapENS2_6vectorENS2_12basic_stringIcNS2_11char_traitsIcEENS2_9allocatorIcEEEEbxydS8_NS0_14adl_serializerENS4_IhNS8_IhEEEEvE12get_impl_ptrEPKx, symObjAddr: 0x23A0, symBinAddr: 0x10001B070, symSize: 0x50 }
  - { offsetInCU: 0x24658, offset: 0x61FEB, size: 0x8, addend: 0x0, symName: __ZNK8nlohmann16json_abi_v3_11_310basic_jsonINSt3__13mapENS2_6vectorENS2_12basic_stringIcNS2_11char_traitsIcEENS2_9allocatorIcEEEEbxydS8_NS0_14adl_serializerENS4_IhNS8_IhEEEEvE17is_number_integerEv, symObjAddr: 0x23F0, symBinAddr: 0x10001B0C0, symSize: 0x40 }
  - { offsetInCU: 0x2467E, offset: 0x62011, size: 0x8, addend: 0x0, symName: __ZNK8nlohmann16json_abi_v3_11_310basic_jsonINSt3__13mapENS2_6vectorENS2_12basic_stringIcNS2_11char_traitsIcEENS2_9allocatorIcEEEEbxydS8_NS0_14adl_serializerENS4_IhNS8_IhEEEEvE12get_impl_ptrEPKd, symObjAddr: 0x2430, symBinAddr: 0x10001B100, symSize: 0x50 }
  - { offsetInCU: 0x246B0, offset: 0x62043, size: 0x8, addend: 0x0, symName: __ZNK8nlohmann16json_abi_v3_11_310basic_jsonINSt3__13mapENS2_6vectorENS2_12basic_stringIcNS2_11char_traitsIcEENS2_9allocatorIcEEEEbxydS8_NS0_14adl_serializerENS4_IhNS8_IhEEEEvE15is_number_floatEv, symObjAddr: 0x2480, symBinAddr: 0x10001B150, symSize: 0x20 }
  - { offsetInCU: 0x246D6, offset: 0x62069, size: 0x8, addend: 0x0, symName: __ZNK8nlohmann16json_abi_v3_11_310basic_jsonINSt3__13mapENS2_6vectorENS2_12basic_stringIcNS2_11char_traitsIcEENS2_9allocatorIcEEEEbxydS8_NS0_14adl_serializerENS4_IhNS8_IhEEEEvE12get_impl_ptrEPKb, symObjAddr: 0x24A0, symBinAddr: 0x10001B170, symSize: 0x50 }
  - { offsetInCU: 0x24708, offset: 0x6209B, size: 0x8, addend: 0x0, symName: __ZNK8nlohmann16json_abi_v3_11_310basic_jsonINSt3__13mapENS2_6vectorENS2_12basic_stringIcNS2_11char_traitsIcEENS2_9allocatorIcEEEEbxydS8_NS0_14adl_serializerENS4_IhNS8_IhEEEEvE10is_booleanEv, symObjAddr: 0x24F0, symBinAddr: 0x10001B1C0, symSize: 0x20 }
  - { offsetInCU: 0x247C4, offset: 0x62157, size: 0x8, addend: 0x0, symName: __ZNSt3__19basic_iosIcNS_11char_traitsIcEEEC2B8ue170006Ev, symObjAddr: 0x7850, symBinAddr: 0x10001B1E0, symSize: 0x40 }
  - { offsetInCU: 0x247EE, offset: 0x62181, size: 0x8, addend: 0x0, symName: __ZNSt3__113basic_ostreamIcNS_11char_traitsIcEEEC2B8ue170006EPNS_15basic_streambufIcS2_EE, symObjAddr: 0x7890, symBinAddr: 0x10001B220, symSize: 0x50 }
  - { offsetInCU: 0x24833, offset: 0x621C6, size: 0x8, addend: 0x0, symName: __ZNSt3__113basic_filebufIcNS_11char_traitsIcEEE4openERKNS_12basic_stringIcS2_NS_9allocatorIcEEEEj, symObjAddr: 0x78E0, symBinAddr: 0x10001B270, symSize: 0x40 }
  - { offsetInCU: 0x24877, offset: 0x6220A, size: 0x8, addend: 0x0, symName: __ZNSt3__18ios_baseC2B8ue170006Ev, symObjAddr: 0x7950, symBinAddr: 0x10001B2B0, symSize: 0x20 }
  - { offsetInCU: 0x248A1, offset: 0x62234, size: 0x8, addend: 0x0, symName: __ZNSt3__19basic_iosIcNS_11char_traitsIcEEE4initB8ue170006EPNS_15basic_streambufIcS2_EE, symObjAddr: 0x7970, symBinAddr: 0x10001B2D0, symSize: 0x50 }
  - { offsetInCU: 0x248D8, offset: 0x6226B, size: 0x8, addend: 0x0, symName: __ZNKSt3__113basic_filebufIcNS_11char_traitsIcEEE7is_openEv, symObjAddr: 0x7A00, symBinAddr: 0x10001B320, symSize: 0x20 }
  - { offsetInCU: 0x24900, offset: 0x62293, size: 0x8, addend: 0x0, symName: __ZNKSt3__19basic_iosIcNS_11char_traitsIcEEE4failB8ue170006Ev, symObjAddr: 0x7A20, symBinAddr: 0x10001B340, symSize: 0x20 }
  - { offsetInCU: 0x24926, offset: 0x622B9, size: 0x8, addend: 0x0, symName: __ZNKSt3__18ios_base4failB8ue170006Ev, symObjAddr: 0x7A40, symBinAddr: 0x10001B360, symSize: 0x20 }
  - { offsetInCU: 0x24994, offset: 0x62327, size: 0x8, addend: 0x0, symName: __ZNSt3__113basic_istreamIcNS_11char_traitsIcEEEC2B8ue170006EPNS_15basic_streambufIcS2_EE, symObjAddr: 0xEC40, symBinAddr: 0x10001B380, symSize: 0x50 }
  - { offsetInCU: 0x249D9, offset: 0x6236C, size: 0x8, addend: 0x0, symName: __ZN8nlohmann16json_abi_v3_11_310basic_jsonINSt3__13mapENS2_6vectorENS2_12basic_stringIcNS2_11char_traitsIcEENS2_9allocatorIcEEEEbxydS8_NS0_14adl_serializerENS4_IhNS8_IhEEEEvEC1ENS0_6detail7value_tE, symObjAddr: 0xEC90, symBinAddr: 0x10001B3D0, symSize: 0x30 }
  - { offsetInCU: 0x24A12, offset: 0x623A5, size: 0x8, addend: 0x0, symName: __ZN8nlohmann16json_abi_v3_11_310basic_jsonINSt3__13mapENS2_6vectorENS2_12basic_stringIcNS2_11char_traitsIcEENS2_9allocatorIcEEEEbxydS8_NS0_14adl_serializerENS4_IhNS8_IhEEEEvEC2ENS0_6detail7value_tE, symObjAddr: 0xECC0, symBinAddr: 0x10001B400, symSize: 0x40 }
  - { offsetInCU: 0x24A4B, offset: 0x623DE, size: 0x8, addend: 0x0, symName: __ZN8nlohmann16json_abi_v3_11_310basic_jsonINSt3__13mapENS2_6vectorENS2_12basic_stringIcNS2_11char_traitsIcEENS2_9allocatorIcEEEEbxydS8_NS0_14adl_serializerENS4_IhNS8_IhEEEEvE4dataC1ENS0_6detail7value_tE, symObjAddr: 0xED00, symBinAddr: 0x10001B440, symSize: 0x30 }
  - { offsetInCU: 0x24A84, offset: 0x62417, size: 0x8, addend: 0x0, symName: __ZN8nlohmann16json_abi_v3_11_310basic_jsonINSt3__13mapENS2_6vectorENS2_12basic_stringIcNS2_11char_traitsIcEENS2_9allocatorIcEEEEbxydS8_NS0_14adl_serializerENS4_IhNS8_IhEEEEvE4dataC2ENS0_6detail7value_tE, symObjAddr: 0xED30, symBinAddr: 0x10001B470, symSize: 0x30 }
  - { offsetInCU: 0x24AE3, offset: 0x62476, size: 0x8, addend: 0x0, symName: __ZN8nlohmann16json_abi_v3_11_310basic_jsonINSt3__13mapENS2_6vectorENS2_12basic_stringIcNS2_11char_traitsIcEENS2_9allocatorIcEEEEbxydS8_NS0_14adl_serializerENS4_IhNS8_IhEEEEvE6parserINS0_6detail20input_stream_adapterEEENSG_6parserISE_T_EESJ_NS2_8functionIFbiNSG_13parse_event_tERSE_EEEbb, symObjAddr: 0x10B70, symBinAddr: 0x10001B4A0, symSize: 0xF0 }
  - { offsetInCU: 0x24B43, offset: 0x624D6, size: 0x8, addend: 0x0, symName: __ZNSt3__18functionIFbiN8nlohmann16json_abi_v3_11_36detail13parse_event_tERNS2_10basic_jsonINS_3mapENS_6vectorENS_12basic_stringIcNS_11char_traitsIcEENS_9allocatorIcEEEEbxydSB_NS2_14adl_serializerENS7_IhNSB_IhEEEEvEEEEC1B8ue170006EDn, symObjAddr: 0x10C90, symBinAddr: 0x10001B5C0, symSize: 0x30 }
  - { offsetInCU: 0x24B79, offset: 0x6250C, size: 0x8, addend: 0x0, symName: __ZN8nlohmann16json_abi_v3_11_36detail6parserINS0_10basic_jsonINSt3__13mapENS4_6vectorENS4_12basic_stringIcNS4_11char_traitsIcEENS4_9allocatorIcEEEEbxydSA_NS0_14adl_serializerENS6_IhNSA_IhEEEEvEENS1_20input_stream_adapterEE5parseEbRSG_, symObjAddr: 0x10CC0, symBinAddr: 0x10001B5F0, symSize: 0x730 }
  - { offsetInCU: 0x24BF5, offset: 0x62588, size: 0x8, addend: 0x0, symName: __ZN8nlohmann16json_abi_v3_11_36detail6parserINS0_10basic_jsonINSt3__13mapENS4_6vectorENS4_12basic_stringIcNS4_11char_traitsIcEENS4_9allocatorIcEEEEbxydSA_NS0_14adl_serializerENS6_IhNSA_IhEEEEvEENS1_20input_stream_adapterEED1Ev, symObjAddr: 0x113F0, symBinAddr: 0x10001BD20, symSize: 0x20 }
  - { offsetInCU: 0x24C22, offset: 0x625B5, size: 0x8, addend: 0x0, symName: __ZNSt3__18functionIFbiN8nlohmann16json_abi_v3_11_36detail13parse_event_tERNS2_10basic_jsonINS_3mapENS_6vectorENS_12basic_stringIcNS_11char_traitsIcEENS_9allocatorIcEEEEbxydSB_NS2_14adl_serializerENS7_IhNSB_IhEEEEvEEEED1Ev, symObjAddr: 0x11410, symBinAddr: 0x10001BD40, symSize: 0x20 }
  - { offsetInCU: 0x24C4E, offset: 0x625E1, size: 0x8, addend: 0x0, symName: __ZN8nlohmann16json_abi_v3_11_36detail20input_stream_adapterD1Ev, symObjAddr: 0x11430, symBinAddr: 0x10001BD60, symSize: 0x20 }
  - { offsetInCU: 0x24C78, offset: 0x6260B, size: 0x8, addend: 0x0, symName: __ZNSt3__18functionIFbiN8nlohmann16json_abi_v3_11_36detail13parse_event_tERNS2_10basic_jsonINS_3mapENS_6vectorENS_12basic_stringIcNS_11char_traitsIcEENS_9allocatorIcEEEEbxydSB_NS2_14adl_serializerENS7_IhNSB_IhEEEEvEEEEC1EOSK_, symObjAddr: 0x11450, symBinAddr: 0x10001BD80, symSize: 0x30 }
  - { offsetInCU: 0x24CB3, offset: 0x62646, size: 0x8, addend: 0x0, symName: __ZN8nlohmann16json_abi_v3_11_36detail6parserINS0_10basic_jsonINSt3__13mapENS4_6vectorENS4_12basic_stringIcNS4_11char_traitsIcEENS4_9allocatorIcEEEEbxydSA_NS0_14adl_serializerENS6_IhNSA_IhEEEEvEENS1_20input_stream_adapterEEC1EOSH_NS4_8functionIFbiNS1_13parse_event_tERSG_EEEbb, symObjAddr: 0x11480, symBinAddr: 0x10001BDB0, symSize: 0x50 }
  - { offsetInCU: 0x24D1A, offset: 0x626AD, size: 0x8, addend: 0x0, symName: __ZNSt3__18functionIFbiN8nlohmann16json_abi_v3_11_36detail13parse_event_tERNS2_10basic_jsonINS_3mapENS_6vectorENS_12basic_stringIcNS_11char_traitsIcEENS_9allocatorIcEEEEbxydSB_NS2_14adl_serializerENS7_IhNSB_IhEEEEvEEEEC2EOSK_, symObjAddr: 0x114D0, symBinAddr: 0x10001BE00, symSize: 0x30 }
  - { offsetInCU: 0x24D55, offset: 0x626E8, size: 0x8, addend: 0x0, symName: __ZNSt3__110__function12__value_funcIFbiN8nlohmann16json_abi_v3_11_36detail13parse_event_tERNS3_10basic_jsonINS_3mapENS_6vectorENS_12basic_stringIcNS_11char_traitsIcEENS_9allocatorIcEEEEbxydSC_NS3_14adl_serializerENS8_IhNSC_IhEEEEvEEEEC1B8ue170006EOSL_, symObjAddr: 0x11500, symBinAddr: 0x10001BE30, symSize: 0x30 }
  - { offsetInCU: 0x24D8E, offset: 0x62721, size: 0x8, addend: 0x0, symName: __ZNSt3__110__function12__value_funcIFbiN8nlohmann16json_abi_v3_11_36detail13parse_event_tERNS3_10basic_jsonINS_3mapENS_6vectorENS_12basic_stringIcNS_11char_traitsIcEENS_9allocatorIcEEEEbxydSC_NS3_14adl_serializerENS8_IhNSC_IhEEEEvEEEEC2B8ue170006EOSL_, symObjAddr: 0x11530, symBinAddr: 0x10001BE60, symSize: 0xC0 }
  - { offsetInCU: 0x24DC7, offset: 0x6275A, size: 0x8, addend: 0x0, symName: __ZNSt3__110__function12__value_funcIFbiN8nlohmann16json_abi_v3_11_36detail13parse_event_tERNS3_10basic_jsonINS_3mapENS_6vectorENS_12basic_stringIcNS_11char_traitsIcEENS_9allocatorIcEEEEbxydSC_NS3_14adl_serializerENS8_IhNSC_IhEEEEvEEEE9__as_baseB8ue170006EPv, symObjAddr: 0x115F0, symBinAddr: 0x10001BF20, symSize: 0x10 }
  - { offsetInCU: 0x24DEB, offset: 0x6277E, size: 0x8, addend: 0x0, symName: __ZN8nlohmann16json_abi_v3_11_36detail6parserINS0_10basic_jsonINSt3__13mapENS4_6vectorENS4_12basic_stringIcNS4_11char_traitsIcEENS4_9allocatorIcEEEEbxydSA_NS0_14adl_serializerENS6_IhNSA_IhEEEEvEENS1_20input_stream_adapterEEC2EOSH_NS4_8functionIFbiNS1_13parse_event_tERSG_EEEbb, symObjAddr: 0x11600, symBinAddr: 0x10001BF30, symSize: 0xB0 }
